
ctarget:     file format elf64-x86-64


Disassembly of section .init:

0000000000401000 <_init>:
  401000:	f3 0f 1e fa          	endbr64
  401004:	48 83 ec 08          	sub    $0x8,%rsp
  401008:	48 8b 05 d1 4f 00 00 	mov    0x4fd1(%rip),%rax        # 405fe0 <__gmon_start__@Base>
  40100f:	48 85 c0             	test   %rax,%rax
  401012:	74 02                	je     401016 <_init+0x16>
  401014:	ff d0                	call   *%rax
  401016:	48 83 c4 08          	add    $0x8,%rsp
  40101a:	c3                   	ret

Disassembly of section .plt:

0000000000401020 <__errno_location@plt-0x10>:
  401020:	ff 35 ca 4f 00 00    	push   0x4fca(%rip)        # 405ff0 <_GLOBAL_OFFSET_TABLE_+0x8>
  401026:	ff 25 cc 4f 00 00    	jmp    *0x4fcc(%rip)        # 405ff8 <_GLOBAL_OFFSET_TABLE_+0x10>
  40102c:	0f 1f 40 00          	nopl   0x0(%rax)

0000000000401030 <__errno_location@plt>:
  401030:	ff 25 ca 4f 00 00    	jmp    *0x4fca(%rip)        # 406000 <__errno_location@GLIBC_2.2.5>
  401036:	68 00 00 00 00       	push   $0x0
  40103b:	e9 e0 ff ff ff       	jmp    401020 <_init+0x20>

0000000000401040 <srandom@plt>:
  401040:	ff 25 c2 4f 00 00    	jmp    *0x4fc2(%rip)        # 406008 <srandom@GLIBC_2.2.5>
  401046:	68 01 00 00 00       	push   $0x1
  40104b:	e9 d0 ff ff ff       	jmp    401020 <_init+0x20>

0000000000401050 <strncpy@plt>:
  401050:	ff 25 ba 4f 00 00    	jmp    *0x4fba(%rip)        # 406010 <strncpy@GLIBC_2.2.5>
  401056:	68 02 00 00 00       	push   $0x2
  40105b:	e9 c0 ff ff ff       	jmp    401020 <_init+0x20>

0000000000401060 <strncmp@plt>:
  401060:	ff 25 b2 4f 00 00    	jmp    *0x4fb2(%rip)        # 406018 <strncmp@GLIBC_2.2.5>
  401066:	68 03 00 00 00       	push   $0x3
  40106b:	e9 b0 ff ff ff       	jmp    401020 <_init+0x20>

0000000000401070 <strcpy@plt>:
  401070:	ff 25 aa 4f 00 00    	jmp    *0x4faa(%rip)        # 406020 <strcpy@GLIBC_2.2.5>
  401076:	68 04 00 00 00       	push   $0x4
  40107b:	e9 a0 ff ff ff       	jmp    401020 <_init+0x20>

0000000000401080 <puts@plt>:
  401080:	ff 25 a2 4f 00 00    	jmp    *0x4fa2(%rip)        # 406028 <puts@GLIBC_2.2.5>
  401086:	68 05 00 00 00       	push   $0x5
  40108b:	e9 90 ff ff ff       	jmp    401020 <_init+0x20>

0000000000401090 <write@plt>:
  401090:	ff 25 9a 4f 00 00    	jmp    *0x4f9a(%rip)        # 406030 <write@GLIBC_2.2.5>
  401096:	68 06 00 00 00       	push   $0x6
  40109b:	e9 80 ff ff ff       	jmp    401020 <_init+0x20>

00000000004010a0 <strlen@plt>:
  4010a0:	ff 25 92 4f 00 00    	jmp    *0x4f92(%rip)        # 406038 <strlen@GLIBC_2.2.5>
  4010a6:	68 07 00 00 00       	push   $0x7
  4010ab:	e9 70 ff ff ff       	jmp    401020 <_init+0x20>

00000000004010b0 <mmap@plt>:
  4010b0:	ff 25 8a 4f 00 00    	jmp    *0x4f8a(%rip)        # 406040 <mmap@GLIBC_2.2.5>
  4010b6:	68 08 00 00 00       	push   $0x8
  4010bb:	e9 60 ff ff ff       	jmp    401020 <_init+0x20>

00000000004010c0 <alarm@plt>:
  4010c0:	ff 25 82 4f 00 00    	jmp    *0x4f82(%rip)        # 406048 <alarm@GLIBC_2.2.5>
  4010c6:	68 09 00 00 00       	push   $0x9
  4010cb:	e9 50 ff ff ff       	jmp    401020 <_init+0x20>

00000000004010d0 <close@plt>:
  4010d0:	ff 25 7a 4f 00 00    	jmp    *0x4f7a(%rip)        # 406050 <close@GLIBC_2.2.5>
  4010d6:	68 0a 00 00 00       	push   $0xa
  4010db:	e9 40 ff ff ff       	jmp    401020 <_init+0x20>

00000000004010e0 <read@plt>:
  4010e0:	ff 25 72 4f 00 00    	jmp    *0x4f72(%rip)        # 406058 <read@GLIBC_2.2.5>
  4010e6:	68 0b 00 00 00       	push   $0xb
  4010eb:	e9 30 ff ff ff       	jmp    401020 <_init+0x20>

00000000004010f0 <strcmp@plt>:
  4010f0:	ff 25 6a 4f 00 00    	jmp    *0x4f6a(%rip)        # 406060 <strcmp@GLIBC_2.2.5>
  4010f6:	68 0c 00 00 00       	push   $0xc
  4010fb:	e9 20 ff ff ff       	jmp    401020 <_init+0x20>

0000000000401100 <signal@plt>:
  401100:	ff 25 62 4f 00 00    	jmp    *0x4f62(%rip)        # 406068 <signal@GLIBC_2.2.5>
  401106:	68 0d 00 00 00       	push   $0xd
  40110b:	e9 10 ff ff ff       	jmp    401020 <_init+0x20>

0000000000401110 <gethostbyname@plt>:
  401110:	ff 25 5a 4f 00 00    	jmp    *0x4f5a(%rip)        # 406070 <gethostbyname@GLIBC_2.2.5>
  401116:	68 0e 00 00 00       	push   $0xe
  40111b:	e9 00 ff ff ff       	jmp    401020 <_init+0x20>

0000000000401120 <__memmove_chk@plt>:
  401120:	ff 25 52 4f 00 00    	jmp    *0x4f52(%rip)        # 406078 <__memmove_chk@GLIBC_2.3.4>
  401126:	68 0f 00 00 00       	push   $0xf
  40112b:	e9 f0 fe ff ff       	jmp    401020 <_init+0x20>

0000000000401130 <strtol@plt>:
  401130:	ff 25 4a 4f 00 00    	jmp    *0x4f4a(%rip)        # 406080 <strtol@GLIBC_2.2.5>
  401136:	68 10 00 00 00       	push   $0x10
  40113b:	e9 e0 fe ff ff       	jmp    401020 <_init+0x20>

0000000000401140 <memcpy@plt>:
  401140:	ff 25 42 4f 00 00    	jmp    *0x4f42(%rip)        # 406088 <memcpy@GLIBC_2.14>
  401146:	68 11 00 00 00       	push   $0x11
  40114b:	e9 d0 fe ff ff       	jmp    401020 <_init+0x20>

0000000000401150 <time@plt>:
  401150:	ff 25 3a 4f 00 00    	jmp    *0x4f3a(%rip)        # 406090 <time@GLIBC_2.2.5>
  401156:	68 12 00 00 00       	push   $0x12
  40115b:	e9 c0 fe ff ff       	jmp    401020 <_init+0x20>

0000000000401160 <random@plt>:
  401160:	ff 25 32 4f 00 00    	jmp    *0x4f32(%rip)        # 406098 <random@GLIBC_2.2.5>
  401166:	68 13 00 00 00       	push   $0x13
  40116b:	e9 b0 fe ff ff       	jmp    401020 <_init+0x20>

0000000000401170 <__isoc99_sscanf@plt>:
  401170:	ff 25 2a 4f 00 00    	jmp    *0x4f2a(%rip)        # 4060a0 <__isoc99_sscanf@GLIBC_2.7>
  401176:	68 14 00 00 00       	push   $0x14
  40117b:	e9 a0 fe ff ff       	jmp    401020 <_init+0x20>

0000000000401180 <munmap@plt>:
  401180:	ff 25 22 4f 00 00    	jmp    *0x4f22(%rip)        # 4060a8 <munmap@GLIBC_2.2.5>
  401186:	68 15 00 00 00       	push   $0x15
  40118b:	e9 90 fe ff ff       	jmp    401020 <_init+0x20>

0000000000401190 <__printf_chk@plt>:
  401190:	ff 25 1a 4f 00 00    	jmp    *0x4f1a(%rip)        # 4060b0 <__printf_chk@GLIBC_2.3.4>
  401196:	68 16 00 00 00       	push   $0x16
  40119b:	e9 80 fe ff ff       	jmp    401020 <_init+0x20>

00000000004011a0 <fopen@plt>:
  4011a0:	ff 25 12 4f 00 00    	jmp    *0x4f12(%rip)        # 4060b8 <fopen@GLIBC_2.2.5>
  4011a6:	68 17 00 00 00       	push   $0x17
  4011ab:	e9 70 fe ff ff       	jmp    401020 <_init+0x20>

00000000004011b0 <getopt@plt>:
  4011b0:	ff 25 0a 4f 00 00    	jmp    *0x4f0a(%rip)        # 4060c0 <getopt@GLIBC_2.2.5>
  4011b6:	68 18 00 00 00       	push   $0x18
  4011bb:	e9 60 fe ff ff       	jmp    401020 <_init+0x20>

00000000004011c0 <strtoul@plt>:
  4011c0:	ff 25 02 4f 00 00    	jmp    *0x4f02(%rip)        # 4060c8 <strtoul@GLIBC_2.2.5>
  4011c6:	68 19 00 00 00       	push   $0x19
  4011cb:	e9 50 fe ff ff       	jmp    401020 <_init+0x20>

00000000004011d0 <__memset_chk@plt>:
  4011d0:	ff 25 fa 4e 00 00    	jmp    *0x4efa(%rip)        # 4060d0 <__memset_chk@GLIBC_2.3.4>
  4011d6:	68 1a 00 00 00       	push   $0x1a
  4011db:	e9 40 fe ff ff       	jmp    401020 <_init+0x20>

00000000004011e0 <exit@plt>:
  4011e0:	ff 25 f2 4e 00 00    	jmp    *0x4ef2(%rip)        # 4060d8 <exit@GLIBC_2.2.5>
  4011e6:	68 1b 00 00 00       	push   $0x1b
  4011eb:	e9 30 fe ff ff       	jmp    401020 <_init+0x20>

00000000004011f0 <connect@plt>:
  4011f0:	ff 25 ea 4e 00 00    	jmp    *0x4eea(%rip)        # 4060e0 <connect@GLIBC_2.2.5>
  4011f6:	68 1c 00 00 00       	push   $0x1c
  4011fb:	e9 20 fe ff ff       	jmp    401020 <_init+0x20>

0000000000401200 <__fprintf_chk@plt>:
  401200:	ff 25 e2 4e 00 00    	jmp    *0x4ee2(%rip)        # 4060e8 <__fprintf_chk@GLIBC_2.3.4>
  401206:	68 1d 00 00 00       	push   $0x1d
  40120b:	e9 10 fe ff ff       	jmp    401020 <_init+0x20>

0000000000401210 <getc@plt>:
  401210:	ff 25 da 4e 00 00    	jmp    *0x4eda(%rip)        # 4060f0 <getc@GLIBC_2.2.5>
  401216:	68 1e 00 00 00       	push   $0x1e
  40121b:	e9 00 fe ff ff       	jmp    401020 <_init+0x20>

0000000000401220 <__sprintf_chk@plt>:
  401220:	ff 25 d2 4e 00 00    	jmp    *0x4ed2(%rip)        # 4060f8 <__sprintf_chk@GLIBC_2.3.4>
  401226:	68 1f 00 00 00       	push   $0x1f
  40122b:	e9 f0 fd ff ff       	jmp    401020 <_init+0x20>

0000000000401230 <socket@plt>:
  401230:	ff 25 ca 4e 00 00    	jmp    *0x4eca(%rip)        # 406100 <socket@GLIBC_2.2.5>
  401236:	68 20 00 00 00       	push   $0x20
  40123b:	e9 e0 fd ff ff       	jmp    401020 <_init+0x20>

Disassembly of section .text:

0000000000401240 <_start>:
  401240:	f3 0f 1e fa          	endbr64
  401244:	31 ed                	xor    %ebp,%ebp
  401246:	49 89 d1             	mov    %rdx,%r9
  401249:	5e                   	pop    %rsi
  40124a:	48 89 e2             	mov    %rsp,%rdx
  40124d:	48 83 e4 f0          	and    $0xfffffffffffffff0,%rsp
  401251:	50                   	push   %rax
  401252:	54                   	push   %rsp
  401253:	45 31 c0             	xor    %r8d,%r8d
  401256:	31 c9                	xor    %ecx,%ecx
  401258:	48 c7 c7 d7 14 40 00 	mov    $0x4014d7,%rdi
  40125f:	ff 15 73 4d 00 00    	call   *0x4d73(%rip)        # 405fd8 <__libc_start_main@GLIBC_2.34>
  401265:	f4                   	hlt
  401266:	66 2e 0f 1f 84 00 00 	cs nopw 0x0(%rax,%rax,1)
  40126d:	00 00 00 

0000000000401270 <_dl_relocate_static_pie>:
  401270:	f3 0f 1e fa          	endbr64
  401274:	c3                   	ret
  401275:	66 2e 0f 1f 84 00 00 	cs nopw 0x0(%rax,%rax,1)
  40127c:	00 00 00 
  40127f:	90                   	nop

0000000000401280 <deregister_tm_clones>:
  401280:	b8 90 64 40 00       	mov    $0x406490,%eax
  401285:	48 3d 90 64 40 00    	cmp    $0x406490,%rax
  40128b:	74 13                	je     4012a0 <deregister_tm_clones+0x20>
  40128d:	b8 00 00 00 00       	mov    $0x0,%eax
  401292:	48 85 c0             	test   %rax,%rax
  401295:	74 09                	je     4012a0 <deregister_tm_clones+0x20>
  401297:	bf 90 64 40 00       	mov    $0x406490,%edi
  40129c:	ff e0                	jmp    *%rax
  40129e:	66 90                	xchg   %ax,%ax
  4012a0:	c3                   	ret
  4012a1:	66 66 2e 0f 1f 84 00 	data16 cs nopw 0x0(%rax,%rax,1)
  4012a8:	00 00 00 00 
  4012ac:	0f 1f 40 00          	nopl   0x0(%rax)

00000000004012b0 <register_tm_clones>:
  4012b0:	be 90 64 40 00       	mov    $0x406490,%esi
  4012b5:	48 81 ee 90 64 40 00 	sub    $0x406490,%rsi
  4012bc:	48 89 f0             	mov    %rsi,%rax
  4012bf:	48 c1 ee 3f          	shr    $0x3f,%rsi
  4012c3:	48 c1 f8 03          	sar    $0x3,%rax
  4012c7:	48 01 c6             	add    %rax,%rsi
  4012ca:	48 d1 fe             	sar    $1,%rsi
  4012cd:	74 11                	je     4012e0 <register_tm_clones+0x30>
  4012cf:	b8 00 00 00 00       	mov    $0x0,%eax
  4012d4:	48 85 c0             	test   %rax,%rax
  4012d7:	74 07                	je     4012e0 <register_tm_clones+0x30>
  4012d9:	bf 90 64 40 00       	mov    $0x406490,%edi
  4012de:	ff e0                	jmp    *%rax
  4012e0:	c3                   	ret
  4012e1:	66 66 2e 0f 1f 84 00 	data16 cs nopw 0x0(%rax,%rax,1)
  4012e8:	00 00 00 00 
  4012ec:	0f 1f 40 00          	nopl   0x0(%rax)

00000000004012f0 <__do_global_dtors_aux>:
  4012f0:	f3 0f 1e fa          	endbr64
  4012f4:	80 3d ed 51 00 00 00 	cmpb   $0x0,0x51ed(%rip)        # 4064e8 <completed.0>
  4012fb:	75 13                	jne    401310 <__do_global_dtors_aux+0x20>
  4012fd:	55                   	push   %rbp
  4012fe:	48 89 e5             	mov    %rsp,%rbp
  401301:	e8 7a ff ff ff       	call   401280 <deregister_tm_clones>
  401306:	c6 05 db 51 00 00 01 	movb   $0x1,0x51db(%rip)        # 4064e8 <completed.0>
  40130d:	5d                   	pop    %rbp
  40130e:	c3                   	ret
  40130f:	90                   	nop
  401310:	c3                   	ret
  401311:	66 66 2e 0f 1f 84 00 	data16 cs nopw 0x0(%rax,%rax,1)
  401318:	00 00 00 00 
  40131c:	0f 1f 40 00          	nopl   0x0(%rax)

0000000000401320 <frame_dummy>:
  401320:	f3 0f 1e fa          	endbr64
  401324:	eb 8a                	jmp    4012b0 <register_tm_clones>

0000000000401326 <usage>:
  401326:	50                   	push   %rax
  401327:	58                   	pop    %rax
  401328:	48 83 ec 08          	sub    $0x8,%rsp
  40132c:	48 89 fa             	mov    %rdi,%rdx
  40132f:	83 3d fa 51 00 00 00 	cmpl   $0x0,0x51fa(%rip)        # 406530 <is_checker>
  401336:	74 50                	je     401388 <usage+0x62>
  401338:	48 8d 35 c9 2c 00 00 	lea    0x2cc9(%rip),%rsi        # 404008 <_IO_stdin_used+0x8>
  40133f:	bf 02 00 00 00       	mov    $0x2,%edi
  401344:	b8 00 00 00 00       	mov    $0x0,%eax
  401349:	e8 42 fe ff ff       	call   401190 <__printf_chk@plt>
  40134e:	48 8d 3d eb 2c 00 00 	lea    0x2ceb(%rip),%rdi        # 404040 <_IO_stdin_used+0x40>
  401355:	e8 26 fd ff ff       	call   401080 <puts@plt>
  40135a:	48 8d 3d bc 31 00 00 	lea    0x31bc(%rip),%rdi        # 40451d <_IO_stdin_used+0x51d>
  401361:	e8 1a fd ff ff       	call   401080 <puts@plt>
  401366:	48 8d 3d fb 2c 00 00 	lea    0x2cfb(%rip),%rdi        # 404068 <_IO_stdin_used+0x68>
  40136d:	e8 0e fd ff ff       	call   401080 <puts@plt>
  401372:	48 8d 3d be 31 00 00 	lea    0x31be(%rip),%rdi        # 404537 <_IO_stdin_used+0x537>
  401379:	e8 02 fd ff ff       	call   401080 <puts@plt>
  40137e:	bf 00 00 00 00       	mov    $0x0,%edi
  401383:	e8 58 fe ff ff       	call   4011e0 <exit@plt>
  401388:	48 8d 35 c4 31 00 00 	lea    0x31c4(%rip),%rsi        # 404553 <_IO_stdin_used+0x553>
  40138f:	bf 02 00 00 00       	mov    $0x2,%edi
  401394:	b8 00 00 00 00       	mov    $0x0,%eax
  401399:	e8 f2 fd ff ff       	call   401190 <__printf_chk@plt>
  40139e:	48 8d 3d eb 2c 00 00 	lea    0x2ceb(%rip),%rdi        # 404090 <_IO_stdin_used+0x90>
  4013a5:	e8 d6 fc ff ff       	call   401080 <puts@plt>
  4013aa:	48 8d 3d 07 2d 00 00 	lea    0x2d07(%rip),%rdi        # 4040b8 <_IO_stdin_used+0xb8>
  4013b1:	e8 ca fc ff ff       	call   401080 <puts@plt>
  4013b6:	48 8d 3d b4 31 00 00 	lea    0x31b4(%rip),%rdi        # 404571 <_IO_stdin_used+0x571>
  4013bd:	e8 be fc ff ff       	call   401080 <puts@plt>
  4013c2:	eb ba                	jmp    40137e <usage+0x58>

00000000004013c4 <initialize_target>:
  4013c4:	55                   	push   %rbp
  4013c5:	53                   	push   %rbx
  4013c6:	48 81 ec 00 10 00 00 	sub    $0x1000,%rsp
  4013cd:	48 83 0c 24 00       	orq    $0x0,(%rsp)
  4013d2:	48 81 ec 00 10 00 00 	sub    $0x1000,%rsp
  4013d9:	48 83 0c 24 00       	orq    $0x0,(%rsp)
  4013de:	48 83 ec 18          	sub    $0x18,%rsp
  4013e2:	89 f5                	mov    %esi,%ebp
  4013e4:	64 48 8b 04 25 28 00 	mov    %fs:0x28,%rax
  4013eb:	00 00 
  4013ed:	48 89 84 24 08 20 00 	mov    %rax,0x2008(%rsp)
  4013f4:	00 
  4013f5:	31 c0                	xor    %eax,%eax
  4013f7:	89 3d 23 51 00 00    	mov    %edi,0x5123(%rip)        # 406520 <check_level>
  4013fd:	8b 3d 2d 4d 00 00    	mov    0x4d2d(%rip),%edi        # 406130 <target_id>
  401403:	e8 c6 1f 00 00       	call   4033ce <gencookie>
  401408:	89 c7                	mov    %eax,%edi
  40140a:	89 05 1c 51 00 00    	mov    %eax,0x511c(%rip)        # 40652c <cookie>
  401410:	e8 b9 1f 00 00       	call   4033ce <gencookie>
  401415:	89 05 0d 51 00 00    	mov    %eax,0x510d(%rip)        # 406528 <authkey>
  40141b:	8b 05 0f 4d 00 00    	mov    0x4d0f(%rip),%eax        # 406130 <target_id>
  401421:	8d 78 01             	lea    0x1(%rax),%edi
  401424:	e8 17 fc ff ff       	call   401040 <srandom@plt>
  401429:	e8 32 fd ff ff       	call   401160 <random@plt>
  40142e:	89 c7                	mov    %eax,%edi
  401430:	e8 07 03 00 00       	call   40173c <scramble>
  401435:	89 c3                	mov    %eax,%ebx
  401437:	85 ed                	test   %ebp,%ebp
  401439:	75 50                	jne    40148b <initialize_target+0xc7>
  40143b:	b8 00 00 00 00       	mov    $0x0,%eax
  401440:	01 d8                	add    %ebx,%eax
  401442:	0f b7 c0             	movzwl %ax,%eax
  401445:	8d 04 c5 00 01 00 00 	lea    0x100(,%rax,8),%eax
  40144c:	89 c0                	mov    %eax,%eax
  40144e:	48 89 05 33 50 00 00 	mov    %rax,0x5033(%rip)        # 406488 <buf_offset>
  401455:	c6 05 ec 5c 00 00 63 	movb   $0x63,0x5cec(%rip)        # 407148 <target_prefix>
  40145c:	83 3d 1d 50 00 00 00 	cmpl   $0x0,0x501d(%rip)        # 406480 <notify>
  401463:	74 09                	je     40146e <initialize_target+0xaa>
  401465:	83 3d c4 50 00 00 00 	cmpl   $0x0,0x50c4(%rip)        # 406530 <is_checker>
  40146c:	74 35                	je     4014a3 <initialize_target+0xdf>
  40146e:	48 8b 84 24 08 20 00 	mov    0x2008(%rsp),%rax
  401475:	00 
  401476:	64 48 2b 04 25 28 00 	sub    %fs:0x28,%rax
  40147d:	00 00 
  40147f:	75 51                	jne    4014d2 <initialize_target+0x10e>
  401481:	48 81 c4 18 20 00 00 	add    $0x2018,%rsp
  401488:	5b                   	pop    %rbx
  401489:	5d                   	pop    %rbp
  40148a:	c3                   	ret
  40148b:	bf 00 00 00 00       	mov    $0x0,%edi
  401490:	e8 bb fc ff ff       	call   401150 <time@plt>
  401495:	89 c7                	mov    %eax,%edi
  401497:	e8 a4 fb ff ff       	call   401040 <srandom@plt>
  40149c:	e8 bf fc ff ff       	call   401160 <random@plt>
  4014a1:	eb 9d                	jmp    401440 <initialize_target+0x7c>
  4014a3:	48 89 e7             	mov    %rsp,%rdi
  4014a6:	e8 5a 1c 00 00       	call   403105 <init_driver>
  4014ab:	85 c0                	test   %eax,%eax
  4014ad:	79 bf                	jns    40146e <initialize_target+0xaa>
  4014af:	48 89 e2             	mov    %rsp,%rdx
  4014b2:	48 8d 35 2f 2c 00 00 	lea    0x2c2f(%rip),%rsi        # 4040e8 <_IO_stdin_used+0xe8>
  4014b9:	bf 02 00 00 00       	mov    $0x2,%edi
  4014be:	b8 00 00 00 00       	mov    $0x0,%eax
  4014c3:	e8 c8 fc ff ff       	call   401190 <__printf_chk@plt>
  4014c8:	bf 08 00 00 00       	mov    $0x8,%edi
  4014cd:	e8 0e fd ff ff       	call   4011e0 <exit@plt>
  4014d2:	e8 aa 0f 00 00       	call   402481 <__stack_chk_fail>

00000000004014d7 <main>:
  4014d7:	f3 0f 1e fa          	endbr64
  4014db:	41 56                	push   %r14
  4014dd:	41 55                	push   %r13
  4014df:	41 54                	push   %r12
  4014e1:	55                   	push   %rbp
  4014e2:	53                   	push   %rbx
  4014e3:	48 83 ec 60          	sub    $0x60,%rsp
  4014e7:	89 fd                	mov    %edi,%ebp
  4014e9:	48 89 f3             	mov    %rsi,%rbx
  4014ec:	64 48 8b 04 25 28 00 	mov    %fs:0x28,%rax
  4014f3:	00 00 
  4014f5:	48 89 44 24 58       	mov    %rax,0x58(%rsp)
  4014fa:	31 c0                	xor    %eax,%eax
  4014fc:	48 b8 53 70 69 72 69 	movabs $0x6465746972697053,%rax
  401503:	74 65 64 
  401506:	48 89 04 24          	mov    %rax,(%rsp)
  40150a:	48 b8 64 41 77 61 79 	movabs $0x4e437961774164,%rax
  401511:	43 4e 00 
  401514:	48 89 44 24 07       	mov    %rax,0x7(%rsp)
  401519:	48 c7 c6 70 23 40 00 	mov    $0x402370,%rsi
  401520:	bf 0b 00 00 00       	mov    $0xb,%edi
  401525:	e8 d6 fb ff ff       	call   401100 <signal@plt>
  40152a:	48 c7 c6 16 23 40 00 	mov    $0x402316,%rsi
  401531:	bf 07 00 00 00       	mov    $0x7,%edi
  401536:	e8 c5 fb ff ff       	call   401100 <signal@plt>
  40153b:	48 c7 c6 ca 23 40 00 	mov    $0x4023ca,%rsi
  401542:	bf 04 00 00 00       	mov    $0x4,%edi
  401547:	e8 b4 fb ff ff       	call   401100 <signal@plt>
  40154c:	83 3d dd 4f 00 00 00 	cmpl   $0x0,0x4fdd(%rip)        # 406530 <is_checker>
  401553:	75 26                	jne    40157b <main+0xa4>
  401555:	4c 8d 25 2e 30 00 00 	lea    0x302e(%rip),%r12        # 40458a <_IO_stdin_used+0x58a>
  40155c:	48 8b 05 3d 4f 00 00 	mov    0x4f3d(%rip),%rax        # 4064a0 <stdin@GLIBC_2.2.5>
  401563:	48 89 05 ae 4f 00 00 	mov    %rax,0x4fae(%rip)        # 406518 <infile>
  40156a:	41 bd 00 00 00 00    	mov    $0x0,%r13d
  401570:	41 be 00 00 00 00    	mov    $0x0,%r14d
  401576:	e9 8d 00 00 00       	jmp    401608 <main+0x131>
  40157b:	48 c7 c6 24 24 40 00 	mov    $0x402424,%rsi
  401582:	bf 0e 00 00 00       	mov    $0xe,%edi
  401587:	e8 74 fb ff ff       	call   401100 <signal@plt>
  40158c:	bf 02 00 00 00       	mov    $0x2,%edi
  401591:	e8 2a fb ff ff       	call   4010c0 <alarm@plt>
  401596:	4c 8d 25 f2 2f 00 00 	lea    0x2ff2(%rip),%r12        # 40458f <_IO_stdin_used+0x58f>
  40159d:	eb bd                	jmp    40155c <main+0x85>
  40159f:	48 8b 3b             	mov    (%rbx),%rdi
  4015a2:	e8 7f fd ff ff       	call   401326 <usage>
  4015a7:	48 8d 35 5b 30 00 00 	lea    0x305b(%rip),%rsi        # 404609 <_IO_stdin_used+0x609>
  4015ae:	48 8b 3d 0b 4f 00 00 	mov    0x4f0b(%rip),%rdi        # 4064c0 <optarg@GLIBC_2.2.5>
  4015b5:	e8 e6 fb ff ff       	call   4011a0 <fopen@plt>
  4015ba:	48 89 05 57 4f 00 00 	mov    %rax,0x4f57(%rip)        # 406518 <infile>
  4015c1:	48 85 c0             	test   %rax,%rax
  4015c4:	75 42                	jne    401608 <main+0x131>
  4015c6:	48 8b 0d f3 4e 00 00 	mov    0x4ef3(%rip),%rcx        # 4064c0 <optarg@GLIBC_2.2.5>
  4015cd:	48 8d 15 c5 2f 00 00 	lea    0x2fc5(%rip),%rdx        # 404599 <_IO_stdin_used+0x599>
  4015d4:	be 02 00 00 00       	mov    $0x2,%esi
  4015d9:	48 8b 3d 00 4f 00 00 	mov    0x4f00(%rip),%rdi        # 4064e0 <stderr@GLIBC_2.2.5>
  4015e0:	e8 1b fc ff ff       	call   401200 <__fprintf_chk@plt>
  4015e5:	b8 01 00 00 00       	mov    $0x1,%eax
  4015ea:	e9 2b 01 00 00       	jmp    40171a <main+0x243>
  4015ef:	ba 10 00 00 00       	mov    $0x10,%edx
  4015f4:	be 00 00 00 00       	mov    $0x0,%esi
  4015f9:	48 8b 3d c0 4e 00 00 	mov    0x4ec0(%rip),%rdi        # 4064c0 <optarg@GLIBC_2.2.5>
  401600:	e8 bb fb ff ff       	call   4011c0 <strtoul@plt>
  401605:	41 89 c6             	mov    %eax,%r14d
  401608:	4c 89 e2             	mov    %r12,%rdx
  40160b:	48 89 de             	mov    %rbx,%rsi
  40160e:	89 ef                	mov    %ebp,%edi
  401610:	e8 9b fb ff ff       	call   4011b0 <getopt@plt>
  401615:	3c ff                	cmp    $0xff,%al
  401617:	74 7a                	je     401693 <main+0x1bc>
  401619:	8d 50 9f             	lea    -0x61(%rax),%edx
  40161c:	80 fa 14             	cmp    $0x14,%dl
  40161f:	77 51                	ja     401672 <main+0x19b>
  401621:	0f b6 d2             	movzbl %dl,%edx
  401624:	48 8d 0d 75 31 00 00 	lea    0x3175(%rip),%rcx        # 4047a0 <_IO_stdin_used+0x7a0>
  40162b:	48 63 14 91          	movslq (%rcx,%rdx,4),%rdx
  40162f:	48 01 ca             	add    %rcx,%rdx
  401632:	3e ff e2             	notrack jmp *%rdx
  401635:	ba 0a 00 00 00       	mov    $0xa,%edx
  40163a:	be 00 00 00 00       	mov    $0x0,%esi
  40163f:	48 8b 3d 7a 4e 00 00 	mov    0x4e7a(%rip),%rdi        # 4064c0 <optarg@GLIBC_2.2.5>
  401646:	e8 e5 fa ff ff       	call   401130 <strtol@plt>
  40164b:	41 89 c5             	mov    %eax,%r13d
  40164e:	eb b8                	jmp    401608 <main+0x131>
  401650:	c7 05 26 4e 00 00 00 	movl   $0x0,0x4e26(%rip)        # 406480 <notify>
  401657:	00 00 00 
  40165a:	eb ac                	jmp    401608 <main+0x131>
  40165c:	48 89 e7             	mov    %rsp,%rdi
  40165f:	ba 50 00 00 00       	mov    $0x50,%edx
  401664:	48 8b 35 55 4e 00 00 	mov    0x4e55(%rip),%rsi        # 4064c0 <optarg@GLIBC_2.2.5>
  40166b:	e8 e0 f9 ff ff       	call   401050 <strncpy@plt>
  401670:	eb 96                	jmp    401608 <main+0x131>
  401672:	0f be d0             	movsbl %al,%edx
  401675:	48 8d 35 3a 2f 00 00 	lea    0x2f3a(%rip),%rsi        # 4045b6 <_IO_stdin_used+0x5b6>
  40167c:	bf 02 00 00 00       	mov    $0x2,%edi
  401681:	b8 00 00 00 00       	mov    $0x0,%eax
  401686:	e8 05 fb ff ff       	call   401190 <__printf_chk@plt>
  40168b:	48 8b 3b             	mov    (%rbx),%rdi
  40168e:	e8 93 fc ff ff       	call   401326 <usage>
  401693:	be 00 00 00 00       	mov    $0x0,%esi
  401698:	44 89 ef             	mov    %r13d,%edi
  40169b:	e8 24 fd ff ff       	call   4013c4 <initialize_target>
  4016a0:	83 3d 89 4e 00 00 00 	cmpl   $0x0,0x4e89(%rip)        # 406530 <is_checker>
  4016a7:	74 3f                	je     4016e8 <main+0x211>
  4016a9:	44 39 35 78 4e 00 00 	cmp    %r14d,0x4e78(%rip)        # 406528 <authkey>
  4016b0:	75 13                	jne    4016c5 <main+0x1ee>
  4016b2:	48 89 e7             	mov    %rsp,%rdi
  4016b5:	48 8b 35 84 4a 00 00 	mov    0x4a84(%rip),%rsi        # 406140 <user_id>
  4016bc:	e8 2f fa ff ff       	call   4010f0 <strcmp@plt>
  4016c1:	85 c0                	test   %eax,%eax
  4016c3:	74 23                	je     4016e8 <main+0x211>
  4016c5:	44 89 f2             	mov    %r14d,%edx
  4016c8:	48 8d 35 41 2a 00 00 	lea    0x2a41(%rip),%rsi        # 404110 <_IO_stdin_used+0x110>
  4016cf:	bf 02 00 00 00       	mov    $0x2,%edi
  4016d4:	b8 00 00 00 00       	mov    $0x0,%eax
  4016d9:	e8 b2 fa ff ff       	call   401190 <__printf_chk@plt>
  4016de:	b8 00 00 00 00       	mov    $0x0,%eax
  4016e3:	e8 6c 08 00 00       	call   401f54 <check_fail>
  4016e8:	8b 15 3e 4e 00 00    	mov    0x4e3e(%rip),%edx        # 40652c <cookie>
  4016ee:	48 8d 35 d4 2e 00 00 	lea    0x2ed4(%rip),%rsi        # 4045c9 <_IO_stdin_used+0x5c9>
  4016f5:	bf 02 00 00 00       	mov    $0x2,%edi
  4016fa:	b8 00 00 00 00       	mov    $0x0,%eax
  4016ff:	e8 8c fa ff ff       	call   401190 <__printf_chk@plt>
  401704:	be 00 00 00 00       	mov    $0x0,%esi
  401709:	48 8b 3d 78 4d 00 00 	mov    0x4d78(%rip),%rdi        # 406488 <buf_offset>
  401710:	e8 d2 0e 00 00       	call   4025e7 <stable_launch>
  401715:	b8 00 00 00 00       	mov    $0x0,%eax
  40171a:	48 8b 54 24 58       	mov    0x58(%rsp),%rdx
  40171f:	64 48 2b 14 25 28 00 	sub    %fs:0x28,%rdx
  401726:	00 00 
  401728:	75 0d                	jne    401737 <main+0x260>
  40172a:	48 83 c4 60          	add    $0x60,%rsp
  40172e:	5b                   	pop    %rbx
  40172f:	5d                   	pop    %rbp
  401730:	41 5c                	pop    %r12
  401732:	41 5d                	pop    %r13
  401734:	41 5e                	pop    %r14
  401736:	c3                   	ret
  401737:	e8 45 0d 00 00       	call   402481 <__stack_chk_fail>

000000000040173c <scramble>:
  40173c:	f3 0f 1e fa          	endbr64
  401740:	48 83 ec 38          	sub    $0x38,%rsp
  401744:	64 48 8b 04 25 28 00 	mov    %fs:0x28,%rax
  40174b:	00 00 
  40174d:	48 89 44 24 28       	mov    %rax,0x28(%rsp)
  401752:	31 c0                	xor    %eax,%eax
  401754:	eb 10                	jmp    401766 <scramble+0x2a>
  401756:	69 d0 bb 40 00 00    	imul   $0x40bb,%eax,%edx
  40175c:	01 fa                	add    %edi,%edx
  40175e:	89 c1                	mov    %eax,%ecx
  401760:	89 14 8c             	mov    %edx,(%rsp,%rcx,4)
  401763:	83 c0 01             	add    $0x1,%eax
  401766:	83 f8 09             	cmp    $0x9,%eax
  401769:	76 eb                	jbe    401756 <scramble+0x1a>
  40176b:	8b 44 24 04          	mov    0x4(%rsp),%eax
  40176f:	69 c0 fe ea 00 00    	imul   $0xeafe,%eax,%eax
  401775:	89 44 24 04          	mov    %eax,0x4(%rsp)
  401779:	8b 44 24 10          	mov    0x10(%rsp),%eax
  40177d:	69 c0 1c 10 00 00    	imul   $0x101c,%eax,%eax
  401783:	89 44 24 10          	mov    %eax,0x10(%rsp)
  401787:	8b 44 24 08          	mov    0x8(%rsp),%eax
  40178b:	69 c0 2a 36 00 00    	imul   $0x362a,%eax,%eax
  401791:	89 44 24 08          	mov    %eax,0x8(%rsp)
  401795:	8b 44 24 24          	mov    0x24(%rsp),%eax
  401799:	69 c0 32 a3 00 00    	imul   $0xa332,%eax,%eax
  40179f:	89 44 24 24          	mov    %eax,0x24(%rsp)
  4017a3:	8b 44 24 24          	mov    0x24(%rsp),%eax
  4017a7:	69 c0 d2 35 00 00    	imul   $0x35d2,%eax,%eax
  4017ad:	89 44 24 24          	mov    %eax,0x24(%rsp)
  4017b1:	8b 44 24 10          	mov    0x10(%rsp),%eax
  4017b5:	69 c0 02 4e 00 00    	imul   $0x4e02,%eax,%eax
  4017bb:	89 44 24 10          	mov    %eax,0x10(%rsp)
  4017bf:	8b 44 24 14          	mov    0x14(%rsp),%eax
  4017c3:	69 c0 f6 4e 00 00    	imul   $0x4ef6,%eax,%eax
  4017c9:	89 44 24 14          	mov    %eax,0x14(%rsp)
  4017cd:	8b 44 24 1c          	mov    0x1c(%rsp),%eax
  4017d1:	69 c0 d9 e0 00 00    	imul   $0xe0d9,%eax,%eax
  4017d7:	89 44 24 1c          	mov    %eax,0x1c(%rsp)
  4017db:	8b 44 24 1c          	mov    0x1c(%rsp),%eax
  4017df:	69 c0 99 ff 00 00    	imul   $0xff99,%eax,%eax
  4017e5:	89 44 24 1c          	mov    %eax,0x1c(%rsp)
  4017e9:	8b 44 24 1c          	mov    0x1c(%rsp),%eax
  4017ed:	69 c0 e7 92 00 00    	imul   $0x92e7,%eax,%eax
  4017f3:	89 44 24 1c          	mov    %eax,0x1c(%rsp)
  4017f7:	8b 44 24 24          	mov    0x24(%rsp),%eax
  4017fb:	69 c0 85 40 00 00    	imul   $0x4085,%eax,%eax
  401801:	89 44 24 24          	mov    %eax,0x24(%rsp)
  401805:	8b 44 24 24          	mov    0x24(%rsp),%eax
  401809:	69 c0 99 ad 00 00    	imul   $0xad99,%eax,%eax
  40180f:	89 44 24 24          	mov    %eax,0x24(%rsp)
  401813:	8b 44 24 24          	mov    0x24(%rsp),%eax
  401817:	69 c0 87 4a 00 00    	imul   $0x4a87,%eax,%eax
  40181d:	89 44 24 24          	mov    %eax,0x24(%rsp)
  401821:	8b 44 24 10          	mov    0x10(%rsp),%eax
  401825:	69 c0 4d 7e 00 00    	imul   $0x7e4d,%eax,%eax
  40182b:	89 44 24 10          	mov    %eax,0x10(%rsp)
  40182f:	8b 44 24 18          	mov    0x18(%rsp),%eax
  401833:	69 c0 28 fc 00 00    	imul   $0xfc28,%eax,%eax
  401839:	89 44 24 18          	mov    %eax,0x18(%rsp)
  40183d:	8b 44 24 24          	mov    0x24(%rsp),%eax
  401841:	69 c0 f3 89 00 00    	imul   $0x89f3,%eax,%eax
  401847:	89 44 24 24          	mov    %eax,0x24(%rsp)
  40184b:	8b 44 24 04          	mov    0x4(%rsp),%eax
  40184f:	69 c0 0b 44 00 00    	imul   $0x440b,%eax,%eax
  401855:	89 44 24 04          	mov    %eax,0x4(%rsp)
  401859:	8b 44 24 14          	mov    0x14(%rsp),%eax
  40185d:	69 c0 11 b3 00 00    	imul   $0xb311,%eax,%eax
  401863:	89 44 24 14          	mov    %eax,0x14(%rsp)
  401867:	8b 44 24 1c          	mov    0x1c(%rsp),%eax
  40186b:	69 c0 d7 88 00 00    	imul   $0x88d7,%eax,%eax
  401871:	89 44 24 1c          	mov    %eax,0x1c(%rsp)
  401875:	8b 44 24 10          	mov    0x10(%rsp),%eax
  401879:	69 c0 e0 eb 00 00    	imul   $0xebe0,%eax,%eax
  40187f:	89 44 24 10          	mov    %eax,0x10(%rsp)
  401883:	8b 44 24 18          	mov    0x18(%rsp),%eax
  401887:	69 c0 6a c0 00 00    	imul   $0xc06a,%eax,%eax
  40188d:	89 44 24 18          	mov    %eax,0x18(%rsp)
  401891:	8b 44 24 18          	mov    0x18(%rsp),%eax
  401895:	69 c0 c4 41 00 00    	imul   $0x41c4,%eax,%eax
  40189b:	89 44 24 18          	mov    %eax,0x18(%rsp)
  40189f:	8b 44 24 0c          	mov    0xc(%rsp),%eax
  4018a3:	69 c0 bc cb 00 00    	imul   $0xcbbc,%eax,%eax
  4018a9:	89 44 24 0c          	mov    %eax,0xc(%rsp)
  4018ad:	8b 44 24 0c          	mov    0xc(%rsp),%eax
  4018b1:	69 c0 17 fb 00 00    	imul   $0xfb17,%eax,%eax
  4018b7:	89 44 24 0c          	mov    %eax,0xc(%rsp)
  4018bb:	8b 44 24 14          	mov    0x14(%rsp),%eax
  4018bf:	69 c0 38 59 00 00    	imul   $0x5938,%eax,%eax
  4018c5:	89 44 24 14          	mov    %eax,0x14(%rsp)
  4018c9:	8b 44 24 1c          	mov    0x1c(%rsp),%eax
  4018cd:	69 c0 e7 62 00 00    	imul   $0x62e7,%eax,%eax
  4018d3:	89 44 24 1c          	mov    %eax,0x1c(%rsp)
  4018d7:	8b 44 24 08          	mov    0x8(%rsp),%eax
  4018db:	69 c0 88 19 00 00    	imul   $0x1988,%eax,%eax
  4018e1:	89 44 24 08          	mov    %eax,0x8(%rsp)
  4018e5:	8b 44 24 24          	mov    0x24(%rsp),%eax
  4018e9:	69 c0 e8 8b 00 00    	imul   $0x8be8,%eax,%eax
  4018ef:	89 44 24 24          	mov    %eax,0x24(%rsp)
  4018f3:	8b 44 24 04          	mov    0x4(%rsp),%eax
  4018f7:	69 c0 a2 06 00 00    	imul   $0x6a2,%eax,%eax
  4018fd:	89 44 24 04          	mov    %eax,0x4(%rsp)
  401901:	8b 04 24             	mov    (%rsp),%eax
  401904:	69 c0 47 ad 00 00    	imul   $0xad47,%eax,%eax
  40190a:	89 04 24             	mov    %eax,(%rsp)
  40190d:	8b 44 24 08          	mov    0x8(%rsp),%eax
  401911:	69 c0 28 18 00 00    	imul   $0x1828,%eax,%eax
  401917:	89 44 24 08          	mov    %eax,0x8(%rsp)
  40191b:	8b 44 24 04          	mov    0x4(%rsp),%eax
  40191f:	69 c0 f1 e9 00 00    	imul   $0xe9f1,%eax,%eax
  401925:	89 44 24 04          	mov    %eax,0x4(%rsp)
  401929:	8b 44 24 10          	mov    0x10(%rsp),%eax
  40192d:	69 c0 4a d1 00 00    	imul   $0xd14a,%eax,%eax
  401933:	89 44 24 10          	mov    %eax,0x10(%rsp)
  401937:	8b 44 24 24          	mov    0x24(%rsp),%eax
  40193b:	69 c0 69 d6 00 00    	imul   $0xd669,%eax,%eax
  401941:	89 44 24 24          	mov    %eax,0x24(%rsp)
  401945:	8b 44 24 0c          	mov    0xc(%rsp),%eax
  401949:	69 c0 46 f3 00 00    	imul   $0xf346,%eax,%eax
  40194f:	89 44 24 0c          	mov    %eax,0xc(%rsp)
  401953:	8b 44 24 08          	mov    0x8(%rsp),%eax
  401957:	69 c0 cb 18 00 00    	imul   $0x18cb,%eax,%eax
  40195d:	89 44 24 08          	mov    %eax,0x8(%rsp)
  401961:	8b 44 24 14          	mov    0x14(%rsp),%eax
  401965:	69 c0 2c fc 00 00    	imul   $0xfc2c,%eax,%eax
  40196b:	89 44 24 14          	mov    %eax,0x14(%rsp)
  40196f:	8b 44 24 18          	mov    0x18(%rsp),%eax
  401973:	69 c0 11 c3 00 00    	imul   $0xc311,%eax,%eax
  401979:	89 44 24 18          	mov    %eax,0x18(%rsp)
  40197d:	8b 44 24 10          	mov    0x10(%rsp),%eax
  401981:	69 c0 2c 7d 00 00    	imul   $0x7d2c,%eax,%eax
  401987:	89 44 24 10          	mov    %eax,0x10(%rsp)
  40198b:	8b 44 24 04          	mov    0x4(%rsp),%eax
  40198f:	69 c0 3d 93 00 00    	imul   $0x933d,%eax,%eax
  401995:	89 44 24 04          	mov    %eax,0x4(%rsp)
  401999:	8b 44 24 08          	mov    0x8(%rsp),%eax
  40199d:	69 c0 27 4c 00 00    	imul   $0x4c27,%eax,%eax
  4019a3:	89 44 24 08          	mov    %eax,0x8(%rsp)
  4019a7:	8b 44 24 1c          	mov    0x1c(%rsp),%eax
  4019ab:	69 c0 22 70 00 00    	imul   $0x7022,%eax,%eax
  4019b1:	89 44 24 1c          	mov    %eax,0x1c(%rsp)
  4019b5:	8b 44 24 04          	mov    0x4(%rsp),%eax
  4019b9:	69 c0 a5 06 00 00    	imul   $0x6a5,%eax,%eax
  4019bf:	89 44 24 04          	mov    %eax,0x4(%rsp)
  4019c3:	8b 44 24 1c          	mov    0x1c(%rsp),%eax
  4019c7:	69 c0 be c9 00 00    	imul   $0xc9be,%eax,%eax
  4019cd:	89 44 24 1c          	mov    %eax,0x1c(%rsp)
  4019d1:	8b 44 24 0c          	mov    0xc(%rsp),%eax
  4019d5:	69 c0 40 06 00 00    	imul   $0x640,%eax,%eax
  4019db:	89 44 24 0c          	mov    %eax,0xc(%rsp)
  4019df:	8b 44 24 10          	mov    0x10(%rsp),%eax
  4019e3:	69 c0 11 10 00 00    	imul   $0x1011,%eax,%eax
  4019e9:	89 44 24 10          	mov    %eax,0x10(%rsp)
  4019ed:	8b 44 24 24          	mov    0x24(%rsp),%eax
  4019f1:	69 c0 40 ae 00 00    	imul   $0xae40,%eax,%eax
  4019f7:	89 44 24 24          	mov    %eax,0x24(%rsp)
  4019fb:	8b 44 24 08          	mov    0x8(%rsp),%eax
  4019ff:	69 c0 9c 7a 00 00    	imul   $0x7a9c,%eax,%eax
  401a05:	89 44 24 08          	mov    %eax,0x8(%rsp)
  401a09:	8b 44 24 14          	mov    0x14(%rsp),%eax
  401a0d:	69 c0 05 97 00 00    	imul   $0x9705,%eax,%eax
  401a13:	89 44 24 14          	mov    %eax,0x14(%rsp)
  401a17:	8b 44 24 24          	mov    0x24(%rsp),%eax
  401a1b:	69 c0 ab d9 00 00    	imul   $0xd9ab,%eax,%eax
  401a21:	89 44 24 24          	mov    %eax,0x24(%rsp)
  401a25:	8b 44 24 1c          	mov    0x1c(%rsp),%eax
  401a29:	69 c0 4e 13 00 00    	imul   $0x134e,%eax,%eax
  401a2f:	89 44 24 1c          	mov    %eax,0x1c(%rsp)
  401a33:	8b 44 24 08          	mov    0x8(%rsp),%eax
  401a37:	69 c0 fc 3d 00 00    	imul   $0x3dfc,%eax,%eax
  401a3d:	89 44 24 08          	mov    %eax,0x8(%rsp)
  401a41:	8b 44 24 14          	mov    0x14(%rsp),%eax
  401a45:	69 c0 06 4d 00 00    	imul   $0x4d06,%eax,%eax
  401a4b:	89 44 24 14          	mov    %eax,0x14(%rsp)
  401a4f:	8b 44 24 14          	mov    0x14(%rsp),%eax
  401a53:	69 c0 62 d7 00 00    	imul   $0xd762,%eax,%eax
  401a59:	89 44 24 14          	mov    %eax,0x14(%rsp)
  401a5d:	8b 44 24 20          	mov    0x20(%rsp),%eax
  401a61:	69 c0 35 bf 00 00    	imul   $0xbf35,%eax,%eax
  401a67:	89 44 24 20          	mov    %eax,0x20(%rsp)
  401a6b:	8b 44 24 0c          	mov    0xc(%rsp),%eax
  401a6f:	69 c0 98 a0 00 00    	imul   $0xa098,%eax,%eax
  401a75:	89 44 24 0c          	mov    %eax,0xc(%rsp)
  401a79:	8b 04 24             	mov    (%rsp),%eax
  401a7c:	69 c0 c4 60 00 00    	imul   $0x60c4,%eax,%eax
  401a82:	89 04 24             	mov    %eax,(%rsp)
  401a85:	8b 44 24 14          	mov    0x14(%rsp),%eax
  401a89:	69 c0 0c 71 00 00    	imul   $0x710c,%eax,%eax
  401a8f:	89 44 24 14          	mov    %eax,0x14(%rsp)
  401a93:	8b 44 24 24          	mov    0x24(%rsp),%eax
  401a97:	69 c0 c5 0c 00 00    	imul   $0xcc5,%eax,%eax
  401a9d:	89 44 24 24          	mov    %eax,0x24(%rsp)
  401aa1:	8b 44 24 18          	mov    0x18(%rsp),%eax
  401aa5:	69 c0 b0 74 00 00    	imul   $0x74b0,%eax,%eax
  401aab:	89 44 24 18          	mov    %eax,0x18(%rsp)
  401aaf:	8b 44 24 10          	mov    0x10(%rsp),%eax
  401ab3:	69 c0 d0 b1 00 00    	imul   $0xb1d0,%eax,%eax
  401ab9:	89 44 24 10          	mov    %eax,0x10(%rsp)
  401abd:	8b 04 24             	mov    (%rsp),%eax
  401ac0:	69 c0 6e 31 00 00    	imul   $0x316e,%eax,%eax
  401ac6:	89 04 24             	mov    %eax,(%rsp)
  401ac9:	8b 04 24             	mov    (%rsp),%eax
  401acc:	69 c0 c5 7e 00 00    	imul   $0x7ec5,%eax,%eax
  401ad2:	89 04 24             	mov    %eax,(%rsp)
  401ad5:	8b 04 24             	mov    (%rsp),%eax
  401ad8:	69 c0 9a df 00 00    	imul   $0xdf9a,%eax,%eax
  401ade:	89 04 24             	mov    %eax,(%rsp)
  401ae1:	8b 44 24 18          	mov    0x18(%rsp),%eax
  401ae5:	69 c0 0f fd 00 00    	imul   $0xfd0f,%eax,%eax
  401aeb:	89 44 24 18          	mov    %eax,0x18(%rsp)
  401aef:	8b 44 24 18          	mov    0x18(%rsp),%eax
  401af3:	69 c0 16 a0 00 00    	imul   $0xa016,%eax,%eax
  401af9:	89 44 24 18          	mov    %eax,0x18(%rsp)
  401afd:	8b 44 24 10          	mov    0x10(%rsp),%eax
  401b01:	69 c0 bd ab 00 00    	imul   $0xabbd,%eax,%eax
  401b07:	89 44 24 10          	mov    %eax,0x10(%rsp)
  401b0b:	8b 44 24 24          	mov    0x24(%rsp),%eax
  401b0f:	69 c0 d8 1f 00 00    	imul   $0x1fd8,%eax,%eax
  401b15:	89 44 24 24          	mov    %eax,0x24(%rsp)
  401b19:	8b 44 24 24          	mov    0x24(%rsp),%eax
  401b1d:	69 c0 1f df 00 00    	imul   $0xdf1f,%eax,%eax
  401b23:	89 44 24 24          	mov    %eax,0x24(%rsp)
  401b27:	8b 44 24 08          	mov    0x8(%rsp),%eax
  401b2b:	69 c0 f6 c2 00 00    	imul   $0xc2f6,%eax,%eax
  401b31:	89 44 24 08          	mov    %eax,0x8(%rsp)
  401b35:	8b 44 24 10          	mov    0x10(%rsp),%eax
  401b39:	69 c0 db 61 00 00    	imul   $0x61db,%eax,%eax
  401b3f:	89 44 24 10          	mov    %eax,0x10(%rsp)
  401b43:	8b 44 24 24          	mov    0x24(%rsp),%eax
  401b47:	69 c0 b1 a9 00 00    	imul   $0xa9b1,%eax,%eax
  401b4d:	89 44 24 24          	mov    %eax,0x24(%rsp)
  401b51:	8b 44 24 20          	mov    0x20(%rsp),%eax
  401b55:	69 c0 49 74 00 00    	imul   $0x7449,%eax,%eax
  401b5b:	89 44 24 20          	mov    %eax,0x20(%rsp)
  401b5f:	8b 44 24 18          	mov    0x18(%rsp),%eax
  401b63:	69 c0 09 2a 00 00    	imul   $0x2a09,%eax,%eax
  401b69:	89 44 24 18          	mov    %eax,0x18(%rsp)
  401b6d:	8b 44 24 04          	mov    0x4(%rsp),%eax
  401b71:	69 c0 89 55 00 00    	imul   $0x5589,%eax,%eax
  401b77:	89 44 24 04          	mov    %eax,0x4(%rsp)
  401b7b:	8b 44 24 0c          	mov    0xc(%rsp),%eax
  401b7f:	69 c0 14 94 00 00    	imul   $0x9414,%eax,%eax
  401b85:	89 44 24 0c          	mov    %eax,0xc(%rsp)
  401b89:	8b 44 24 1c          	mov    0x1c(%rsp),%eax
  401b8d:	69 c0 7b 23 00 00    	imul   $0x237b,%eax,%eax
  401b93:	89 44 24 1c          	mov    %eax,0x1c(%rsp)
  401b97:	8b 44 24 08          	mov    0x8(%rsp),%eax
  401b9b:	69 c0 6a 67 00 00    	imul   $0x676a,%eax,%eax
  401ba1:	89 44 24 08          	mov    %eax,0x8(%rsp)
  401ba5:	8b 04 24             	mov    (%rsp),%eax
  401ba8:	69 c0 8d 71 00 00    	imul   $0x718d,%eax,%eax
  401bae:	89 04 24             	mov    %eax,(%rsp)
  401bb1:	8b 44 24 14          	mov    0x14(%rsp),%eax
  401bb5:	69 c0 0b b8 00 00    	imul   $0xb80b,%eax,%eax
  401bbb:	89 44 24 14          	mov    %eax,0x14(%rsp)
  401bbf:	8b 44 24 14          	mov    0x14(%rsp),%eax
  401bc3:	6b c0 4a             	imul   $0x4a,%eax,%eax
  401bc6:	89 44 24 14          	mov    %eax,0x14(%rsp)
  401bca:	8b 44 24 0c          	mov    0xc(%rsp),%eax
  401bce:	69 c0 fb 7e 00 00    	imul   $0x7efb,%eax,%eax
  401bd4:	89 44 24 0c          	mov    %eax,0xc(%rsp)
  401bd8:	8b 44 24 0c          	mov    0xc(%rsp),%eax
  401bdc:	69 c0 33 36 00 00    	imul   $0x3633,%eax,%eax
  401be2:	89 44 24 0c          	mov    %eax,0xc(%rsp)
  401be6:	8b 44 24 08          	mov    0x8(%rsp),%eax
  401bea:	69 c0 cb a4 00 00    	imul   $0xa4cb,%eax,%eax
  401bf0:	89 44 24 08          	mov    %eax,0x8(%rsp)
  401bf4:	b8 00 00 00 00       	mov    $0x0,%eax
  401bf9:	ba 00 00 00 00       	mov    $0x0,%edx
  401bfe:	eb 0a                	jmp    401c0a <scramble+0x4ce>
  401c00:	89 c1                	mov    %eax,%ecx
  401c02:	8b 0c 8c             	mov    (%rsp,%rcx,4),%ecx
  401c05:	01 ca                	add    %ecx,%edx
  401c07:	83 c0 01             	add    $0x1,%eax
  401c0a:	83 f8 09             	cmp    $0x9,%eax
  401c0d:	76 f1                	jbe    401c00 <scramble+0x4c4>
  401c0f:	48 8b 44 24 28       	mov    0x28(%rsp),%rax
  401c14:	64 48 2b 04 25 28 00 	sub    %fs:0x28,%rax
  401c1b:	00 00 
  401c1d:	75 07                	jne    401c26 <scramble+0x4ea>
  401c1f:	89 d0                	mov    %edx,%eax
  401c21:	48 83 c4 38          	add    $0x38,%rsp
  401c25:	c3                   	ret
  401c26:	e8 56 08 00 00       	call   402481 <__stack_chk_fail>

0000000000401c2b <getbuf>:
  401c2b:	f3 0f 1e fa          	endbr64
  401c2f:	48 83 ec 38          	sub    $0x38,%rsp
  401c33:	48 89 e7             	mov    %rsp,%rdi
  401c36:	e8 57 03 00 00       	call   401f92 <Gets>
  401c3b:	b8 01 00 00 00       	mov    $0x1,%eax
  401c40:	48 83 c4 38          	add    $0x38,%rsp
  401c44:	c3                   	ret

0000000000401c45 <getbuf_withcanary>:
  401c45:	55                   	push   %rbp
  401c46:	48 89 e5             	mov    %rsp,%rbp
  401c49:	48 81 ec 20 01 00 00 	sub    $0x120,%rsp
  401c50:	64 48 8b 04 25 28 00 	mov    %fs:0x28,%rax
  401c57:	00 00 
  401c59:	48 89 45 f8          	mov    %rax,-0x8(%rbp)
  401c5d:	31 c0                	xor    %eax,%eax
  401c5f:	c7 45 e4 00 00 00 00 	movl   $0x0,-0x1c(%rbp)
  401c66:	48 8d 85 60 ff ff ff 	lea    -0xa0(%rbp),%rax
  401c6d:	48 89 c7             	mov    %rax,%rdi
  401c70:	e8 1d 03 00 00       	call   401f92 <Gets>
  401c75:	8b 45 e4             	mov    -0x1c(%rbp),%eax
  401c78:	48 98                	cltq
  401c7a:	48 8d 95 e0 fe ff ff 	lea    -0x120(%rbp),%rdx
  401c81:	48 8d 0c 02          	lea    (%rdx,%rax,1),%rcx
  401c85:	48 8d 85 60 ff ff ff 	lea    -0xa0(%rbp),%rax
  401c8c:	ba 80 00 00 00       	mov    $0x80,%edx
  401c91:	48 89 c6             	mov    %rax,%rsi
  401c94:	48 89 cf             	mov    %rcx,%rdi
  401c97:	e8 a4 f4 ff ff       	call   401140 <memcpy@plt>
  401c9c:	b8 01 00 00 00       	mov    $0x1,%eax
  401ca1:	48 8b 75 f8          	mov    -0x8(%rbp),%rsi
  401ca5:	64 48 33 34 25 28 00 	xor    %fs:0x28,%rsi
  401cac:	00 00 
  401cae:	74 05                	je     401cb5 <getbuf_withcanary+0x70>
  401cb0:	e8 cc 07 00 00       	call   402481 <__stack_chk_fail>
  401cb5:	c9                   	leave
  401cb6:	c3                   	ret

0000000000401cb7 <touch1>:
  401cb7:	f3 0f 1e fa          	endbr64
  401cbb:	50                   	push   %rax
  401cbc:	58                   	pop    %rax
  401cbd:	48 83 ec 08          	sub    $0x8,%rsp
  401cc1:	c7 05 59 48 00 00 01 	movl   $0x1,0x4859(%rip)        # 406524 <vlevel>
  401cc8:	00 00 00 
  401ccb:	48 8d 3d 39 29 00 00 	lea    0x2939(%rip),%rdi        # 40460b <_IO_stdin_used+0x60b>
  401cd2:	e8 a9 f3 ff ff       	call   401080 <puts@plt>
  401cd7:	bf 01 00 00 00       	mov    $0x1,%edi
  401cdc:	e8 2e 05 00 00       	call   40220f <validate>
  401ce1:	bf 00 00 00 00       	mov    $0x0,%edi
  401ce6:	e8 f5 f4 ff ff       	call   4011e0 <exit@plt>

0000000000401ceb <touch2>:
  401ceb:	f3 0f 1e fa          	endbr64
  401cef:	50                   	push   %rax
  401cf0:	58                   	pop    %rax
  401cf1:	48 83 ec 08          	sub    $0x8,%rsp
  401cf5:	89 fa                	mov    %edi,%edx
  401cf7:	c7 05 23 48 00 00 02 	movl   $0x2,0x4823(%rip)        # 406524 <vlevel>
  401cfe:	00 00 00 
  401d01:	39 3d 25 48 00 00    	cmp    %edi,0x4825(%rip)        # 40652c <cookie>
  401d07:	74 2a                	je     401d33 <touch2+0x48>
  401d09:	48 8d 35 70 24 00 00 	lea    0x2470(%rip),%rsi        # 404180 <_IO_stdin_used+0x180>
  401d10:	bf 02 00 00 00       	mov    $0x2,%edi
  401d15:	b8 00 00 00 00       	mov    $0x0,%eax
  401d1a:	e8 71 f4 ff ff       	call   401190 <__printf_chk@plt>
  401d1f:	bf 02 00 00 00       	mov    $0x2,%edi
  401d24:	e8 c1 05 00 00       	call   4022ea <fail>
  401d29:	bf 00 00 00 00       	mov    $0x0,%edi
  401d2e:	e8 ad f4 ff ff       	call   4011e0 <exit@plt>
  401d33:	48 8d 35 1e 24 00 00 	lea    0x241e(%rip),%rsi        # 404158 <_IO_stdin_used+0x158>
  401d3a:	bf 02 00 00 00       	mov    $0x2,%edi
  401d3f:	b8 00 00 00 00       	mov    $0x0,%eax
  401d44:	e8 47 f4 ff ff       	call   401190 <__printf_chk@plt>
  401d49:	bf 02 00 00 00       	mov    $0x2,%edi
  401d4e:	e8 bc 04 00 00       	call   40220f <validate>
  401d53:	eb d4                	jmp    401d29 <touch2+0x3e>

0000000000401d55 <hexmatch>:
  401d55:	f3 0f 1e fa          	endbr64
  401d59:	41 54                	push   %r12
  401d5b:	55                   	push   %rbp
  401d5c:	53                   	push   %rbx
  401d5d:	48 83 c4 80          	add    $0xffffffffffffff80,%rsp
  401d61:	89 fd                	mov    %edi,%ebp
  401d63:	48 89 f3             	mov    %rsi,%rbx
  401d66:	64 48 8b 04 25 28 00 	mov    %fs:0x28,%rax
  401d6d:	00 00 
  401d6f:	48 89 44 24 78       	mov    %rax,0x78(%rsp)
  401d74:	31 c0                	xor    %eax,%eax
  401d76:	e8 e5 f3 ff ff       	call   401160 <random@plt>
  401d7b:	48 89 c6             	mov    %rax,%rsi
  401d7e:	48 ba 0b d7 a3 70 3d 	movabs $0xa3d70a3d70a3d70b,%rdx
  401d85:	0a d7 a3 
  401d88:	48 f7 ea             	imul   %rdx
  401d8b:	48 8d 0c 32          	lea    (%rdx,%rsi,1),%rcx
  401d8f:	48 c1 f9 06          	sar    $0x6,%rcx
  401d93:	48 89 f0             	mov    %rsi,%rax
  401d96:	48 c1 f8 3f          	sar    $0x3f,%rax
  401d9a:	48 29 c1             	sub    %rax,%rcx
  401d9d:	48 8d 04 89          	lea    (%rcx,%rcx,4),%rax
  401da1:	48 8d 04 80          	lea    (%rax,%rax,4),%rax
  401da5:	48 c1 e0 02          	shl    $0x2,%rax
  401da9:	48 29 c6             	sub    %rax,%rsi
  401dac:	4c 8d 24 34          	lea    (%rsp,%rsi,1),%r12
  401db0:	ba 6e 00 00 00       	mov    $0x6e,%edx
  401db5:	48 39 d6             	cmp    %rdx,%rsi
  401db8:	48 0f 43 d6          	cmovae %rsi,%rdx
  401dbc:	48 29 f2             	sub    %rsi,%rdx
  401dbf:	41 89 e8             	mov    %ebp,%r8d
  401dc2:	48 8d 0d 5f 28 00 00 	lea    0x285f(%rip),%rcx        # 404628 <_IO_stdin_used+0x628>
  401dc9:	be 02 00 00 00       	mov    $0x2,%esi
  401dce:	4c 89 e7             	mov    %r12,%rdi
  401dd1:	b8 00 00 00 00       	mov    $0x0,%eax
  401dd6:	e8 45 f4 ff ff       	call   401220 <__sprintf_chk@plt>
  401ddb:	ba 09 00 00 00       	mov    $0x9,%edx
  401de0:	4c 89 e6             	mov    %r12,%rsi
  401de3:	48 89 df             	mov    %rbx,%rdi
  401de6:	e8 75 f2 ff ff       	call   401060 <strncmp@plt>
  401deb:	85 c0                	test   %eax,%eax
  401ded:	0f 94 c0             	sete   %al
  401df0:	48 8b 54 24 78       	mov    0x78(%rsp),%rdx
  401df5:	64 48 2b 14 25 28 00 	sub    %fs:0x28,%rdx
  401dfc:	00 00 
  401dfe:	75 0c                	jne    401e0c <hexmatch+0xb7>
  401e00:	0f b6 c0             	movzbl %al,%eax
  401e03:	48 83 ec 80          	sub    $0xffffffffffffff80,%rsp
  401e07:	5b                   	pop    %rbx
  401e08:	5d                   	pop    %rbp
  401e09:	41 5c                	pop    %r12
  401e0b:	c3                   	ret
  401e0c:	e8 70 06 00 00       	call   402481 <__stack_chk_fail>

0000000000401e11 <touch3>:
  401e11:	f3 0f 1e fa          	endbr64
  401e15:	53                   	push   %rbx
  401e16:	48 89 fb             	mov    %rdi,%rbx
  401e19:	c7 05 01 47 00 00 03 	movl   $0x3,0x4701(%rip)        # 406524 <vlevel>
  401e20:	00 00 00 
  401e23:	48 89 fe             	mov    %rdi,%rsi
  401e26:	8b 3d 00 47 00 00    	mov    0x4700(%rip),%edi        # 40652c <cookie>
  401e2c:	e8 24 ff ff ff       	call   401d55 <hexmatch>
  401e31:	85 c0                	test   %eax,%eax
  401e33:	74 2d                	je     401e62 <touch3+0x51>
  401e35:	48 89 da             	mov    %rbx,%rdx
  401e38:	48 8d 35 69 23 00 00 	lea    0x2369(%rip),%rsi        # 4041a8 <_IO_stdin_used+0x1a8>
  401e3f:	bf 02 00 00 00       	mov    $0x2,%edi
  401e44:	b8 00 00 00 00       	mov    $0x0,%eax
  401e49:	e8 42 f3 ff ff       	call   401190 <__printf_chk@plt>
  401e4e:	bf 03 00 00 00       	mov    $0x3,%edi
  401e53:	e8 b7 03 00 00       	call   40220f <validate>
  401e58:	bf 00 00 00 00       	mov    $0x0,%edi
  401e5d:	e8 7e f3 ff ff       	call   4011e0 <exit@plt>
  401e62:	48 89 da             	mov    %rbx,%rdx
  401e65:	48 8d 35 64 23 00 00 	lea    0x2364(%rip),%rsi        # 4041d0 <_IO_stdin_used+0x1d0>
  401e6c:	bf 02 00 00 00       	mov    $0x2,%edi
  401e71:	b8 00 00 00 00       	mov    $0x0,%eax
  401e76:	e8 15 f3 ff ff       	call   401190 <__printf_chk@plt>
  401e7b:	bf 03 00 00 00       	mov    $0x3,%edi
  401e80:	e8 65 04 00 00       	call   4022ea <fail>
  401e85:	eb d1                	jmp    401e58 <touch3+0x47>

0000000000401e87 <test>:
  401e87:	f3 0f 1e fa          	endbr64
  401e8b:	48 83 ec 08          	sub    $0x8,%rsp
  401e8f:	b8 00 00 00 00       	mov    $0x0,%eax
  401e94:	e8 92 fd ff ff       	call   401c2b <getbuf>
  401e99:	89 c2                	mov    %eax,%edx
  401e9b:	48 8d 35 56 23 00 00 	lea    0x2356(%rip),%rsi        # 4041f8 <_IO_stdin_used+0x1f8>
  401ea2:	bf 02 00 00 00       	mov    $0x2,%edi
  401ea7:	b8 00 00 00 00       	mov    $0x0,%eax
  401eac:	e8 df f2 ff ff       	call   401190 <__printf_chk@plt>
  401eb1:	48 83 c4 08          	add    $0x8,%rsp
  401eb5:	c3                   	ret

0000000000401eb6 <test2>:
  401eb6:	f3 0f 1e fa          	endbr64
  401eba:	48 83 ec 08          	sub    $0x8,%rsp
  401ebe:	b8 00 00 00 00       	mov    $0x0,%eax
  401ec3:	e8 7d fd ff ff       	call   401c45 <getbuf_withcanary>
  401ec8:	89 c2                	mov    %eax,%edx
  401eca:	48 8d 35 4f 23 00 00 	lea    0x234f(%rip),%rsi        # 404220 <_IO_stdin_used+0x220>
  401ed1:	bf 02 00 00 00       	mov    $0x2,%edi
  401ed6:	b8 00 00 00 00       	mov    $0x0,%eax
  401edb:	e8 b0 f2 ff ff       	call   401190 <__printf_chk@plt>
  401ee0:	48 83 c4 08          	add    $0x8,%rsp
  401ee4:	c3                   	ret

0000000000401ee5 <save_char>:
  401ee5:	8b 05 59 52 00 00    	mov    0x5259(%rip),%eax        # 407144 <gets_cnt>
  401eeb:	3d ff 03 00 00       	cmp    $0x3ff,%eax
  401ef0:	7f 4a                	jg     401f3c <save_char+0x57>
  401ef2:	89 f9                	mov    %edi,%ecx
  401ef4:	c0 e9 04             	shr    $0x4,%cl
  401ef7:	8d 14 40             	lea    (%rax,%rax,2),%edx
  401efa:	4c 8d 05 ff 28 00 00 	lea    0x28ff(%rip),%r8        # 404800 <trans_char>
  401f01:	83 e1 0f             	and    $0xf,%ecx
  401f04:	45 0f b6 0c 08       	movzbl (%r8,%rcx,1),%r9d
  401f09:	48 8d 0d 30 46 00 00 	lea    0x4630(%rip),%rcx        # 406540 <gets_buf>
  401f10:	48 63 f2             	movslq %edx,%rsi
  401f13:	44 88 0c 31          	mov    %r9b,(%rcx,%rsi,1)
  401f17:	8d 72 01             	lea    0x1(%rdx),%esi
  401f1a:	83 e7 0f             	and    $0xf,%edi
  401f1d:	41 0f b6 3c 38       	movzbl (%r8,%rdi,1),%edi
  401f22:	48 63 f6             	movslq %esi,%rsi
  401f25:	40 88 3c 31          	mov    %dil,(%rcx,%rsi,1)
  401f29:	83 c2 02             	add    $0x2,%edx
  401f2c:	48 63 d2             	movslq %edx,%rdx
  401f2f:	c6 04 11 20          	movb   $0x20,(%rcx,%rdx,1)
  401f33:	83 c0 01             	add    $0x1,%eax
  401f36:	89 05 08 52 00 00    	mov    %eax,0x5208(%rip)        # 407144 <gets_cnt>
  401f3c:	c3                   	ret

0000000000401f3d <save_term>:
  401f3d:	8b 05 01 52 00 00    	mov    0x5201(%rip),%eax        # 407144 <gets_cnt>
  401f43:	8d 04 40             	lea    (%rax,%rax,2),%eax
  401f46:	48 98                	cltq
  401f48:	48 8d 15 f1 45 00 00 	lea    0x45f1(%rip),%rdx        # 406540 <gets_buf>
  401f4f:	c6 04 02 00          	movb   $0x0,(%rdx,%rax,1)
  401f53:	c3                   	ret

0000000000401f54 <check_fail>:
  401f54:	f3 0f 1e fa          	endbr64
  401f58:	50                   	push   %rax
  401f59:	58                   	pop    %rax
  401f5a:	48 83 ec 08          	sub    $0x8,%rsp
  401f5e:	0f be 15 e3 51 00 00 	movsbl 0x51e3(%rip),%edx        # 407148 <target_prefix>
  401f65:	4c 8d 05 d4 45 00 00 	lea    0x45d4(%rip),%r8        # 406540 <gets_buf>
  401f6c:	8b 0d ae 45 00 00    	mov    0x45ae(%rip),%ecx        # 406520 <check_level>
  401f72:	48 8d 35 b4 26 00 00 	lea    0x26b4(%rip),%rsi        # 40462d <_IO_stdin_used+0x62d>
  401f79:	bf 02 00 00 00       	mov    $0x2,%edi
  401f7e:	b8 00 00 00 00       	mov    $0x0,%eax
  401f83:	e8 08 f2 ff ff       	call   401190 <__printf_chk@plt>
  401f88:	bf 01 00 00 00       	mov    $0x1,%edi
  401f8d:	e8 4e f2 ff ff       	call   4011e0 <exit@plt>

0000000000401f92 <Gets>:
  401f92:	f3 0f 1e fa          	endbr64
  401f96:	41 54                	push   %r12
  401f98:	55                   	push   %rbp
  401f99:	53                   	push   %rbx
  401f9a:	49 89 fc             	mov    %rdi,%r12
  401f9d:	c7 05 9d 51 00 00 00 	movl   $0x0,0x519d(%rip)        # 407144 <gets_cnt>
  401fa4:	00 00 00 
  401fa7:	48 89 fb             	mov    %rdi,%rbx
  401faa:	eb 11                	jmp    401fbd <Gets+0x2b>
  401fac:	48 8d 6b 01          	lea    0x1(%rbx),%rbp
  401fb0:	88 03                	mov    %al,(%rbx)
  401fb2:	0f b6 f8             	movzbl %al,%edi
  401fb5:	e8 2b ff ff ff       	call   401ee5 <save_char>
  401fba:	48 89 eb             	mov    %rbp,%rbx
  401fbd:	48 8b 3d 54 45 00 00 	mov    0x4554(%rip),%rdi        # 406518 <infile>
  401fc4:	e8 47 f2 ff ff       	call   401210 <getc@plt>
  401fc9:	83 f8 ff             	cmp    $0xffffffff,%eax
  401fcc:	74 05                	je     401fd3 <Gets+0x41>
  401fce:	83 f8 0a             	cmp    $0xa,%eax
  401fd1:	75 d9                	jne    401fac <Gets+0x1a>
  401fd3:	c6 03 00             	movb   $0x0,(%rbx)
  401fd6:	b8 00 00 00 00       	mov    $0x0,%eax
  401fdb:	e8 5d ff ff ff       	call   401f3d <save_term>
  401fe0:	4c 89 e0             	mov    %r12,%rax
  401fe3:	5b                   	pop    %rbx
  401fe4:	5d                   	pop    %rbp
  401fe5:	41 5c                	pop    %r12
  401fe7:	c3                   	ret

0000000000401fe8 <notify_server>:
  401fe8:	f3 0f 1e fa          	endbr64
  401fec:	55                   	push   %rbp
  401fed:	53                   	push   %rbx
  401fee:	4c 8d 9c 24 00 c0 ff 	lea    -0x4000(%rsp),%r11
  401ff5:	ff 
  401ff6:	48 81 ec 00 10 00 00 	sub    $0x1000,%rsp
  401ffd:	48 83 0c 24 00       	orq    $0x0,(%rsp)
  402002:	4c 39 dc             	cmp    %r11,%rsp
  402005:	75 ef                	jne    401ff6 <notify_server+0xe>
  402007:	48 83 ec 18          	sub    $0x18,%rsp
  40200b:	64 48 8b 04 25 28 00 	mov    %fs:0x28,%rax
  402012:	00 00 
  402014:	48 89 84 24 08 40 00 	mov    %rax,0x4008(%rsp)
  40201b:	00 
  40201c:	31 c0                	xor    %eax,%eax
  40201e:	83 3d 0b 45 00 00 00 	cmpl   $0x0,0x450b(%rip)        # 406530 <is_checker>
  402025:	0f 85 c2 01 00 00    	jne    4021ed <notify_server+0x205>
  40202b:	89 fb                	mov    %edi,%ebx
  40202d:	81 3d 0d 51 00 00 9c 	cmpl   $0x1f9c,0x510d(%rip)        # 407144 <gets_cnt>
  402034:	1f 00 00 
  402037:	0f 8f bd 00 00 00    	jg     4020fa <notify_server+0x112>
  40203d:	0f be 05 04 51 00 00 	movsbl 0x5104(%rip),%eax        # 407148 <target_prefix>
  402044:	83 3d 35 44 00 00 00 	cmpl   $0x0,0x4435(%rip)        # 406480 <notify>
  40204b:	0f 84 c4 00 00 00    	je     402115 <notify_server+0x12d>
  402051:	8b 15 d1 44 00 00    	mov    0x44d1(%rip),%edx        # 406528 <authkey>
  402057:	85 db                	test   %ebx,%ebx
  402059:	0f 84 c0 00 00 00    	je     40211f <notify_server+0x137>
  40205f:	48 8d 2d dd 25 00 00 	lea    0x25dd(%rip),%rbp        # 404643 <_IO_stdin_used+0x643>
  402066:	48 89 e7             	mov    %rsp,%rdi
  402069:	48 8d 0d d0 44 00 00 	lea    0x44d0(%rip),%rcx        # 406540 <gets_buf>
  402070:	51                   	push   %rcx
  402071:	56                   	push   %rsi
  402072:	50                   	push   %rax
  402073:	52                   	push   %rdx
  402074:	49 89 e9             	mov    %rbp,%r9
  402077:	44 8b 05 b2 40 00 00 	mov    0x40b2(%rip),%r8d        # 406130 <target_id>
  40207e:	48 8d 0d c8 25 00 00 	lea    0x25c8(%rip),%rcx        # 40464d <_IO_stdin_used+0x64d>
  402085:	ba 00 20 00 00       	mov    $0x2000,%edx
  40208a:	be 02 00 00 00       	mov    $0x2,%esi
  40208f:	b8 00 00 00 00       	mov    $0x0,%eax
  402094:	e8 87 f1 ff ff       	call   401220 <__sprintf_chk@plt>
  402099:	48 83 c4 20          	add    $0x20,%rsp
  40209d:	83 3d dc 43 00 00 00 	cmpl   $0x0,0x43dc(%rip)        # 406480 <notify>
  4020a4:	0f 84 ba 00 00 00    	je     402164 <notify_server+0x17c>
  4020aa:	48 89 e1             	mov    %rsp,%rcx
  4020ad:	4c 8d 8c 24 00 20 00 	lea    0x2000(%rsp),%r9
  4020b4:	00 
  4020b5:	41 b8 00 00 00 00    	mov    $0x0,%r8d
  4020bb:	48 8b 15 86 40 00 00 	mov    0x4086(%rip),%rdx        # 406148 <lab>
  4020c2:	48 8b 35 87 40 00 00 	mov    0x4087(%rip),%rsi        # 406150 <course>
  4020c9:	48 8b 3d 70 40 00 00 	mov    0x4070(%rip),%rdi        # 406140 <user_id>
  4020d0:	e8 4e 12 00 00       	call   403323 <driver_post>
  4020d5:	85 c0                	test   %eax,%eax
  4020d7:	78 52                	js     40212b <notify_server+0x143>
  4020d9:	85 db                	test   %ebx,%ebx
  4020db:	74 76                	je     402153 <notify_server+0x16b>
  4020dd:	48 8d 3d 9c 21 00 00 	lea    0x219c(%rip),%rdi        # 404280 <_IO_stdin_used+0x280>
  4020e4:	e8 97 ef ff ff       	call   401080 <puts@plt>
  4020e9:	48 8d 3d 85 25 00 00 	lea    0x2585(%rip),%rdi        # 404675 <_IO_stdin_used+0x675>
  4020f0:	e8 8b ef ff ff       	call   401080 <puts@plt>
  4020f5:	e9 f3 00 00 00       	jmp    4021ed <notify_server+0x205>
  4020fa:	48 8d 35 4f 21 00 00 	lea    0x214f(%rip),%rsi        # 404250 <_IO_stdin_used+0x250>
  402101:	bf 02 00 00 00       	mov    $0x2,%edi
  402106:	e8 85 f0 ff ff       	call   401190 <__printf_chk@plt>
  40210b:	bf 01 00 00 00       	mov    $0x1,%edi
  402110:	e8 cb f0 ff ff       	call   4011e0 <exit@plt>
  402115:	ba ff ff ff ff       	mov    $0xffffffff,%edx
  40211a:	e9 38 ff ff ff       	jmp    402057 <notify_server+0x6f>
  40211f:	48 8d 2d 22 25 00 00 	lea    0x2522(%rip),%rbp        # 404648 <_IO_stdin_used+0x648>
  402126:	e9 3b ff ff ff       	jmp    402066 <notify_server+0x7e>
  40212b:	48 8d 94 24 00 20 00 	lea    0x2000(%rsp),%rdx
  402132:	00 
  402133:	48 8d 35 2f 25 00 00 	lea    0x252f(%rip),%rsi        # 404669 <_IO_stdin_used+0x669>
  40213a:	bf 02 00 00 00       	mov    $0x2,%edi
  40213f:	b8 00 00 00 00       	mov    $0x0,%eax
  402144:	e8 47 f0 ff ff       	call   401190 <__printf_chk@plt>
  402149:	bf 01 00 00 00       	mov    $0x1,%edi
  40214e:	e8 8d f0 ff ff       	call   4011e0 <exit@plt>
  402153:	48 8d 3d 25 25 00 00 	lea    0x2525(%rip),%rdi        # 40467f <_IO_stdin_used+0x67f>
  40215a:	e8 21 ef ff ff       	call   401080 <puts@plt>
  40215f:	e9 89 00 00 00       	jmp    4021ed <notify_server+0x205>
  402164:	48 89 ea             	mov    %rbp,%rdx
  402167:	48 8d 35 4a 21 00 00 	lea    0x214a(%rip),%rsi        # 4042b8 <_IO_stdin_used+0x2b8>
  40216e:	bf 02 00 00 00       	mov    $0x2,%edi
  402173:	b8 00 00 00 00       	mov    $0x0,%eax
  402178:	e8 13 f0 ff ff       	call   401190 <__printf_chk@plt>
  40217d:	48 8b 15 bc 3f 00 00 	mov    0x3fbc(%rip),%rdx        # 406140 <user_id>
  402184:	48 8d 35 fb 24 00 00 	lea    0x24fb(%rip),%rsi        # 404686 <_IO_stdin_used+0x686>
  40218b:	bf 02 00 00 00       	mov    $0x2,%edi
  402190:	b8 00 00 00 00       	mov    $0x0,%eax
  402195:	e8 f6 ef ff ff       	call   401190 <__printf_chk@plt>
  40219a:	48 8b 15 af 3f 00 00 	mov    0x3faf(%rip),%rdx        # 406150 <course>
  4021a1:	48 8d 35 eb 24 00 00 	lea    0x24eb(%rip),%rsi        # 404693 <_IO_stdin_used+0x693>
  4021a8:	bf 02 00 00 00       	mov    $0x2,%edi
  4021ad:	b8 00 00 00 00       	mov    $0x0,%eax
  4021b2:	e8 d9 ef ff ff       	call   401190 <__printf_chk@plt>
  4021b7:	48 8b 15 8a 3f 00 00 	mov    0x3f8a(%rip),%rdx        # 406148 <lab>
  4021be:	48 8d 35 da 24 00 00 	lea    0x24da(%rip),%rsi        # 40469f <_IO_stdin_used+0x69f>
  4021c5:	bf 02 00 00 00       	mov    $0x2,%edi
  4021ca:	b8 00 00 00 00       	mov    $0x0,%eax
  4021cf:	e8 bc ef ff ff       	call   401190 <__printf_chk@plt>
  4021d4:	48 89 e2             	mov    %rsp,%rdx
  4021d7:	48 8d 35 ca 24 00 00 	lea    0x24ca(%rip),%rsi        # 4046a8 <_IO_stdin_used+0x6a8>
  4021de:	bf 02 00 00 00       	mov    $0x2,%edi
  4021e3:	b8 00 00 00 00       	mov    $0x0,%eax
  4021e8:	e8 a3 ef ff ff       	call   401190 <__printf_chk@plt>
  4021ed:	48 8b 84 24 08 40 00 	mov    0x4008(%rsp),%rax
  4021f4:	00 
  4021f5:	64 48 2b 04 25 28 00 	sub    %fs:0x28,%rax
  4021fc:	00 00 
  4021fe:	75 0a                	jne    40220a <notify_server+0x222>
  402200:	48 81 c4 18 40 00 00 	add    $0x4018,%rsp
  402207:	5b                   	pop    %rbx
  402208:	5d                   	pop    %rbp
  402209:	c3                   	ret
  40220a:	e8 72 02 00 00       	call   402481 <__stack_chk_fail>

000000000040220f <validate>:
  40220f:	f3 0f 1e fa          	endbr64
  402213:	53                   	push   %rbx
  402214:	89 fb                	mov    %edi,%ebx
  402216:	83 3d 13 43 00 00 00 	cmpl   $0x0,0x4313(%rip)        # 406530 <is_checker>
  40221d:	74 79                	je     402298 <validate+0x89>
  40221f:	39 3d ff 42 00 00    	cmp    %edi,0x42ff(%rip)        # 406524 <vlevel>
  402225:	75 39                	jne    402260 <validate+0x51>
  402227:	8b 15 f3 42 00 00    	mov    0x42f3(%rip),%edx        # 406520 <check_level>
  40222d:	39 fa                	cmp    %edi,%edx
  40222f:	75 45                	jne    402276 <validate+0x67>
  402231:	0f be 0d 10 4f 00 00 	movsbl 0x4f10(%rip),%ecx        # 407148 <target_prefix>
  402238:	4c 8d 0d 01 43 00 00 	lea    0x4301(%rip),%r9        # 406540 <gets_buf>
  40223f:	41 89 f8             	mov    %edi,%r8d
  402242:	8b 15 e0 42 00 00    	mov    0x42e0(%rip),%edx        # 406528 <authkey>
  402248:	48 8d 35 b9 20 00 00 	lea    0x20b9(%rip),%rsi        # 404308 <_IO_stdin_used+0x308>
  40224f:	bf 02 00 00 00       	mov    $0x2,%edi
  402254:	b8 00 00 00 00       	mov    $0x0,%eax
  402259:	e8 32 ef ff ff       	call   401190 <__printf_chk@plt>
  40225e:	5b                   	pop    %rbx
  40225f:	c3                   	ret
  402260:	48 8d 3d 4d 24 00 00 	lea    0x244d(%rip),%rdi        # 4046b4 <_IO_stdin_used+0x6b4>
  402267:	e8 14 ee ff ff       	call   401080 <puts@plt>
  40226c:	b8 00 00 00 00       	mov    $0x0,%eax
  402271:	e8 de fc ff ff       	call   401f54 <check_fail>
  402276:	89 f9                	mov    %edi,%ecx
  402278:	48 8d 35 61 20 00 00 	lea    0x2061(%rip),%rsi        # 4042e0 <_IO_stdin_used+0x2e0>
  40227f:	bf 02 00 00 00       	mov    $0x2,%edi
  402284:	b8 00 00 00 00       	mov    $0x0,%eax
  402289:	e8 02 ef ff ff       	call   401190 <__printf_chk@plt>
  40228e:	b8 00 00 00 00       	mov    $0x0,%eax
  402293:	e8 bc fc ff ff       	call   401f54 <check_fail>
  402298:	39 3d 86 42 00 00    	cmp    %edi,0x4286(%rip)        # 406524 <vlevel>
  40229e:	74 1a                	je     4022ba <validate+0xab>
  4022a0:	48 8d 3d 0d 24 00 00 	lea    0x240d(%rip),%rdi        # 4046b4 <_IO_stdin_used+0x6b4>
  4022a7:	e8 d4 ed ff ff       	call   401080 <puts@plt>
  4022ac:	89 de                	mov    %ebx,%esi
  4022ae:	bf 00 00 00 00       	mov    $0x0,%edi
  4022b3:	e8 30 fd ff ff       	call   401fe8 <notify_server>
  4022b8:	eb a4                	jmp    40225e <validate+0x4f>
  4022ba:	0f be 0d 87 4e 00 00 	movsbl 0x4e87(%rip),%ecx        # 407148 <target_prefix>
  4022c1:	89 fa                	mov    %edi,%edx
  4022c3:	48 8d 35 66 20 00 00 	lea    0x2066(%rip),%rsi        # 404330 <_IO_stdin_used+0x330>
  4022ca:	bf 02 00 00 00       	mov    $0x2,%edi
  4022cf:	b8 00 00 00 00       	mov    $0x0,%eax
  4022d4:	e8 b7 ee ff ff       	call   401190 <__printf_chk@plt>
  4022d9:	89 de                	mov    %ebx,%esi
  4022db:	bf 01 00 00 00       	mov    $0x1,%edi
  4022e0:	e8 03 fd ff ff       	call   401fe8 <notify_server>
  4022e5:	e9 74 ff ff ff       	jmp    40225e <validate+0x4f>

00000000004022ea <fail>:
  4022ea:	f3 0f 1e fa          	endbr64
  4022ee:	48 83 ec 08          	sub    $0x8,%rsp
  4022f2:	83 3d 37 42 00 00 00 	cmpl   $0x0,0x4237(%rip)        # 406530 <is_checker>
  4022f9:	75 11                	jne    40230c <fail+0x22>
  4022fb:	89 fe                	mov    %edi,%esi
  4022fd:	bf 00 00 00 00       	mov    $0x0,%edi
  402302:	e8 e1 fc ff ff       	call   401fe8 <notify_server>
  402307:	48 83 c4 08          	add    $0x8,%rsp
  40230b:	c3                   	ret
  40230c:	b8 00 00 00 00       	mov    $0x0,%eax
  402311:	e8 3e fc ff ff       	call   401f54 <check_fail>

0000000000402316 <bushandler>:
  402316:	f3 0f 1e fa          	endbr64
  40231a:	50                   	push   %rax
  40231b:	58                   	pop    %rax
  40231c:	48 83 ec 08          	sub    $0x8,%rsp
  402320:	83 3d 09 42 00 00 00 	cmpl   $0x0,0x4209(%rip)        # 406530 <is_checker>
  402327:	74 16                	je     40233f <bushandler+0x29>
  402329:	48 8d 3d a2 23 00 00 	lea    0x23a2(%rip),%rdi        # 4046d2 <_IO_stdin_used+0x6d2>
  402330:	e8 4b ed ff ff       	call   401080 <puts@plt>
  402335:	b8 00 00 00 00       	mov    $0x0,%eax
  40233a:	e8 15 fc ff ff       	call   401f54 <check_fail>
  40233f:	48 8d 3d 22 20 00 00 	lea    0x2022(%rip),%rdi        # 404368 <_IO_stdin_used+0x368>
  402346:	e8 35 ed ff ff       	call   401080 <puts@plt>
  40234b:	48 8d 3d 8a 23 00 00 	lea    0x238a(%rip),%rdi        # 4046dc <_IO_stdin_used+0x6dc>
  402352:	e8 29 ed ff ff       	call   401080 <puts@plt>
  402357:	be 00 00 00 00       	mov    $0x0,%esi
  40235c:	bf 00 00 00 00       	mov    $0x0,%edi
  402361:	e8 82 fc ff ff       	call   401fe8 <notify_server>
  402366:	bf 01 00 00 00       	mov    $0x1,%edi
  40236b:	e8 70 ee ff ff       	call   4011e0 <exit@plt>

0000000000402370 <seghandler>:
  402370:	f3 0f 1e fa          	endbr64
  402374:	50                   	push   %rax
  402375:	58                   	pop    %rax
  402376:	48 83 ec 08          	sub    $0x8,%rsp
  40237a:	83 3d af 41 00 00 00 	cmpl   $0x0,0x41af(%rip)        # 406530 <is_checker>
  402381:	74 16                	je     402399 <seghandler+0x29>
  402383:	48 8d 3d 68 23 00 00 	lea    0x2368(%rip),%rdi        # 4046f2 <_IO_stdin_used+0x6f2>
  40238a:	e8 f1 ec ff ff       	call   401080 <puts@plt>
  40238f:	b8 00 00 00 00       	mov    $0x0,%eax
  402394:	e8 bb fb ff ff       	call   401f54 <check_fail>
  402399:	48 8d 3d e8 1f 00 00 	lea    0x1fe8(%rip),%rdi        # 404388 <_IO_stdin_used+0x388>
  4023a0:	e8 db ec ff ff       	call   401080 <puts@plt>
  4023a5:	48 8d 3d 30 23 00 00 	lea    0x2330(%rip),%rdi        # 4046dc <_IO_stdin_used+0x6dc>
  4023ac:	e8 cf ec ff ff       	call   401080 <puts@plt>
  4023b1:	be 00 00 00 00       	mov    $0x0,%esi
  4023b6:	bf 00 00 00 00       	mov    $0x0,%edi
  4023bb:	e8 28 fc ff ff       	call   401fe8 <notify_server>
  4023c0:	bf 01 00 00 00       	mov    $0x1,%edi
  4023c5:	e8 16 ee ff ff       	call   4011e0 <exit@plt>

00000000004023ca <illegalhandler>:
  4023ca:	f3 0f 1e fa          	endbr64
  4023ce:	50                   	push   %rax
  4023cf:	58                   	pop    %rax
  4023d0:	48 83 ec 08          	sub    $0x8,%rsp
  4023d4:	83 3d 55 41 00 00 00 	cmpl   $0x0,0x4155(%rip)        # 406530 <is_checker>
  4023db:	74 16                	je     4023f3 <illegalhandler+0x29>
  4023dd:	48 8d 3d 21 23 00 00 	lea    0x2321(%rip),%rdi        # 404705 <_IO_stdin_used+0x705>
  4023e4:	e8 97 ec ff ff       	call   401080 <puts@plt>
  4023e9:	b8 00 00 00 00       	mov    $0x0,%eax
  4023ee:	e8 61 fb ff ff       	call   401f54 <check_fail>
  4023f3:	48 8d 3d b6 1f 00 00 	lea    0x1fb6(%rip),%rdi        # 4043b0 <_IO_stdin_used+0x3b0>
  4023fa:	e8 81 ec ff ff       	call   401080 <puts@plt>
  4023ff:	48 8d 3d d6 22 00 00 	lea    0x22d6(%rip),%rdi        # 4046dc <_IO_stdin_used+0x6dc>
  402406:	e8 75 ec ff ff       	call   401080 <puts@plt>
  40240b:	be 00 00 00 00       	mov    $0x0,%esi
  402410:	bf 00 00 00 00       	mov    $0x0,%edi
  402415:	e8 ce fb ff ff       	call   401fe8 <notify_server>
  40241a:	bf 01 00 00 00       	mov    $0x1,%edi
  40241f:	e8 bc ed ff ff       	call   4011e0 <exit@plt>

0000000000402424 <sigalrmhandler>:
  402424:	f3 0f 1e fa          	endbr64
  402428:	50                   	push   %rax
  402429:	58                   	pop    %rax
  40242a:	48 83 ec 08          	sub    $0x8,%rsp
  40242e:	83 3d fb 40 00 00 00 	cmpl   $0x0,0x40fb(%rip)        # 406530 <is_checker>
  402435:	74 16                	je     40244d <sigalrmhandler+0x29>
  402437:	48 8d 3d db 22 00 00 	lea    0x22db(%rip),%rdi        # 404719 <_IO_stdin_used+0x719>
  40243e:	e8 3d ec ff ff       	call   401080 <puts@plt>
  402443:	b8 00 00 00 00       	mov    $0x0,%eax
  402448:	e8 07 fb ff ff       	call   401f54 <check_fail>
  40244d:	ba 02 00 00 00       	mov    $0x2,%edx
  402452:	48 8d 35 87 1f 00 00 	lea    0x1f87(%rip),%rsi        # 4043e0 <_IO_stdin_used+0x3e0>
  402459:	bf 02 00 00 00       	mov    $0x2,%edi
  40245e:	b8 00 00 00 00       	mov    $0x0,%eax
  402463:	e8 28 ed ff ff       	call   401190 <__printf_chk@plt>
  402468:	be 00 00 00 00       	mov    $0x0,%esi
  40246d:	bf 00 00 00 00       	mov    $0x0,%edi
  402472:	e8 71 fb ff ff       	call   401fe8 <notify_server>
  402477:	bf 01 00 00 00       	mov    $0x1,%edi
  40247c:	e8 5f ed ff ff       	call   4011e0 <exit@plt>

0000000000402481 <__stack_chk_fail>:
  402481:	f3 0f 1e fa          	endbr64
  402485:	50                   	push   %rax
  402486:	58                   	pop    %rax
  402487:	48 83 ec 08          	sub    $0x8,%rsp
  40248b:	83 3d 9e 40 00 00 00 	cmpl   $0x0,0x409e(%rip)        # 406530 <is_checker>
  402492:	74 16                	je     4024aa <__stack_chk_fail+0x29>
  402494:	48 8d 3d 86 22 00 00 	lea    0x2286(%rip),%rdi        # 404721 <_IO_stdin_used+0x721>
  40249b:	e8 e0 eb ff ff       	call   401080 <puts@plt>
  4024a0:	b8 00 00 00 00       	mov    $0x0,%eax
  4024a5:	e8 aa fa ff ff       	call   401f54 <check_fail>
  4024aa:	48 8d 3d 67 1f 00 00 	lea    0x1f67(%rip),%rdi        # 404418 <_IO_stdin_used+0x418>
  4024b1:	e8 ca eb ff ff       	call   401080 <puts@plt>
  4024b6:	48 8d 3d 1f 22 00 00 	lea    0x221f(%rip),%rdi        # 4046dc <_IO_stdin_used+0x6dc>
  4024bd:	e8 be eb ff ff       	call   401080 <puts@plt>
  4024c2:	be 00 00 00 00       	mov    $0x0,%esi
  4024c7:	bf 00 00 00 00       	mov    $0x0,%edi
  4024cc:	e8 17 fb ff ff       	call   401fe8 <notify_server>
  4024d1:	bf 01 00 00 00       	mov    $0x1,%edi
  4024d6:	e8 05 ed ff ff       	call   4011e0 <exit@plt>

00000000004024db <launch>:
  4024db:	f3 0f 1e fa          	endbr64
  4024df:	55                   	push   %rbp
  4024e0:	48 89 e5             	mov    %rsp,%rbp
  4024e3:	53                   	push   %rbx
  4024e4:	48 83 ec 18          	sub    $0x18,%rsp
  4024e8:	48 89 fa             	mov    %rdi,%rdx
  4024eb:	89 f3                	mov    %esi,%ebx
  4024ed:	64 48 8b 04 25 28 00 	mov    %fs:0x28,%rax
  4024f4:	00 00 
  4024f6:	48 89 45 e8          	mov    %rax,-0x18(%rbp)
  4024fa:	31 c0                	xor    %eax,%eax
  4024fc:	48 8d 47 17          	lea    0x17(%rdi),%rax
  402500:	48 89 c6             	mov    %rax,%rsi
  402503:	48 83 e6 f0          	and    $0xfffffffffffffff0,%rsi
  402507:	48 25 00 f0 ff ff    	and    $0xfffffffffffff000,%rax
  40250d:	48 89 e1             	mov    %rsp,%rcx
  402510:	48 29 c1             	sub    %rax,%rcx
  402513:	48 39 cc             	cmp    %rcx,%rsp
  402516:	74 12                	je     40252a <launch+0x4f>
  402518:	48 81 ec 00 10 00 00 	sub    $0x1000,%rsp
  40251f:	48 83 8c 24 f8 0f 00 	orq    $0x0,0xff8(%rsp)
  402526:	00 00 
  402528:	eb e9                	jmp    402513 <launch+0x38>
  40252a:	48 89 f0             	mov    %rsi,%rax
  40252d:	25 ff 0f 00 00       	and    $0xfff,%eax
  402532:	48 29 c4             	sub    %rax,%rsp
  402535:	48 85 c0             	test   %rax,%rax
  402538:	74 06                	je     402540 <launch+0x65>
  40253a:	48 83 4c 04 f8 00    	orq    $0x0,-0x8(%rsp,%rax,1)
  402540:	48 8d 7c 24 0f       	lea    0xf(%rsp),%rdi
  402545:	48 83 e7 f0          	and    $0xfffffffffffffff0,%rdi
  402549:	48 89 d1             	mov    %rdx,%rcx
  40254c:	be f4 00 00 00       	mov    $0xf4,%esi
  402551:	e8 7a ec ff ff       	call   4011d0 <__memset_chk@plt>
  402556:	48 8b 05 43 3f 00 00 	mov    0x3f43(%rip),%rax        # 4064a0 <stdin@GLIBC_2.2.5>
  40255d:	48 39 05 b4 3f 00 00 	cmp    %rax,0x3fb4(%rip)        # 406518 <infile>
  402564:	74 42                	je     4025a8 <launch+0xcd>
  402566:	c7 05 b4 3f 00 00 00 	movl   $0x0,0x3fb4(%rip)        # 406524 <vlevel>
  40256d:	00 00 00 
  402570:	85 db                	test   %ebx,%ebx
  402572:	75 4c                	jne    4025c0 <launch+0xe5>
  402574:	b8 00 00 00 00       	mov    $0x0,%eax
  402579:	e8 09 f9 ff ff       	call   401e87 <test>
  40257e:	83 3d ab 3f 00 00 00 	cmpl   $0x0,0x3fab(%rip)        # 406530 <is_checker>
  402585:	75 45                	jne    4025cc <launch+0xf1>
  402587:	48 8d 3d ba 21 00 00 	lea    0x21ba(%rip),%rdi        # 404748 <_IO_stdin_used+0x748>
  40258e:	e8 ed ea ff ff       	call   401080 <puts@plt>
  402593:	48 8b 45 e8          	mov    -0x18(%rbp),%rax
  402597:	64 48 2b 04 25 28 00 	sub    %fs:0x28,%rax
  40259e:	00 00 
  4025a0:	75 40                	jne    4025e2 <launch+0x107>
  4025a2:	48 8b 5d f8          	mov    -0x8(%rbp),%rbx
  4025a6:	c9                   	leave
  4025a7:	c3                   	ret
  4025a8:	48 8d 35 81 21 00 00 	lea    0x2181(%rip),%rsi        # 404730 <_IO_stdin_used+0x730>
  4025af:	bf 02 00 00 00       	mov    $0x2,%edi
  4025b4:	b8 00 00 00 00       	mov    $0x0,%eax
  4025b9:	e8 d2 eb ff ff       	call   401190 <__printf_chk@plt>
  4025be:	eb a6                	jmp    402566 <launch+0x8b>
  4025c0:	b8 00 00 00 00       	mov    $0x0,%eax
  4025c5:	e8 ec f8 ff ff       	call   401eb6 <test2>
  4025ca:	eb b2                	jmp    40257e <launch+0xa3>
  4025cc:	48 8d 3d 6a 21 00 00 	lea    0x216a(%rip),%rdi        # 40473d <_IO_stdin_used+0x73d>
  4025d3:	e8 a8 ea ff ff       	call   401080 <puts@plt>
  4025d8:	b8 00 00 00 00       	mov    $0x0,%eax
  4025dd:	e8 72 f9 ff ff       	call   401f54 <check_fail>
  4025e2:	e8 9a fe ff ff       	call   402481 <__stack_chk_fail>

00000000004025e7 <stable_launch>:
  4025e7:	f3 0f 1e fa          	endbr64
  4025eb:	55                   	push   %rbp
  4025ec:	53                   	push   %rbx
  4025ed:	48 83 ec 08          	sub    $0x8,%rsp
  4025f1:	89 f5                	mov    %esi,%ebp
  4025f3:	48 89 3d 16 3f 00 00 	mov    %rdi,0x3f16(%rip)        # 406510 <global_offset>
  4025fa:	41 b9 00 00 00 00    	mov    $0x0,%r9d
  402600:	41 b8 00 00 00 00    	mov    $0x0,%r8d
  402606:	b9 32 01 00 00       	mov    $0x132,%ecx
  40260b:	ba 07 00 00 00       	mov    $0x7,%edx
  402610:	be 00 00 10 00       	mov    $0x100000,%esi
  402615:	bf 00 60 58 55       	mov    $0x55586000,%edi
  40261a:	e8 91 ea ff ff       	call   4010b0 <mmap@plt>
  40261f:	48 89 c3             	mov    %rax,%rbx
  402622:	48 3d 00 60 58 55    	cmp    $0x55586000,%rax
  402628:	75 4a                	jne    402674 <stable_launch+0x8d>
  40262a:	48 8d 90 f8 ff 0f 00 	lea    0xffff8(%rax),%rdx
  402631:	48 89 15 d0 3e 00 00 	mov    %rdx,0x3ed0(%rip)        # 406508 <stack_top>
  402638:	48 89 e0             	mov    %rsp,%rax
  40263b:	48 89 d4             	mov    %rdx,%rsp
  40263e:	48 89 c2             	mov    %rax,%rdx
  402641:	48 89 15 b8 3e 00 00 	mov    %rdx,0x3eb8(%rip)        # 406500 <global_save_stack>
  402648:	89 ee                	mov    %ebp,%esi
  40264a:	48 8b 3d bf 3e 00 00 	mov    0x3ebf(%rip),%rdi        # 406510 <global_offset>
  402651:	e8 85 fe ff ff       	call   4024db <launch>
  402656:	48 8b 05 a3 3e 00 00 	mov    0x3ea3(%rip),%rax        # 406500 <global_save_stack>
  40265d:	48 89 c4             	mov    %rax,%rsp
  402660:	be 00 00 10 00       	mov    $0x100000,%esi
  402665:	48 89 df             	mov    %rbx,%rdi
  402668:	e8 13 eb ff ff       	call   401180 <munmap@plt>
  40266d:	48 83 c4 08          	add    $0x8,%rsp
  402671:	5b                   	pop    %rbx
  402672:	5d                   	pop    %rbp
  402673:	c3                   	ret
  402674:	be 00 00 10 00       	mov    $0x100000,%esi
  402679:	48 89 c7             	mov    %rax,%rdi
  40267c:	e8 ff ea ff ff       	call   401180 <munmap@plt>
  402681:	b9 00 60 58 55       	mov    $0x55586000,%ecx
  402686:	48 8d 15 b3 1d 00 00 	lea    0x1db3(%rip),%rdx        # 404440 <_IO_stdin_used+0x440>
  40268d:	be 02 00 00 00       	mov    $0x2,%esi
  402692:	48 8b 3d 47 3e 00 00 	mov    0x3e47(%rip),%rdi        # 4064e0 <stderr@GLIBC_2.2.5>
  402699:	b8 00 00 00 00       	mov    $0x0,%eax
  40269e:	e8 5d eb ff ff       	call   401200 <__fprintf_chk@plt>
  4026a3:	bf 01 00 00 00       	mov    $0x1,%edi
  4026a8:	e8 33 eb ff ff       	call   4011e0 <exit@plt>

00000000004026ad <rio_readinitb>:
  4026ad:	89 37                	mov    %esi,(%rdi)
  4026af:	c7 47 04 00 00 00 00 	movl   $0x0,0x4(%rdi)
  4026b6:	48 8d 47 10          	lea    0x10(%rdi),%rax
  4026ba:	48 89 47 08          	mov    %rax,0x8(%rdi)
  4026be:	c3                   	ret

00000000004026bf <sigalrm_handler>:
  4026bf:	f3 0f 1e fa          	endbr64
  4026c3:	50                   	push   %rax
  4026c4:	58                   	pop    %rax
  4026c5:	48 83 ec 08          	sub    $0x8,%rsp
  4026c9:	b9 00 00 00 00       	mov    $0x0,%ecx
  4026ce:	48 8d 15 93 1d 00 00 	lea    0x1d93(%rip),%rdx        # 404468 <_IO_stdin_used+0x468>
  4026d5:	be 02 00 00 00       	mov    $0x2,%esi
  4026da:	48 8b 3d ff 3d 00 00 	mov    0x3dff(%rip),%rdi        # 4064e0 <stderr@GLIBC_2.2.5>
  4026e1:	b8 00 00 00 00       	mov    $0x0,%eax
  4026e6:	e8 15 eb ff ff       	call   401200 <__fprintf_chk@plt>
  4026eb:	bf 01 00 00 00       	mov    $0x1,%edi
  4026f0:	e8 eb ea ff ff       	call   4011e0 <exit@plt>

00000000004026f5 <rio_writen>:
  4026f5:	41 55                	push   %r13
  4026f7:	41 54                	push   %r12
  4026f9:	55                   	push   %rbp
  4026fa:	53                   	push   %rbx
  4026fb:	48 83 ec 08          	sub    $0x8,%rsp
  4026ff:	41 89 fc             	mov    %edi,%r12d
  402702:	48 89 f5             	mov    %rsi,%rbp
  402705:	49 89 d5             	mov    %rdx,%r13
  402708:	48 89 d3             	mov    %rdx,%rbx
  40270b:	eb 06                	jmp    402713 <rio_writen+0x1e>
  40270d:	48 29 c3             	sub    %rax,%rbx
  402710:	48 01 c5             	add    %rax,%rbp
  402713:	48 85 db             	test   %rbx,%rbx
  402716:	74 24                	je     40273c <rio_writen+0x47>
  402718:	48 89 da             	mov    %rbx,%rdx
  40271b:	48 89 ee             	mov    %rbp,%rsi
  40271e:	44 89 e7             	mov    %r12d,%edi
  402721:	e8 6a e9 ff ff       	call   401090 <write@plt>
  402726:	48 85 c0             	test   %rax,%rax
  402729:	7f e2                	jg     40270d <rio_writen+0x18>
  40272b:	e8 00 e9 ff ff       	call   401030 <__errno_location@plt>
  402730:	83 38 04             	cmpl   $0x4,(%rax)
  402733:	75 15                	jne    40274a <rio_writen+0x55>
  402735:	b8 00 00 00 00       	mov    $0x0,%eax
  40273a:	eb d1                	jmp    40270d <rio_writen+0x18>
  40273c:	4c 89 e8             	mov    %r13,%rax
  40273f:	48 83 c4 08          	add    $0x8,%rsp
  402743:	5b                   	pop    %rbx
  402744:	5d                   	pop    %rbp
  402745:	41 5c                	pop    %r12
  402747:	41 5d                	pop    %r13
  402749:	c3                   	ret
  40274a:	48 c7 c0 ff ff ff ff 	mov    $0xffffffffffffffff,%rax
  402751:	eb ec                	jmp    40273f <rio_writen+0x4a>

0000000000402753 <rio_read>:
  402753:	41 55                	push   %r13
  402755:	41 54                	push   %r12
  402757:	55                   	push   %rbp
  402758:	53                   	push   %rbx
  402759:	48 83 ec 08          	sub    $0x8,%rsp
  40275d:	48 89 fb             	mov    %rdi,%rbx
  402760:	49 89 f5             	mov    %rsi,%r13
  402763:	49 89 d4             	mov    %rdx,%r12
  402766:	eb 0a                	jmp    402772 <rio_read+0x1f>
  402768:	e8 c3 e8 ff ff       	call   401030 <__errno_location@plt>
  40276d:	83 38 04             	cmpl   $0x4,(%rax)
  402770:	75 5f                	jne    4027d1 <rio_read+0x7e>
  402772:	8b 6b 04             	mov    0x4(%rbx),%ebp
  402775:	85 ed                	test   %ebp,%ebp
  402777:	7f 22                	jg     40279b <rio_read+0x48>
  402779:	48 8d 6b 10          	lea    0x10(%rbx),%rbp
  40277d:	8b 3b                	mov    (%rbx),%edi
  40277f:	ba 00 20 00 00       	mov    $0x2000,%edx
  402784:	48 89 ee             	mov    %rbp,%rsi
  402787:	e8 54 e9 ff ff       	call   4010e0 <read@plt>
  40278c:	89 43 04             	mov    %eax,0x4(%rbx)
  40278f:	85 c0                	test   %eax,%eax
  402791:	78 d5                	js     402768 <rio_read+0x15>
  402793:	74 45                	je     4027da <rio_read+0x87>
  402795:	48 89 6b 08          	mov    %rbp,0x8(%rbx)
  402799:	eb d7                	jmp    402772 <rio_read+0x1f>
  40279b:	89 e8                	mov    %ebp,%eax
  40279d:	4c 39 e0             	cmp    %r12,%rax
  4027a0:	72 03                	jb     4027a5 <rio_read+0x52>
  4027a2:	44 89 e5             	mov    %r12d,%ebp
  4027a5:	4c 63 e5             	movslq %ebp,%r12
  4027a8:	48 8b 73 08          	mov    0x8(%rbx),%rsi
  4027ac:	4c 89 e2             	mov    %r12,%rdx
  4027af:	4c 89 ef             	mov    %r13,%rdi
  4027b2:	e8 89 e9 ff ff       	call   401140 <memcpy@plt>
  4027b7:	4c 01 63 08          	add    %r12,0x8(%rbx)
  4027bb:	8b 43 04             	mov    0x4(%rbx),%eax
  4027be:	29 e8                	sub    %ebp,%eax
  4027c0:	89 43 04             	mov    %eax,0x4(%rbx)
  4027c3:	4c 89 e0             	mov    %r12,%rax
  4027c6:	48 83 c4 08          	add    $0x8,%rsp
  4027ca:	5b                   	pop    %rbx
  4027cb:	5d                   	pop    %rbp
  4027cc:	41 5c                	pop    %r12
  4027ce:	41 5d                	pop    %r13
  4027d0:	c3                   	ret
  4027d1:	48 c7 c0 ff ff ff ff 	mov    $0xffffffffffffffff,%rax
  4027d8:	eb ec                	jmp    4027c6 <rio_read+0x73>
  4027da:	b8 00 00 00 00       	mov    $0x0,%eax
  4027df:	eb e5                	jmp    4027c6 <rio_read+0x73>

00000000004027e1 <rio_readlineb>:
  4027e1:	41 55                	push   %r13
  4027e3:	41 54                	push   %r12
  4027e5:	55                   	push   %rbp
  4027e6:	53                   	push   %rbx
  4027e7:	48 83 ec 18          	sub    $0x18,%rsp
  4027eb:	49 89 fd             	mov    %rdi,%r13
  4027ee:	48 89 f5             	mov    %rsi,%rbp
  4027f1:	49 89 d4             	mov    %rdx,%r12
  4027f4:	64 48 8b 04 25 28 00 	mov    %fs:0x28,%rax
  4027fb:	00 00 
  4027fd:	48 89 44 24 08       	mov    %rax,0x8(%rsp)
  402802:	31 c0                	xor    %eax,%eax
  402804:	bb 01 00 00 00       	mov    $0x1,%ebx
  402809:	eb 18                	jmp    402823 <rio_readlineb+0x42>
  40280b:	85 c0                	test   %eax,%eax
  40280d:	75 65                	jne    402874 <rio_readlineb+0x93>
  40280f:	48 83 fb 01          	cmp    $0x1,%rbx
  402813:	75 3d                	jne    402852 <rio_readlineb+0x71>
  402815:	b8 00 00 00 00       	mov    $0x0,%eax
  40281a:	eb 3d                	jmp    402859 <rio_readlineb+0x78>
  40281c:	48 83 c3 01          	add    $0x1,%rbx
  402820:	48 89 d5             	mov    %rdx,%rbp
  402823:	4c 39 e3             	cmp    %r12,%rbx
  402826:	73 2a                	jae    402852 <rio_readlineb+0x71>
  402828:	48 8d 74 24 07       	lea    0x7(%rsp),%rsi
  40282d:	ba 01 00 00 00       	mov    $0x1,%edx
  402832:	4c 89 ef             	mov    %r13,%rdi
  402835:	e8 19 ff ff ff       	call   402753 <rio_read>
  40283a:	83 f8 01             	cmp    $0x1,%eax
  40283d:	75 cc                	jne    40280b <rio_readlineb+0x2a>
  40283f:	48 8d 55 01          	lea    0x1(%rbp),%rdx
  402843:	0f b6 44 24 07       	movzbl 0x7(%rsp),%eax
  402848:	88 45 00             	mov    %al,0x0(%rbp)
  40284b:	3c 0a                	cmp    $0xa,%al
  40284d:	75 cd                	jne    40281c <rio_readlineb+0x3b>
  40284f:	48 89 d5             	mov    %rdx,%rbp
  402852:	c6 45 00 00          	movb   $0x0,0x0(%rbp)
  402856:	48 89 d8             	mov    %rbx,%rax
  402859:	48 8b 54 24 08       	mov    0x8(%rsp),%rdx
  40285e:	64 48 2b 14 25 28 00 	sub    %fs:0x28,%rdx
  402865:	00 00 
  402867:	75 14                	jne    40287d <rio_readlineb+0x9c>
  402869:	48 83 c4 18          	add    $0x18,%rsp
  40286d:	5b                   	pop    %rbx
  40286e:	5d                   	pop    %rbp
  40286f:	41 5c                	pop    %r12
  402871:	41 5d                	pop    %r13
  402873:	c3                   	ret
  402874:	48 c7 c0 ff ff ff ff 	mov    $0xffffffffffffffff,%rax
  40287b:	eb dc                	jmp    402859 <rio_readlineb+0x78>
  40287d:	e8 ff fb ff ff       	call   402481 <__stack_chk_fail>

0000000000402882 <urlencode>:
  402882:	41 54                	push   %r12
  402884:	55                   	push   %rbp
  402885:	53                   	push   %rbx
  402886:	48 83 ec 10          	sub    $0x10,%rsp
  40288a:	48 89 fb             	mov    %rdi,%rbx
  40288d:	48 89 f5             	mov    %rsi,%rbp
  402890:	64 48 8b 04 25 28 00 	mov    %fs:0x28,%rax
  402897:	00 00 
  402899:	48 89 44 24 08       	mov    %rax,0x8(%rsp)
  40289e:	31 c0                	xor    %eax,%eax
  4028a0:	e8 fb e7 ff ff       	call   4010a0 <strlen@plt>
  4028a5:	eb 0f                	jmp    4028b6 <urlencode+0x34>
  4028a7:	44 88 45 00          	mov    %r8b,0x0(%rbp)
  4028ab:	48 8d 6d 01          	lea    0x1(%rbp),%rbp
  4028af:	48 83 c3 01          	add    $0x1,%rbx
  4028b3:	44 89 e0             	mov    %r12d,%eax
  4028b6:	44 8d 60 ff          	lea    -0x1(%rax),%r12d
  4028ba:	85 c0                	test   %eax,%eax
  4028bc:	0f 84 a8 00 00 00    	je     40296a <urlencode+0xe8>
  4028c2:	44 0f b6 03          	movzbl (%rbx),%r8d
  4028c6:	41 80 f8 2a          	cmp    $0x2a,%r8b
  4028ca:	0f 94 c0             	sete   %al
  4028cd:	41 80 f8 2d          	cmp    $0x2d,%r8b
  4028d1:	0f 94 c2             	sete   %dl
  4028d4:	08 d0                	or     %dl,%al
  4028d6:	75 cf                	jne    4028a7 <urlencode+0x25>
  4028d8:	41 80 f8 2e          	cmp    $0x2e,%r8b
  4028dc:	74 c9                	je     4028a7 <urlencode+0x25>
  4028de:	41 80 f8 5f          	cmp    $0x5f,%r8b
  4028e2:	74 c3                	je     4028a7 <urlencode+0x25>
  4028e4:	41 8d 40 d0          	lea    -0x30(%r8),%eax
  4028e8:	3c 09                	cmp    $0x9,%al
  4028ea:	76 bb                	jbe    4028a7 <urlencode+0x25>
  4028ec:	41 8d 40 bf          	lea    -0x41(%r8),%eax
  4028f0:	3c 19                	cmp    $0x19,%al
  4028f2:	76 b3                	jbe    4028a7 <urlencode+0x25>
  4028f4:	41 8d 40 9f          	lea    -0x61(%r8),%eax
  4028f8:	3c 19                	cmp    $0x19,%al
  4028fa:	76 ab                	jbe    4028a7 <urlencode+0x25>
  4028fc:	41 80 f8 20          	cmp    $0x20,%r8b
  402900:	74 56                	je     402958 <urlencode+0xd6>
  402902:	41 8d 40 e0          	lea    -0x20(%r8),%eax
  402906:	3c 5f                	cmp    $0x5f,%al
  402908:	0f 96 c0             	setbe  %al
  40290b:	41 80 f8 09          	cmp    $0x9,%r8b
  40290f:	0f 94 c2             	sete   %dl
  402912:	08 d0                	or     %dl,%al
  402914:	74 4f                	je     402965 <urlencode+0xe3>
  402916:	48 89 e7             	mov    %rsp,%rdi
  402919:	45 0f b6 c0          	movzbl %r8b,%r8d
  40291d:	48 8d 0d 32 1e 00 00 	lea    0x1e32(%rip),%rcx        # 404756 <_IO_stdin_used+0x756>
  402924:	ba 08 00 00 00       	mov    $0x8,%edx
  402929:	be 02 00 00 00       	mov    $0x2,%esi
  40292e:	b8 00 00 00 00       	mov    $0x0,%eax
  402933:	e8 e8 e8 ff ff       	call   401220 <__sprintf_chk@plt>
  402938:	0f b6 04 24          	movzbl (%rsp),%eax
  40293c:	88 45 00             	mov    %al,0x0(%rbp)
  40293f:	0f b6 44 24 01       	movzbl 0x1(%rsp),%eax
  402944:	88 45 01             	mov    %al,0x1(%rbp)
  402947:	0f b6 44 24 02       	movzbl 0x2(%rsp),%eax
  40294c:	88 45 02             	mov    %al,0x2(%rbp)
  40294f:	48 8d 6d 03          	lea    0x3(%rbp),%rbp
  402953:	e9 57 ff ff ff       	jmp    4028af <urlencode+0x2d>
  402958:	c6 45 00 2b          	movb   $0x2b,0x0(%rbp)
  40295c:	48 8d 6d 01          	lea    0x1(%rbp),%rbp
  402960:	e9 4a ff ff ff       	jmp    4028af <urlencode+0x2d>
  402965:	b8 ff ff ff ff       	mov    $0xffffffff,%eax
  40296a:	48 8b 54 24 08       	mov    0x8(%rsp),%rdx
  40296f:	64 48 2b 14 25 28 00 	sub    %fs:0x28,%rdx
  402976:	00 00 
  402978:	75 09                	jne    402983 <urlencode+0x101>
  40297a:	48 83 c4 10          	add    $0x10,%rsp
  40297e:	5b                   	pop    %rbx
  40297f:	5d                   	pop    %rbp
  402980:	41 5c                	pop    %r12
  402982:	c3                   	ret
  402983:	e8 f9 fa ff ff       	call   402481 <__stack_chk_fail>

0000000000402988 <submitr>:
  402988:	f3 0f 1e fa          	endbr64
  40298c:	41 57                	push   %r15
  40298e:	41 56                	push   %r14
  402990:	41 55                	push   %r13
  402992:	41 54                	push   %r12
  402994:	55                   	push   %rbp
  402995:	53                   	push   %rbx
  402996:	4c 8d 9c 24 00 60 ff 	lea    -0xa000(%rsp),%r11
  40299d:	ff 
  40299e:	48 81 ec 00 10 00 00 	sub    $0x1000,%rsp
  4029a5:	48 83 0c 24 00       	orq    $0x0,(%rsp)
  4029aa:	4c 39 dc             	cmp    %r11,%rsp
  4029ad:	75 ef                	jne    40299e <submitr+0x16>
  4029af:	48 83 ec 68          	sub    $0x68,%rsp
  4029b3:	49 89 fd             	mov    %rdi,%r13
  4029b6:	41 89 f6             	mov    %esi,%r14d
  4029b9:	48 89 54 24 10       	mov    %rdx,0x10(%rsp)
  4029be:	49 89 cc             	mov    %rcx,%r12
  4029c1:	4c 89 44 24 18       	mov    %r8,0x18(%rsp)
  4029c6:	4c 89 4c 24 08       	mov    %r9,0x8(%rsp)
  4029cb:	4c 8b bc 24 a0 a0 00 	mov    0xa0a0(%rsp),%r15
  4029d2:	00 
  4029d3:	64 48 8b 04 25 28 00 	mov    %fs:0x28,%rax
  4029da:	00 00 
  4029dc:	48 89 84 24 58 a0 00 	mov    %rax,0xa058(%rsp)
  4029e3:	00 
  4029e4:	31 c0                	xor    %eax,%eax
  4029e6:	c7 44 24 2c 00 00 00 	movl   $0x0,0x2c(%rsp)
  4029ed:	00 
  4029ee:	ba 00 00 00 00       	mov    $0x0,%edx
  4029f3:	be 01 00 00 00       	mov    $0x1,%esi
  4029f8:	bf 02 00 00 00       	mov    $0x2,%edi
  4029fd:	e8 2e e8 ff ff       	call   401230 <socket@plt>
  402a02:	85 c0                	test   %eax,%eax
  402a04:	0f 88 72 02 00 00    	js     402c7c <submitr+0x2f4>
  402a0a:	89 c3                	mov    %eax,%ebx
  402a0c:	4c 89 ef             	mov    %r13,%rdi
  402a0f:	e8 fc e6 ff ff       	call   401110 <gethostbyname@plt>
  402a14:	48 85 c0             	test   %rax,%rax
  402a17:	0f 84 ab 02 00 00    	je     402cc8 <submitr+0x340>
  402a1d:	48 8d 6c 24 30       	lea    0x30(%rsp),%rbp
  402a22:	66 0f ef c0          	pxor   %xmm0,%xmm0
  402a26:	0f 29 44 24 30       	movaps %xmm0,0x30(%rsp)
  402a2b:	66 c7 44 24 30 02 00 	movw   $0x2,0x30(%rsp)
  402a32:	48 63 50 14          	movslq 0x14(%rax),%rdx
  402a36:	48 8b 40 18          	mov    0x18(%rax),%rax
  402a3a:	48 8b 30             	mov    (%rax),%rsi
  402a3d:	48 8d 7c 24 34       	lea    0x34(%rsp),%rdi
  402a42:	b9 0c 00 00 00       	mov    $0xc,%ecx
  402a47:	e8 d4 e6 ff ff       	call   401120 <__memmove_chk@plt>
  402a4c:	66 41 c1 c6 08       	rol    $0x8,%r14w
  402a51:	66 44 89 74 24 32    	mov    %r14w,0x32(%rsp)
  402a57:	ba 10 00 00 00       	mov    $0x10,%edx
  402a5c:	48 89 ee             	mov    %rbp,%rsi
  402a5f:	89 df                	mov    %ebx,%edi
  402a61:	e8 8a e7 ff ff       	call   4011f0 <connect@plt>
  402a66:	85 c0                	test   %eax,%eax
  402a68:	0f 88 cc 02 00 00    	js     402d3a <submitr+0x3b2>
  402a6e:	48 8b 7c 24 08       	mov    0x8(%rsp),%rdi
  402a73:	e8 28 e6 ff ff       	call   4010a0 <strlen@plt>
  402a78:	49 89 c6             	mov    %rax,%r14
  402a7b:	48 8b 7c 24 10       	mov    0x10(%rsp),%rdi
  402a80:	e8 1b e6 ff ff       	call   4010a0 <strlen@plt>
  402a85:	48 89 c5             	mov    %rax,%rbp
  402a88:	4c 89 e7             	mov    %r12,%rdi
  402a8b:	e8 10 e6 ff ff       	call   4010a0 <strlen@plt>
  402a90:	48 01 c5             	add    %rax,%rbp
  402a93:	48 8b 7c 24 18       	mov    0x18(%rsp),%rdi
  402a98:	e8 03 e6 ff ff       	call   4010a0 <strlen@plt>
  402a9d:	48 01 c5             	add    %rax,%rbp
  402aa0:	4b 8d 04 76          	lea    (%r14,%r14,2),%rax
  402aa4:	48 8d 84 05 80 00 00 	lea    0x80(%rbp,%rax,1),%rax
  402aab:	00 
  402aac:	48 3d 00 20 00 00    	cmp    $0x2000,%rax
  402ab2:	0f 87 e6 02 00 00    	ja     402d9e <submitr+0x416>
  402ab8:	48 8d b4 24 50 40 00 	lea    0x4050(%rsp),%rsi
  402abf:	00 
  402ac0:	b9 00 04 00 00       	mov    $0x400,%ecx
  402ac5:	b8 00 00 00 00       	mov    $0x0,%eax
  402aca:	48 89 f7             	mov    %rsi,%rdi
  402acd:	f3 48 ab             	rep stos %rax,%es:(%rdi)
  402ad0:	48 8b 7c 24 08       	mov    0x8(%rsp),%rdi
  402ad5:	e8 a8 fd ff ff       	call   402882 <urlencode>
  402ada:	85 c0                	test   %eax,%eax
  402adc:	0f 88 2e 03 00 00    	js     402e10 <submitr+0x488>
  402ae2:	48 8d ac 24 50 20 00 	lea    0x2050(%rsp),%rbp
  402ae9:	00 
  402aea:	48 83 ec 08          	sub    $0x8,%rsp
  402aee:	41 55                	push   %r13
  402af0:	48 8d 84 24 60 40 00 	lea    0x4060(%rsp),%rax
  402af7:	00 
  402af8:	50                   	push   %rax
  402af9:	41 54                	push   %r12
  402afb:	4c 8b 4c 24 38       	mov    0x38(%rsp),%r9
  402b00:	4c 8b 44 24 30       	mov    0x30(%rsp),%r8
  402b05:	48 8d 0d 84 19 00 00 	lea    0x1984(%rip),%rcx        # 404490 <_IO_stdin_used+0x490>
  402b0c:	ba 00 20 00 00       	mov    $0x2000,%edx
  402b11:	be 02 00 00 00       	mov    $0x2,%esi
  402b16:	48 89 ef             	mov    %rbp,%rdi
  402b19:	b8 00 00 00 00       	mov    $0x0,%eax
  402b1e:	e8 fd e6 ff ff       	call   401220 <__sprintf_chk@plt>
  402b23:	48 83 c4 20          	add    $0x20,%rsp
  402b27:	48 89 ef             	mov    %rbp,%rdi
  402b2a:	e8 71 e5 ff ff       	call   4010a0 <strlen@plt>
  402b2f:	48 89 c2             	mov    %rax,%rdx
  402b32:	48 89 ee             	mov    %rbp,%rsi
  402b35:	89 df                	mov    %ebx,%edi
  402b37:	e8 b9 fb ff ff       	call   4026f5 <rio_writen>
  402b3c:	48 85 c0             	test   %rax,%rax
  402b3f:	0f 88 53 03 00 00    	js     402e98 <submitr+0x510>
  402b45:	48 8d 6c 24 40       	lea    0x40(%rsp),%rbp
  402b4a:	89 de                	mov    %ebx,%esi
  402b4c:	48 89 ef             	mov    %rbp,%rdi
  402b4f:	e8 59 fb ff ff       	call   4026ad <rio_readinitb>
  402b54:	48 8d b4 24 50 20 00 	lea    0x2050(%rsp),%rsi
  402b5b:	00 
  402b5c:	ba 00 20 00 00       	mov    $0x2000,%edx
  402b61:	48 89 ef             	mov    %rbp,%rdi
  402b64:	e8 78 fc ff ff       	call   4027e1 <rio_readlineb>
  402b69:	48 85 c0             	test   %rax,%rax
  402b6c:	0f 8e 92 03 00 00    	jle    402f04 <submitr+0x57c>
  402b72:	48 8d 4c 24 2c       	lea    0x2c(%rsp),%rcx
  402b77:	48 8d 94 24 50 60 00 	lea    0x6050(%rsp),%rdx
  402b7e:	00 
  402b7f:	48 8d bc 24 50 20 00 	lea    0x2050(%rsp),%rdi
  402b86:	00 
  402b87:	4c 8d 84 24 50 80 00 	lea    0x8050(%rsp),%r8
  402b8e:	00 
  402b8f:	48 8d 35 c7 1b 00 00 	lea    0x1bc7(%rip),%rsi        # 40475d <_IO_stdin_used+0x75d>
  402b96:	b8 00 00 00 00       	mov    $0x0,%eax
  402b9b:	e8 d0 e5 ff ff       	call   401170 <__isoc99_sscanf@plt>
  402ba0:	48 8d bc 24 50 20 00 	lea    0x2050(%rsp),%rdi
  402ba7:	00 
  402ba8:	48 8d 35 c5 1b 00 00 	lea    0x1bc5(%rip),%rsi        # 404774 <_IO_stdin_used+0x774>
  402baf:	e8 3c e5 ff ff       	call   4010f0 <strcmp@plt>
  402bb4:	85 c0                	test   %eax,%eax
  402bb6:	0f 84 c8 03 00 00    	je     402f84 <submitr+0x5fc>
  402bbc:	48 8d b4 24 50 20 00 	lea    0x2050(%rsp),%rsi
  402bc3:	00 
  402bc4:	48 8d 7c 24 40       	lea    0x40(%rsp),%rdi
  402bc9:	ba 00 20 00 00       	mov    $0x2000,%edx
  402bce:	e8 0e fc ff ff       	call   4027e1 <rio_readlineb>
  402bd3:	48 85 c0             	test   %rax,%rax
  402bd6:	7f c8                	jg     402ba0 <submitr+0x218>
  402bd8:	48 b8 45 72 72 6f 72 	movabs $0x43203a726f727245,%rax
  402bdf:	3a 20 43 
  402be2:	48 ba 6c 69 65 6e 74 	movabs $0x6e7520746e65696c,%rdx
  402be9:	20 75 6e 
  402bec:	49 89 07             	mov    %rax,(%r15)
  402bef:	49 89 57 08          	mov    %rdx,0x8(%r15)
  402bf3:	48 b8 61 62 6c 65 20 	movabs $0x206f7420656c6261,%rax
  402bfa:	74 6f 20 
  402bfd:	48 ba 72 65 61 64 20 	movabs $0x6165682064616572,%rdx
  402c04:	68 65 61 
  402c07:	49 89 47 10          	mov    %rax,0x10(%r15)
  402c0b:	49 89 57 18          	mov    %rdx,0x18(%r15)
  402c0f:	48 b8 64 65 72 73 20 	movabs $0x6f72662073726564,%rax
  402c16:	66 72 6f 
  402c19:	48 ba 6d 20 41 75 74 	movabs $0x616c6f747541206d,%rdx
  402c20:	6f 6c 61 
  402c23:	49 89 47 20          	mov    %rax,0x20(%r15)
  402c27:	49 89 57 28          	mov    %rdx,0x28(%r15)
  402c2b:	48 b8 20 41 75 74 6f 	movabs $0x62616c6f74754120,%rax
  402c32:	6c 61 62 
  402c35:	48 ba 20 73 65 72 76 	movabs $0x72657672657320,%rdx
  402c3c:	65 72 00 
  402c3f:	49 89 47 29          	mov    %rax,0x29(%r15)
  402c43:	49 89 57 31          	mov    %rdx,0x31(%r15)
  402c47:	89 df                	mov    %ebx,%edi
  402c49:	e8 82 e4 ff ff       	call   4010d0 <close@plt>
  402c4e:	b8 ff ff ff ff       	mov    $0xffffffff,%eax
  402c53:	48 8b 94 24 58 a0 00 	mov    0xa058(%rsp),%rdx
  402c5a:	00 
  402c5b:	64 48 2b 14 25 28 00 	sub    %fs:0x28,%rdx
  402c62:	00 00 
  402c64:	0f 85 67 04 00 00    	jne    4030d1 <submitr+0x749>
  402c6a:	48 81 c4 68 a0 00 00 	add    $0xa068,%rsp
  402c71:	5b                   	pop    %rbx
  402c72:	5d                   	pop    %rbp
  402c73:	41 5c                	pop    %r12
  402c75:	41 5d                	pop    %r13
  402c77:	41 5e                	pop    %r14
  402c79:	41 5f                	pop    %r15
  402c7b:	c3                   	ret
  402c7c:	48 b8 45 72 72 6f 72 	movabs $0x43203a726f727245,%rax
  402c83:	3a 20 43 
  402c86:	48 ba 6c 69 65 6e 74 	movabs $0x6e7520746e65696c,%rdx
  402c8d:	20 75 6e 
  402c90:	49 89 07             	mov    %rax,(%r15)
  402c93:	49 89 57 08          	mov    %rdx,0x8(%r15)
  402c97:	48 b8 61 62 6c 65 20 	movabs $0x206f7420656c6261,%rax
  402c9e:	74 6f 20 
  402ca1:	48 ba 63 72 65 61 74 	movabs $0x7320657461657263,%rdx
  402ca8:	65 20 73 
  402cab:	49 89 47 10          	mov    %rax,0x10(%r15)
  402caf:	49 89 57 18          	mov    %rdx,0x18(%r15)
  402cb3:	48 b8 20 73 6f 63 6b 	movabs $0x74656b636f7320,%rax
  402cba:	65 74 00 
  402cbd:	49 89 47 1e          	mov    %rax,0x1e(%r15)
  402cc1:	b8 ff ff ff ff       	mov    $0xffffffff,%eax
  402cc6:	eb 8b                	jmp    402c53 <submitr+0x2cb>
  402cc8:	48 b8 45 72 72 6f 72 	movabs $0x44203a726f727245,%rax
  402ccf:	3a 20 44 
  402cd2:	48 ba 4e 53 20 69 73 	movabs $0x6e7520736920534e,%rdx
  402cd9:	20 75 6e 
  402cdc:	49 89 07             	mov    %rax,(%r15)
  402cdf:	49 89 57 08          	mov    %rdx,0x8(%r15)
  402ce3:	48 b8 61 62 6c 65 20 	movabs $0x206f7420656c6261,%rax
  402cea:	74 6f 20 
  402ced:	48 ba 72 65 73 6f 6c 	movabs $0x2065766c6f736572,%rdx
  402cf4:	76 65 20 
  402cf7:	49 89 47 10          	mov    %rax,0x10(%r15)
  402cfb:	49 89 57 18          	mov    %rdx,0x18(%r15)
  402cff:	48 b8 41 75 74 6f 6c 	movabs $0x2062616c6f747541,%rax
  402d06:	61 62 20 
  402d09:	48 ba 73 65 72 76 65 	movabs $0x6120726576726573,%rdx
  402d10:	72 20 61 
  402d13:	49 89 47 20          	mov    %rax,0x20(%r15)
  402d17:	49 89 57 28          	mov    %rdx,0x28(%r15)
  402d1b:	48 b8 61 64 64 72 65 	movabs $0x73736572646461,%rax
  402d22:	73 73 00 
  402d25:	49 89 47 2f          	mov    %rax,0x2f(%r15)
  402d29:	89 df                	mov    %ebx,%edi
  402d2b:	e8 a0 e3 ff ff       	call   4010d0 <close@plt>
  402d30:	b8 ff ff ff ff       	mov    $0xffffffff,%eax
  402d35:	e9 19 ff ff ff       	jmp    402c53 <submitr+0x2cb>
  402d3a:	48 b8 45 72 72 6f 72 	movabs $0x55203a726f727245,%rax
  402d41:	3a 20 55 
  402d44:	48 ba 6e 61 62 6c 65 	movabs $0x6f7420656c62616e,%rdx
  402d4b:	20 74 6f 
  402d4e:	49 89 07             	mov    %rax,(%r15)
  402d51:	49 89 57 08          	mov    %rdx,0x8(%r15)
  402d55:	48 b8 20 63 6f 6e 6e 	movabs $0x7463656e6e6f6320,%rax
  402d5c:	65 63 74 
  402d5f:	48 ba 20 74 6f 20 74 	movabs $0x20656874206f7420,%rdx
  402d66:	68 65 20 
  402d69:	49 89 47 10          	mov    %rax,0x10(%r15)
  402d6d:	49 89 57 18          	mov    %rdx,0x18(%r15)
  402d71:	48 b8 20 41 75 74 6f 	movabs $0x62616c6f74754120,%rax
  402d78:	6c 61 62 
  402d7b:	48 ba 20 73 65 72 76 	movabs $0x72657672657320,%rdx
  402d82:	65 72 00 
  402d85:	49 89 47 1f          	mov    %rax,0x1f(%r15)
  402d89:	49 89 57 27          	mov    %rdx,0x27(%r15)
  402d8d:	89 df                	mov    %ebx,%edi
  402d8f:	e8 3c e3 ff ff       	call   4010d0 <close@plt>
  402d94:	b8 ff ff ff ff       	mov    $0xffffffff,%eax
  402d99:	e9 b5 fe ff ff       	jmp    402c53 <submitr+0x2cb>
  402d9e:	48 b8 45 72 72 6f 72 	movabs $0x52203a726f727245,%rax
  402da5:	3a 20 52 
  402da8:	48 ba 65 73 75 6c 74 	movabs $0x747320746c757365,%rdx
  402daf:	20 73 74 
  402db2:	49 89 07             	mov    %rax,(%r15)
  402db5:	49 89 57 08          	mov    %rdx,0x8(%r15)
  402db9:	48 b8 72 69 6e 67 20 	movabs $0x6f6f7420676e6972,%rax
  402dc0:	74 6f 6f 
  402dc3:	48 ba 20 6c 61 72 67 	movabs $0x202e656772616c20,%rdx
  402dca:	65 2e 20 
  402dcd:	49 89 47 10          	mov    %rax,0x10(%r15)
  402dd1:	49 89 57 18          	mov    %rdx,0x18(%r15)
  402dd5:	48 b8 49 6e 63 72 65 	movabs $0x6573616572636e49,%rax
  402ddc:	61 73 65 
  402ddf:	48 ba 20 53 55 42 4d 	movabs $0x5254494d42555320,%rdx
  402de6:	49 54 52 
  402de9:	49 89 47 20          	mov    %rax,0x20(%r15)
  402ded:	49 89 57 28          	mov    %rdx,0x28(%r15)
  402df1:	48 b8 5f 4d 41 58 42 	movabs $0x46554258414d5f,%rax
  402df8:	55 46 00 
  402dfb:	49 89 47 30          	mov    %rax,0x30(%r15)
  402dff:	89 df                	mov    %ebx,%edi
  402e01:	e8 ca e2 ff ff       	call   4010d0 <close@plt>
  402e06:	b8 ff ff ff ff       	mov    $0xffffffff,%eax
  402e0b:	e9 43 fe ff ff       	jmp    402c53 <submitr+0x2cb>
  402e10:	48 b8 45 72 72 6f 72 	movabs $0x55203a726f727245,%rax
  402e17:	3a 20 55 
  402e1a:	48 ba 73 65 72 69 64 	movabs $0x7473206469726573,%rdx
  402e21:	20 73 74 
  402e24:	49 89 07             	mov    %rax,(%r15)
  402e27:	49 89 57 08          	mov    %rdx,0x8(%r15)
  402e2b:	48 b8 72 69 6e 67 20 	movabs $0x6e6f6320676e6972,%rax
  402e32:	63 6f 6e 
  402e35:	48 ba 74 61 69 6e 73 	movabs $0x6e6120736e696174,%rdx
  402e3c:	20 61 6e 
  402e3f:	49 89 47 10          	mov    %rax,0x10(%r15)
  402e43:	49 89 57 18          	mov    %rdx,0x18(%r15)
  402e47:	48 b8 20 69 6c 6c 65 	movabs $0x6c6167656c6c6920,%rax
  402e4e:	67 61 6c 
  402e51:	48 ba 20 6f 72 20 75 	movabs $0x72706e7520726f20,%rdx
  402e58:	6e 70 72 
  402e5b:	49 89 47 20          	mov    %rax,0x20(%r15)
  402e5f:	49 89 57 28          	mov    %rdx,0x28(%r15)
  402e63:	48 b8 69 6e 74 61 62 	movabs $0x20656c6261746e69,%rax
  402e6a:	6c 65 20 
  402e6d:	48 ba 63 68 61 72 61 	movabs $0x6574636172616863,%rdx
  402e74:	63 74 65 
  402e77:	49 89 47 30          	mov    %rax,0x30(%r15)
  402e7b:	49 89 57 38          	mov    %rdx,0x38(%r15)
  402e7f:	41 c7 47 3f 65 72 2e 	movl   $0x2e7265,0x3f(%r15)
  402e86:	00 
  402e87:	89 df                	mov    %ebx,%edi
  402e89:	e8 42 e2 ff ff       	call   4010d0 <close@plt>
  402e8e:	b8 ff ff ff ff       	mov    $0xffffffff,%eax
  402e93:	e9 bb fd ff ff       	jmp    402c53 <submitr+0x2cb>
  402e98:	48 b8 45 72 72 6f 72 	movabs $0x43203a726f727245,%rax
  402e9f:	3a 20 43 
  402ea2:	48 ba 6c 69 65 6e 74 	movabs $0x6e7520746e65696c,%rdx
  402ea9:	20 75 6e 
  402eac:	49 89 07             	mov    %rax,(%r15)
  402eaf:	49 89 57 08          	mov    %rdx,0x8(%r15)
  402eb3:	48 b8 61 62 6c 65 20 	movabs $0x206f7420656c6261,%rax
  402eba:	74 6f 20 
  402ebd:	48 ba 77 72 69 74 65 	movabs $0x6f74206574697277,%rdx
  402ec4:	20 74 6f 
  402ec7:	49 89 47 10          	mov    %rax,0x10(%r15)
  402ecb:	49 89 57 18          	mov    %rdx,0x18(%r15)
  402ecf:	48 b8 20 74 68 65 20 	movabs $0x7475412065687420,%rax
  402ed6:	41 75 74 
  402ed9:	48 ba 6f 6c 61 62 20 	movabs $0x7265732062616c6f,%rdx
  402ee0:	73 65 72 
  402ee3:	49 89 47 20          	mov    %rax,0x20(%r15)
  402ee7:	49 89 57 28          	mov    %rdx,0x28(%r15)
  402eeb:	41 c7 47 30 76 65 72 	movl   $0x726576,0x30(%r15)
  402ef2:	00 
  402ef3:	89 df                	mov    %ebx,%edi
  402ef5:	e8 d6 e1 ff ff       	call   4010d0 <close@plt>
  402efa:	b8 ff ff ff ff       	mov    $0xffffffff,%eax
  402eff:	e9 4f fd ff ff       	jmp    402c53 <submitr+0x2cb>
  402f04:	48 b8 45 72 72 6f 72 	movabs $0x43203a726f727245,%rax
  402f0b:	3a 20 43 
  402f0e:	48 ba 6c 69 65 6e 74 	movabs $0x6e7520746e65696c,%rdx
  402f15:	20 75 6e 
  402f18:	49 89 07             	mov    %rax,(%r15)
  402f1b:	49 89 57 08          	mov    %rdx,0x8(%r15)
  402f1f:	48 b8 61 62 6c 65 20 	movabs $0x206f7420656c6261,%rax
  402f26:	74 6f 20 
  402f29:	48 ba 72 65 61 64 20 	movabs $0x7269662064616572,%rdx
  402f30:	66 69 72 
  402f33:	49 89 47 10          	mov    %rax,0x10(%r15)
  402f37:	49 89 57 18          	mov    %rdx,0x18(%r15)
  402f3b:	48 b8 73 74 20 68 65 	movabs $0x6564616568207473,%rax
  402f42:	61 64 65 
  402f45:	48 ba 72 20 66 72 6f 	movabs $0x41206d6f72662072,%rdx
  402f4c:	6d 20 41 
  402f4f:	49 89 47 20          	mov    %rax,0x20(%r15)
  402f53:	49 89 57 28          	mov    %rdx,0x28(%r15)
  402f57:	48 b8 20 41 75 74 6f 	movabs $0x62616c6f74754120,%rax
  402f5e:	6c 61 62 
  402f61:	48 ba 20 73 65 72 76 	movabs $0x72657672657320,%rdx
  402f68:	65 72 00 
  402f6b:	49 89 47 2e          	mov    %rax,0x2e(%r15)
  402f6f:	49 89 57 36          	mov    %rdx,0x36(%r15)
  402f73:	89 df                	mov    %ebx,%edi
  402f75:	e8 56 e1 ff ff       	call   4010d0 <close@plt>
  402f7a:	b8 ff ff ff ff       	mov    $0xffffffff,%eax
  402f7f:	e9 cf fc ff ff       	jmp    402c53 <submitr+0x2cb>
  402f84:	48 8d b4 24 50 20 00 	lea    0x2050(%rsp),%rsi
  402f8b:	00 
  402f8c:	48 8d 7c 24 40       	lea    0x40(%rsp),%rdi
  402f91:	ba 00 20 00 00       	mov    $0x2000,%edx
  402f96:	e8 46 f8 ff ff       	call   4027e1 <rio_readlineb>
  402f9b:	48 85 c0             	test   %rax,%rax
  402f9e:	7e 78                	jle    403018 <submitr+0x690>
  402fa0:	44 8b 44 24 2c       	mov    0x2c(%rsp),%r8d
  402fa5:	41 81 f8 c8 00 00 00 	cmp    $0xc8,%r8d
  402fac:	0f 85 e6 00 00 00    	jne    403098 <submitr+0x710>
  402fb2:	48 8d b4 24 50 20 00 	lea    0x2050(%rsp),%rsi
  402fb9:	00 
  402fba:	4c 89 ff             	mov    %r15,%rdi
  402fbd:	e8 ae e0 ff ff       	call   401070 <strcpy@plt>
  402fc2:	89 df                	mov    %ebx,%edi
  402fc4:	e8 07 e1 ff ff       	call   4010d0 <close@plt>
  402fc9:	48 8d 35 9e 17 00 00 	lea    0x179e(%rip),%rsi        # 40476e <_IO_stdin_used+0x76e>
  402fd0:	4c 89 ff             	mov    %r15,%rdi
  402fd3:	e8 18 e1 ff ff       	call   4010f0 <strcmp@plt>
  402fd8:	85 c0                	test   %eax,%eax
  402fda:	0f 84 73 fc ff ff    	je     402c53 <submitr+0x2cb>
  402fe0:	48 8d 35 8b 17 00 00 	lea    0x178b(%rip),%rsi        # 404772 <_IO_stdin_used+0x772>
  402fe7:	4c 89 ff             	mov    %r15,%rdi
  402fea:	e8 01 e1 ff ff       	call   4010f0 <strcmp@plt>
  402fef:	85 c0                	test   %eax,%eax
  402ff1:	0f 84 5c fc ff ff    	je     402c53 <submitr+0x2cb>
  402ff7:	48 8d 35 79 17 00 00 	lea    0x1779(%rip),%rsi        # 404777 <_IO_stdin_used+0x777>
  402ffe:	4c 89 ff             	mov    %r15,%rdi
  403001:	e8 ea e0 ff ff       	call   4010f0 <strcmp@plt>
  403006:	85 c0                	test   %eax,%eax
  403008:	0f 84 45 fc ff ff    	je     402c53 <submitr+0x2cb>
  40300e:	b8 ff ff ff ff       	mov    $0xffffffff,%eax
  403013:	e9 3b fc ff ff       	jmp    402c53 <submitr+0x2cb>
  403018:	48 b8 45 72 72 6f 72 	movabs $0x43203a726f727245,%rax
  40301f:	3a 20 43 
  403022:	48 ba 6c 69 65 6e 74 	movabs $0x6e7520746e65696c,%rdx
  403029:	20 75 6e 
  40302c:	49 89 07             	mov    %rax,(%r15)
  40302f:	49 89 57 08          	mov    %rdx,0x8(%r15)
  403033:	48 b8 61 62 6c 65 20 	movabs $0x206f7420656c6261,%rax
  40303a:	74 6f 20 
  40303d:	48 ba 72 65 61 64 20 	movabs $0x6174732064616572,%rdx
  403044:	73 74 61 
  403047:	49 89 47 10          	mov    %rax,0x10(%r15)
  40304b:	49 89 57 18          	mov    %rdx,0x18(%r15)
  40304f:	48 b8 74 75 73 20 6d 	movabs $0x7373656d20737574,%rax
  403056:	65 73 73 
  403059:	48 ba 61 67 65 20 66 	movabs $0x6d6f726620656761,%rdx
  403060:	72 6f 6d 
  403063:	49 89 47 20          	mov    %rax,0x20(%r15)
  403067:	49 89 57 28          	mov    %rdx,0x28(%r15)
  40306b:	48 b8 20 41 75 74 6f 	movabs $0x62616c6f74754120,%rax
  403072:	6c 61 62 
  403075:	48 ba 20 73 65 72 76 	movabs $0x72657672657320,%rdx
  40307c:	65 72 00 
  40307f:	49 89 47 30          	mov    %rax,0x30(%r15)
  403083:	49 89 57 38          	mov    %rdx,0x38(%r15)
  403087:	89 df                	mov    %ebx,%edi
  403089:	e8 42 e0 ff ff       	call   4010d0 <close@plt>
  40308e:	b8 ff ff ff ff       	mov    $0xffffffff,%eax
  403093:	e9 bb fb ff ff       	jmp    402c53 <submitr+0x2cb>
  403098:	4c 8d 8c 24 50 80 00 	lea    0x8050(%rsp),%r9
  40309f:	00 
  4030a0:	48 8d 0d 49 14 00 00 	lea    0x1449(%rip),%rcx        # 4044f0 <_IO_stdin_used+0x4f0>
  4030a7:	48 c7 c2 ff ff ff ff 	mov    $0xffffffffffffffff,%rdx
  4030ae:	be 02 00 00 00       	mov    $0x2,%esi
  4030b3:	4c 89 ff             	mov    %r15,%rdi
  4030b6:	b8 00 00 00 00       	mov    $0x0,%eax
  4030bb:	e8 60 e1 ff ff       	call   401220 <__sprintf_chk@plt>
  4030c0:	89 df                	mov    %ebx,%edi
  4030c2:	e8 09 e0 ff ff       	call   4010d0 <close@plt>
  4030c7:	b8 ff ff ff ff       	mov    $0xffffffff,%eax
  4030cc:	e9 82 fb ff ff       	jmp    402c53 <submitr+0x2cb>
  4030d1:	e8 ab f3 ff ff       	call   402481 <__stack_chk_fail>

00000000004030d6 <init_timeout>:
  4030d6:	f3 0f 1e fa          	endbr64
  4030da:	85 ff                	test   %edi,%edi
  4030dc:	74 26                	je     403104 <init_timeout+0x2e>
  4030de:	53                   	push   %rbx
  4030df:	89 fb                	mov    %edi,%ebx
  4030e1:	78 1a                	js     4030fd <init_timeout+0x27>
  4030e3:	48 8d 35 d5 f5 ff ff 	lea    -0xa2b(%rip),%rsi        # 4026bf <sigalrm_handler>
  4030ea:	bf 0e 00 00 00       	mov    $0xe,%edi
  4030ef:	e8 0c e0 ff ff       	call   401100 <signal@plt>
  4030f4:	89 df                	mov    %ebx,%edi
  4030f6:	e8 c5 df ff ff       	call   4010c0 <alarm@plt>
  4030fb:	5b                   	pop    %rbx
  4030fc:	c3                   	ret
  4030fd:	bb 00 00 00 00       	mov    $0x0,%ebx
  403102:	eb df                	jmp    4030e3 <init_timeout+0xd>
  403104:	c3                   	ret

0000000000403105 <init_driver>:
  403105:	f3 0f 1e fa          	endbr64
  403109:	41 54                	push   %r12
  40310b:	55                   	push   %rbp
  40310c:	53                   	push   %rbx
  40310d:	48 83 ec 20          	sub    $0x20,%rsp
  403111:	48 89 fd             	mov    %rdi,%rbp
  403114:	64 48 8b 04 25 28 00 	mov    %fs:0x28,%rax
  40311b:	00 00 
  40311d:	48 89 44 24 18       	mov    %rax,0x18(%rsp)
  403122:	31 c0                	xor    %eax,%eax
  403124:	be 01 00 00 00       	mov    $0x1,%esi
  403129:	bf 0d 00 00 00       	mov    $0xd,%edi
  40312e:	e8 cd df ff ff       	call   401100 <signal@plt>
  403133:	be 01 00 00 00       	mov    $0x1,%esi
  403138:	bf 1d 00 00 00       	mov    $0x1d,%edi
  40313d:	e8 be df ff ff       	call   401100 <signal@plt>
  403142:	be 01 00 00 00       	mov    $0x1,%esi
  403147:	bf 1d 00 00 00       	mov    $0x1d,%edi
  40314c:	e8 af df ff ff       	call   401100 <signal@plt>
  403151:	ba 00 00 00 00       	mov    $0x0,%edx
  403156:	be 01 00 00 00       	mov    $0x1,%esi
  40315b:	bf 02 00 00 00       	mov    $0x2,%edi
  403160:	e8 cb e0 ff ff       	call   401230 <socket@plt>
  403165:	85 c0                	test   %eax,%eax
  403167:	0f 88 93 00 00 00    	js     403200 <init_driver+0xfb>
  40316d:	89 c3                	mov    %eax,%ebx
  40316f:	48 8d 3d 04 16 00 00 	lea    0x1604(%rip),%rdi        # 40477a <_IO_stdin_used+0x77a>
  403176:	e8 95 df ff ff       	call   401110 <gethostbyname@plt>
  40317b:	48 85 c0             	test   %rax,%rax
  40317e:	0f 84 c9 00 00 00    	je     40324d <init_driver+0x148>
  403184:	49 89 e4             	mov    %rsp,%r12
  403187:	66 0f ef c0          	pxor   %xmm0,%xmm0
  40318b:	0f 29 04 24          	movaps %xmm0,(%rsp)
  40318f:	66 c7 04 24 02 00    	movw   $0x2,(%rsp)
  403195:	48 63 50 14          	movslq 0x14(%rax),%rdx
  403199:	48 8b 40 18          	mov    0x18(%rax),%rax
  40319d:	48 8b 30             	mov    (%rax),%rsi
  4031a0:	48 8d 7c 24 04       	lea    0x4(%rsp),%rdi
  4031a5:	b9 0c 00 00 00       	mov    $0xc,%ecx
  4031aa:	e8 71 df ff ff       	call   401120 <__memmove_chk@plt>
  4031af:	66 c7 44 24 02 00 50 	movw   $0x5000,0x2(%rsp)
  4031b6:	ba 10 00 00 00       	mov    $0x10,%edx
  4031bb:	4c 89 e6             	mov    %r12,%rsi
  4031be:	89 df                	mov    %ebx,%edi
  4031c0:	e8 2b e0 ff ff       	call   4011f0 <connect@plt>
  4031c5:	85 c0                	test   %eax,%eax
  4031c7:	0f 88 e5 00 00 00    	js     4032b2 <init_driver+0x1ad>
  4031cd:	89 df                	mov    %ebx,%edi
  4031cf:	e8 fc de ff ff       	call   4010d0 <close@plt>
  4031d4:	66 c7 45 00 4f 4b    	movw   $0x4b4f,0x0(%rbp)
  4031da:	c6 45 02 00          	movb   $0x0,0x2(%rbp)
  4031de:	b8 00 00 00 00       	mov    $0x0,%eax
  4031e3:	48 8b 54 24 18       	mov    0x18(%rsp),%rdx
  4031e8:	64 48 2b 14 25 28 00 	sub    %fs:0x28,%rdx
  4031ef:	00 00 
  4031f1:	0f 85 27 01 00 00    	jne    40331e <init_driver+0x219>
  4031f7:	48 83 c4 20          	add    $0x20,%rsp
  4031fb:	5b                   	pop    %rbx
  4031fc:	5d                   	pop    %rbp
  4031fd:	41 5c                	pop    %r12
  4031ff:	c3                   	ret
  403200:	48 b8 45 72 72 6f 72 	movabs $0x43203a726f727245,%rax
  403207:	3a 20 43 
  40320a:	48 ba 6c 69 65 6e 74 	movabs $0x6e7520746e65696c,%rdx
  403211:	20 75 6e 
  403214:	48 89 45 00          	mov    %rax,0x0(%rbp)
  403218:	48 89 55 08          	mov    %rdx,0x8(%rbp)
  40321c:	48 b8 61 62 6c 65 20 	movabs $0x206f7420656c6261,%rax
  403223:	74 6f 20 
  403226:	48 ba 63 72 65 61 74 	movabs $0x7320657461657263,%rdx
  40322d:	65 20 73 
  403230:	48 89 45 10          	mov    %rax,0x10(%rbp)
  403234:	48 89 55 18          	mov    %rdx,0x18(%rbp)
  403238:	48 b8 20 73 6f 63 6b 	movabs $0x74656b636f7320,%rax
  40323f:	65 74 00 
  403242:	48 89 45 1e          	mov    %rax,0x1e(%rbp)
  403246:	b8 ff ff ff ff       	mov    $0xffffffff,%eax
  40324b:	eb 96                	jmp    4031e3 <init_driver+0xde>
  40324d:	48 b8 45 72 72 6f 72 	movabs $0x44203a726f727245,%rax
  403254:	3a 20 44 
  403257:	48 ba 4e 53 20 69 73 	movabs $0x6e7520736920534e,%rdx
  40325e:	20 75 6e 
  403261:	48 89 45 00          	mov    %rax,0x0(%rbp)
  403265:	48 89 55 08          	mov    %rdx,0x8(%rbp)
  403269:	48 b8 61 62 6c 65 20 	movabs $0x206f7420656c6261,%rax
  403270:	74 6f 20 
  403273:	48 ba 72 65 73 6f 6c 	movabs $0x2065766c6f736572,%rdx
  40327a:	76 65 20 
  40327d:	48 89 45 10          	mov    %rax,0x10(%rbp)
  403281:	48 89 55 18          	mov    %rdx,0x18(%rbp)
  403285:	48 b8 20 73 65 72 76 	movabs $0x2072657672657320,%rax
  40328c:	65 72 20 
  40328f:	48 ba 61 64 64 72 65 	movabs $0x73736572646461,%rdx
  403296:	73 73 00 
  403299:	48 89 45 1f          	mov    %rax,0x1f(%rbp)
  40329d:	48 89 55 27          	mov    %rdx,0x27(%rbp)
  4032a1:	89 df                	mov    %ebx,%edi
  4032a3:	e8 28 de ff ff       	call   4010d0 <close@plt>
  4032a8:	b8 ff ff ff ff       	mov    $0xffffffff,%eax
  4032ad:	e9 31 ff ff ff       	jmp    4031e3 <init_driver+0xde>
  4032b2:	48 b8 31 36 32 2e 31 	movabs $0x2e3530312e323631,%rax
  4032b9:	30 35 2e 
  4032bc:	48 89 45 00          	mov    %rax,0x0(%rbp)
  4032c0:	48 b8 2e 33 31 2e 32 	movabs $0x3233322e31332e,%rax
  4032c7:	33 32 00 
  4032ca:	48 89 45 07          	mov    %rax,0x7(%rbp)
  4032ce:	48 b8 45 72 72 6f 72 	movabs $0x55203a726f727245,%rax
  4032d5:	3a 20 55 
  4032d8:	48 ba 6e 61 62 6c 65 	movabs $0x6f7420656c62616e,%rdx
  4032df:	20 74 6f 
  4032e2:	48 89 45 00          	mov    %rax,0x0(%rbp)
  4032e6:	48 89 55 08          	mov    %rdx,0x8(%rbp)
  4032ea:	48 b8 20 63 6f 6e 6e 	movabs $0x7463656e6e6f6320,%rax
  4032f1:	65 63 74 
  4032f4:	48 ba 20 74 6f 20 73 	movabs $0x76726573206f7420,%rdx
  4032fb:	65 72 76 
  4032fe:	48 89 45 10          	mov    %rax,0x10(%rbp)
  403302:	48 89 55 18          	mov    %rdx,0x18(%rbp)
  403306:	c7 45 1f 76 65 72 00 	movl   $0x726576,0x1f(%rbp)
  40330d:	89 df                	mov    %ebx,%edi
  40330f:	e8 bc dd ff ff       	call   4010d0 <close@plt>
  403314:	b8 ff ff ff ff       	mov    $0xffffffff,%eax
  403319:	e9 c5 fe ff ff       	jmp    4031e3 <init_driver+0xde>
  40331e:	e8 5e f1 ff ff       	call   402481 <__stack_chk_fail>

0000000000403323 <driver_post>:
  403323:	f3 0f 1e fa          	endbr64
  403327:	53                   	push   %rbx
  403328:	4c 89 cb             	mov    %r9,%rbx
  40332b:	45 85 c0             	test   %r8d,%r8d
  40332e:	75 18                	jne    403348 <driver_post+0x25>
  403330:	48 85 ff             	test   %rdi,%rdi
  403333:	74 05                	je     40333a <driver_post+0x17>
  403335:	80 3f 00             	cmpb   $0x0,(%rdi)
  403338:	75 37                	jne    403371 <driver_post+0x4e>
  40333a:	66 c7 03 4f 4b       	movw   $0x4b4f,(%rbx)
  40333f:	c6 43 02 00          	movb   $0x0,0x2(%rbx)
  403343:	44 89 c0             	mov    %r8d,%eax
  403346:	5b                   	pop    %rbx
  403347:	c3                   	ret
  403348:	48 89 ca             	mov    %rcx,%rdx
  40334b:	48 8d 35 37 14 00 00 	lea    0x1437(%rip),%rsi        # 404789 <_IO_stdin_used+0x789>
  403352:	bf 02 00 00 00       	mov    $0x2,%edi
  403357:	b8 00 00 00 00       	mov    $0x0,%eax
  40335c:	e8 2f de ff ff       	call   401190 <__printf_chk@plt>
  403361:	66 c7 03 4f 4b       	movw   $0x4b4f,(%rbx)
  403366:	c6 43 02 00          	movb   $0x0,0x2(%rbx)
  40336a:	b8 00 00 00 00       	mov    $0x0,%eax
  40336f:	eb d5                	jmp    403346 <driver_post+0x23>
  403371:	48 83 ec 08          	sub    $0x8,%rsp
  403375:	41 51                	push   %r9
  403377:	49 89 c9             	mov    %rcx,%r9
  40337a:	49 89 d0             	mov    %rdx,%r8
  40337d:	48 89 f9             	mov    %rdi,%rcx
  403380:	48 89 f2             	mov    %rsi,%rdx
  403383:	be 50 00 00 00       	mov    $0x50,%esi
  403388:	48 8d 3d eb 13 00 00 	lea    0x13eb(%rip),%rdi        # 40477a <_IO_stdin_used+0x77a>
  40338f:	e8 f4 f5 ff ff       	call   402988 <submitr>
  403394:	48 83 c4 10          	add    $0x10,%rsp
  403398:	eb ac                	jmp    403346 <driver_post+0x23>

000000000040339a <check>:
  40339a:	f3 0f 1e fa          	endbr64
  40339e:	89 f8                	mov    %edi,%eax
  4033a0:	c1 e8 1c             	shr    $0x1c,%eax
  4033a3:	74 1d                	je     4033c2 <check+0x28>
  4033a5:	b9 00 00 00 00       	mov    $0x0,%ecx
  4033aa:	83 f9 1f             	cmp    $0x1f,%ecx
  4033ad:	7f 0d                	jg     4033bc <check+0x22>
  4033af:	89 f8                	mov    %edi,%eax
  4033b1:	d3 e8                	shr    %cl,%eax
  4033b3:	3c 0a                	cmp    $0xa,%al
  4033b5:	74 11                	je     4033c8 <check+0x2e>
  4033b7:	83 c1 08             	add    $0x8,%ecx
  4033ba:	eb ee                	jmp    4033aa <check+0x10>
  4033bc:	b8 01 00 00 00       	mov    $0x1,%eax
  4033c1:	c3                   	ret
  4033c2:	b8 00 00 00 00       	mov    $0x0,%eax
  4033c7:	c3                   	ret
  4033c8:	b8 00 00 00 00       	mov    $0x0,%eax
  4033cd:	c3                   	ret

00000000004033ce <gencookie>:
  4033ce:	f3 0f 1e fa          	endbr64
  4033d2:	53                   	push   %rbx
  4033d3:	83 c7 01             	add    $0x1,%edi
  4033d6:	e8 65 dc ff ff       	call   401040 <srandom@plt>
  4033db:	e8 80 dd ff ff       	call   401160 <random@plt>
  4033e0:	89 c3                	mov    %eax,%ebx
  4033e2:	89 c7                	mov    %eax,%edi
  4033e4:	e8 b1 ff ff ff       	call   40339a <check>
  4033e9:	85 c0                	test   %eax,%eax
  4033eb:	74 ee                	je     4033db <gencookie+0xd>
  4033ed:	89 d8                	mov    %ebx,%eax
  4033ef:	5b                   	pop    %rbx
  4033f0:	c3                   	ret

Disassembly of section .fini:

00000000004033f4 <_fini>:
  4033f4:	f3 0f 1e fa          	endbr64
  4033f8:	48 83 ec 08          	sub    $0x8,%rsp
  4033fc:	48 83 c4 08          	add    $0x8,%rsp
  403400:	c3                   	ret
