
rtarget:     file format elf64-x86-64


Disassembly of section .init:

0000000000401000 <_init>:
  401000:	f3 0f 1e fa          	endbr64
  401004:	48 83 ec 08          	sub    $0x8,%rsp
  401008:	48 8b 05 d1 5f 00 00 	mov    0x5fd1(%rip),%rax        # 406fe0 <__gmon_start__@Base>
  40100f:	48 85 c0             	test   %rax,%rax
  401012:	74 02                	je     401016 <_init+0x16>
  401014:	ff d0                	call   *%rax
  401016:	48 83 c4 08          	add    $0x8,%rsp
  40101a:	c3                   	ret

Disassembly of section .plt:

0000000000401020 <__errno_location@plt-0x10>:
  401020:	ff 35 ca 5f 00 00    	push   0x5fca(%rip)        # 406ff0 <_GLOBAL_OFFSET_TABLE_+0x8>
  401026:	ff 25 cc 5f 00 00    	jmp    *0x5fcc(%rip)        # 406ff8 <_GLOBAL_OFFSET_TABLE_+0x10>
  40102c:	0f 1f 40 00          	nopl   0x0(%rax)

0000000000401030 <__errno_location@plt>:
  401030:	ff 25 ca 5f 00 00    	jmp    *0x5fca(%rip)        # 407000 <__errno_location@GLIBC_2.2.5>
  401036:	68 00 00 00 00       	push   $0x0
  40103b:	e9 e0 ff ff ff       	jmp    401020 <_init+0x20>

0000000000401040 <srandom@plt>:
  401040:	ff 25 c2 5f 00 00    	jmp    *0x5fc2(%rip)        # 407008 <srandom@GLIBC_2.2.5>
  401046:	68 01 00 00 00       	push   $0x1
  40104b:	e9 d0 ff ff ff       	jmp    401020 <_init+0x20>

0000000000401050 <strncpy@plt>:
  401050:	ff 25 ba 5f 00 00    	jmp    *0x5fba(%rip)        # 407010 <strncpy@GLIBC_2.2.5>
  401056:	68 02 00 00 00       	push   $0x2
  40105b:	e9 c0 ff ff ff       	jmp    401020 <_init+0x20>

0000000000401060 <strncmp@plt>:
  401060:	ff 25 b2 5f 00 00    	jmp    *0x5fb2(%rip)        # 407018 <strncmp@GLIBC_2.2.5>
  401066:	68 03 00 00 00       	push   $0x3
  40106b:	e9 b0 ff ff ff       	jmp    401020 <_init+0x20>

0000000000401070 <strcpy@plt>:
  401070:	ff 25 aa 5f 00 00    	jmp    *0x5faa(%rip)        # 407020 <strcpy@GLIBC_2.2.5>
  401076:	68 04 00 00 00       	push   $0x4
  40107b:	e9 a0 ff ff ff       	jmp    401020 <_init+0x20>

0000000000401080 <puts@plt>:
  401080:	ff 25 a2 5f 00 00    	jmp    *0x5fa2(%rip)        # 407028 <puts@GLIBC_2.2.5>
  401086:	68 05 00 00 00       	push   $0x5
  40108b:	e9 90 ff ff ff       	jmp    401020 <_init+0x20>

0000000000401090 <write@plt>:
  401090:	ff 25 9a 5f 00 00    	jmp    *0x5f9a(%rip)        # 407030 <write@GLIBC_2.2.5>
  401096:	68 06 00 00 00       	push   $0x6
  40109b:	e9 80 ff ff ff       	jmp    401020 <_init+0x20>

00000000004010a0 <strlen@plt>:
  4010a0:	ff 25 92 5f 00 00    	jmp    *0x5f92(%rip)        # 407038 <strlen@GLIBC_2.2.5>
  4010a6:	68 07 00 00 00       	push   $0x7
  4010ab:	e9 70 ff ff ff       	jmp    401020 <_init+0x20>

00000000004010b0 <mmap@plt>:
  4010b0:	ff 25 8a 5f 00 00    	jmp    *0x5f8a(%rip)        # 407040 <mmap@GLIBC_2.2.5>
  4010b6:	68 08 00 00 00       	push   $0x8
  4010bb:	e9 60 ff ff ff       	jmp    401020 <_init+0x20>

00000000004010c0 <alarm@plt>:
  4010c0:	ff 25 82 5f 00 00    	jmp    *0x5f82(%rip)        # 407048 <alarm@GLIBC_2.2.5>
  4010c6:	68 09 00 00 00       	push   $0x9
  4010cb:	e9 50 ff ff ff       	jmp    401020 <_init+0x20>

00000000004010d0 <close@plt>:
  4010d0:	ff 25 7a 5f 00 00    	jmp    *0x5f7a(%rip)        # 407050 <close@GLIBC_2.2.5>
  4010d6:	68 0a 00 00 00       	push   $0xa
  4010db:	e9 40 ff ff ff       	jmp    401020 <_init+0x20>

00000000004010e0 <read@plt>:
  4010e0:	ff 25 72 5f 00 00    	jmp    *0x5f72(%rip)        # 407058 <read@GLIBC_2.2.5>
  4010e6:	68 0b 00 00 00       	push   $0xb
  4010eb:	e9 30 ff ff ff       	jmp    401020 <_init+0x20>

00000000004010f0 <strcmp@plt>:
  4010f0:	ff 25 6a 5f 00 00    	jmp    *0x5f6a(%rip)        # 407060 <strcmp@GLIBC_2.2.5>
  4010f6:	68 0c 00 00 00       	push   $0xc
  4010fb:	e9 20 ff ff ff       	jmp    401020 <_init+0x20>

0000000000401100 <signal@plt>:
  401100:	ff 25 62 5f 00 00    	jmp    *0x5f62(%rip)        # 407068 <signal@GLIBC_2.2.5>
  401106:	68 0d 00 00 00       	push   $0xd
  40110b:	e9 10 ff ff ff       	jmp    401020 <_init+0x20>

0000000000401110 <gethostbyname@plt>:
  401110:	ff 25 5a 5f 00 00    	jmp    *0x5f5a(%rip)        # 407070 <gethostbyname@GLIBC_2.2.5>
  401116:	68 0e 00 00 00       	push   $0xe
  40111b:	e9 00 ff ff ff       	jmp    401020 <_init+0x20>

0000000000401120 <__memmove_chk@plt>:
  401120:	ff 25 52 5f 00 00    	jmp    *0x5f52(%rip)        # 407078 <__memmove_chk@GLIBC_2.3.4>
  401126:	68 0f 00 00 00       	push   $0xf
  40112b:	e9 f0 fe ff ff       	jmp    401020 <_init+0x20>

0000000000401130 <strtol@plt>:
  401130:	ff 25 4a 5f 00 00    	jmp    *0x5f4a(%rip)        # 407080 <strtol@GLIBC_2.2.5>
  401136:	68 10 00 00 00       	push   $0x10
  40113b:	e9 e0 fe ff ff       	jmp    401020 <_init+0x20>

0000000000401140 <memcpy@plt>:
  401140:	ff 25 42 5f 00 00    	jmp    *0x5f42(%rip)        # 407088 <memcpy@GLIBC_2.14>
  401146:	68 11 00 00 00       	push   $0x11
  40114b:	e9 d0 fe ff ff       	jmp    401020 <_init+0x20>

0000000000401150 <time@plt>:
  401150:	ff 25 3a 5f 00 00    	jmp    *0x5f3a(%rip)        # 407090 <time@GLIBC_2.2.5>
  401156:	68 12 00 00 00       	push   $0x12
  40115b:	e9 c0 fe ff ff       	jmp    401020 <_init+0x20>

0000000000401160 <random@plt>:
  401160:	ff 25 32 5f 00 00    	jmp    *0x5f32(%rip)        # 407098 <random@GLIBC_2.2.5>
  401166:	68 13 00 00 00       	push   $0x13
  40116b:	e9 b0 fe ff ff       	jmp    401020 <_init+0x20>

0000000000401170 <__isoc99_sscanf@plt>:
  401170:	ff 25 2a 5f 00 00    	jmp    *0x5f2a(%rip)        # 4070a0 <__isoc99_sscanf@GLIBC_2.7>
  401176:	68 14 00 00 00       	push   $0x14
  40117b:	e9 a0 fe ff ff       	jmp    401020 <_init+0x20>

0000000000401180 <munmap@plt>:
  401180:	ff 25 22 5f 00 00    	jmp    *0x5f22(%rip)        # 4070a8 <munmap@GLIBC_2.2.5>
  401186:	68 15 00 00 00       	push   $0x15
  40118b:	e9 90 fe ff ff       	jmp    401020 <_init+0x20>

0000000000401190 <__printf_chk@plt>:
  401190:	ff 25 1a 5f 00 00    	jmp    *0x5f1a(%rip)        # 4070b0 <__printf_chk@GLIBC_2.3.4>
  401196:	68 16 00 00 00       	push   $0x16
  40119b:	e9 80 fe ff ff       	jmp    401020 <_init+0x20>

00000000004011a0 <fopen@plt>:
  4011a0:	ff 25 12 5f 00 00    	jmp    *0x5f12(%rip)        # 4070b8 <fopen@GLIBC_2.2.5>
  4011a6:	68 17 00 00 00       	push   $0x17
  4011ab:	e9 70 fe ff ff       	jmp    401020 <_init+0x20>

00000000004011b0 <getopt@plt>:
  4011b0:	ff 25 0a 5f 00 00    	jmp    *0x5f0a(%rip)        # 4070c0 <getopt@GLIBC_2.2.5>
  4011b6:	68 18 00 00 00       	push   $0x18
  4011bb:	e9 60 fe ff ff       	jmp    401020 <_init+0x20>

00000000004011c0 <strtoul@plt>:
  4011c0:	ff 25 02 5f 00 00    	jmp    *0x5f02(%rip)        # 4070c8 <strtoul@GLIBC_2.2.5>
  4011c6:	68 19 00 00 00       	push   $0x19
  4011cb:	e9 50 fe ff ff       	jmp    401020 <_init+0x20>

00000000004011d0 <__memset_chk@plt>:
  4011d0:	ff 25 fa 5e 00 00    	jmp    *0x5efa(%rip)        # 4070d0 <__memset_chk@GLIBC_2.3.4>
  4011d6:	68 1a 00 00 00       	push   $0x1a
  4011db:	e9 40 fe ff ff       	jmp    401020 <_init+0x20>

00000000004011e0 <exit@plt>:
  4011e0:	ff 25 f2 5e 00 00    	jmp    *0x5ef2(%rip)        # 4070d8 <exit@GLIBC_2.2.5>
  4011e6:	68 1b 00 00 00       	push   $0x1b
  4011eb:	e9 30 fe ff ff       	jmp    401020 <_init+0x20>

00000000004011f0 <connect@plt>:
  4011f0:	ff 25 ea 5e 00 00    	jmp    *0x5eea(%rip)        # 4070e0 <connect@GLIBC_2.2.5>
  4011f6:	68 1c 00 00 00       	push   $0x1c
  4011fb:	e9 20 fe ff ff       	jmp    401020 <_init+0x20>

0000000000401200 <__fprintf_chk@plt>:
  401200:	ff 25 e2 5e 00 00    	jmp    *0x5ee2(%rip)        # 4070e8 <__fprintf_chk@GLIBC_2.3.4>
  401206:	68 1d 00 00 00       	push   $0x1d
  40120b:	e9 10 fe ff ff       	jmp    401020 <_init+0x20>

0000000000401210 <getc@plt>:
  401210:	ff 25 da 5e 00 00    	jmp    *0x5eda(%rip)        # 4070f0 <getc@GLIBC_2.2.5>
  401216:	68 1e 00 00 00       	push   $0x1e
  40121b:	e9 00 fe ff ff       	jmp    401020 <_init+0x20>

0000000000401220 <__sprintf_chk@plt>:
  401220:	ff 25 d2 5e 00 00    	jmp    *0x5ed2(%rip)        # 4070f8 <__sprintf_chk@GLIBC_2.3.4>
  401226:	68 1f 00 00 00       	push   $0x1f
  40122b:	e9 f0 fd ff ff       	jmp    401020 <_init+0x20>

0000000000401230 <socket@plt>:
  401230:	ff 25 ca 5e 00 00    	jmp    *0x5eca(%rip)        # 407100 <socket@GLIBC_2.2.5>
  401236:	68 20 00 00 00       	push   $0x20
  40123b:	e9 e0 fd ff ff       	jmp    401020 <_init+0x20>

Disassembly of section .text:

0000000000401240 <_start>:
  401240:	f3 0f 1e fa          	endbr64
  401244:	31 ed                	xor    %ebp,%ebp
  401246:	49 89 d1             	mov    %rdx,%r9
  401249:	5e                   	pop    %rsi
  40124a:	48 89 e2             	mov    %rsp,%rdx
  40124d:	48 83 e4 f0          	and    $0xfffffffffffffff0,%rsp
  401251:	50                   	push   %rax
  401252:	54                   	push   %rsp
  401253:	45 31 c0             	xor    %r8d,%r8d
  401256:	31 c9                	xor    %ecx,%ecx
  401258:	48 c7 c7 d7 14 40 00 	mov    $0x4014d7,%rdi
  40125f:	ff 15 73 5d 00 00    	call   *0x5d73(%rip)        # 406fd8 <__libc_start_main@GLIBC_2.34>
  401265:	f4                   	hlt
  401266:	66 2e 0f 1f 84 00 00 	cs nopw 0x0(%rax,%rax,1)
  40126d:	00 00 00 

0000000000401270 <_dl_relocate_static_pie>:
  401270:	f3 0f 1e fa          	endbr64
  401274:	c3                   	ret
  401275:	66 2e 0f 1f 84 00 00 	cs nopw 0x0(%rax,%rax,1)
  40127c:	00 00 00 
  40127f:	90                   	nop

0000000000401280 <deregister_tm_clones>:
  401280:	b8 90 74 40 00       	mov    $0x407490,%eax
  401285:	48 3d 90 74 40 00    	cmp    $0x407490,%rax
  40128b:	74 13                	je     4012a0 <deregister_tm_clones+0x20>
  40128d:	b8 00 00 00 00       	mov    $0x0,%eax
  401292:	48 85 c0             	test   %rax,%rax
  401295:	74 09                	je     4012a0 <deregister_tm_clones+0x20>
  401297:	bf 90 74 40 00       	mov    $0x407490,%edi
  40129c:	ff e0                	jmp    *%rax
  40129e:	66 90                	xchg   %ax,%ax
  4012a0:	c3                   	ret
  4012a1:	66 66 2e 0f 1f 84 00 	data16 cs nopw 0x0(%rax,%rax,1)
  4012a8:	00 00 00 00 
  4012ac:	0f 1f 40 00          	nopl   0x0(%rax)

00000000004012b0 <register_tm_clones>:
  4012b0:	be 90 74 40 00       	mov    $0x407490,%esi
  4012b5:	48 81 ee 90 74 40 00 	sub    $0x407490,%rsi
  4012bc:	48 89 f0             	mov    %rsi,%rax
  4012bf:	48 c1 ee 3f          	shr    $0x3f,%rsi
  4012c3:	48 c1 f8 03          	sar    $0x3,%rax
  4012c7:	48 01 c6             	add    %rax,%rsi
  4012ca:	48 d1 fe             	sar    $1,%rsi
  4012cd:	74 11                	je     4012e0 <register_tm_clones+0x30>
  4012cf:	b8 00 00 00 00       	mov    $0x0,%eax
  4012d4:	48 85 c0             	test   %rax,%rax
  4012d7:	74 07                	je     4012e0 <register_tm_clones+0x30>
  4012d9:	bf 90 74 40 00       	mov    $0x407490,%edi
  4012de:	ff e0                	jmp    *%rax
  4012e0:	c3                   	ret
  4012e1:	66 66 2e 0f 1f 84 00 	data16 cs nopw 0x0(%rax,%rax,1)
  4012e8:	00 00 00 00 
  4012ec:	0f 1f 40 00          	nopl   0x0(%rax)

00000000004012f0 <__do_global_dtors_aux>:
  4012f0:	f3 0f 1e fa          	endbr64
  4012f4:	80 3d ed 61 00 00 00 	cmpb   $0x0,0x61ed(%rip)        # 4074e8 <completed.0>
  4012fb:	75 13                	jne    401310 <__do_global_dtors_aux+0x20>
  4012fd:	55                   	push   %rbp
  4012fe:	48 89 e5             	mov    %rsp,%rbp
  401301:	e8 7a ff ff ff       	call   401280 <deregister_tm_clones>
  401306:	c6 05 db 61 00 00 01 	movb   $0x1,0x61db(%rip)        # 4074e8 <completed.0>
  40130d:	5d                   	pop    %rbp
  40130e:	c3                   	ret
  40130f:	90                   	nop
  401310:	c3                   	ret
  401311:	66 66 2e 0f 1f 84 00 	data16 cs nopw 0x0(%rax,%rax,1)
  401318:	00 00 00 00 
  40131c:	0f 1f 40 00          	nopl   0x0(%rax)

0000000000401320 <frame_dummy>:
  401320:	f3 0f 1e fa          	endbr64
  401324:	eb 8a                	jmp    4012b0 <register_tm_clones>

0000000000401326 <usage>:
  401326:	50                   	push   %rax
  401327:	58                   	pop    %rax
  401328:	48 83 ec 08          	sub    $0x8,%rsp
  40132c:	48 89 fa             	mov    %rdi,%rdx
  40132f:	83 3d fa 61 00 00 00 	cmpl   $0x0,0x61fa(%rip)        # 407530 <is_checker>
  401336:	74 50                	je     401388 <usage+0x62>
  401338:	48 8d 35 c9 2c 00 00 	lea    0x2cc9(%rip),%rsi        # 404008 <_IO_stdin_used+0x8>
  40133f:	bf 02 00 00 00       	mov    $0x2,%edi
  401344:	b8 00 00 00 00       	mov    $0x0,%eax
  401349:	e8 42 fe ff ff       	call   401190 <__printf_chk@plt>
  40134e:	48 8d 3d eb 2c 00 00 	lea    0x2ceb(%rip),%rdi        # 404040 <_IO_stdin_used+0x40>
  401355:	e8 26 fd ff ff       	call   401080 <puts@plt>
  40135a:	48 8d 3d bc 31 00 00 	lea    0x31bc(%rip),%rdi        # 40451d <_IO_stdin_used+0x51d>
  401361:	e8 1a fd ff ff       	call   401080 <puts@plt>
  401366:	48 8d 3d fb 2c 00 00 	lea    0x2cfb(%rip),%rdi        # 404068 <_IO_stdin_used+0x68>
  40136d:	e8 0e fd ff ff       	call   401080 <puts@plt>
  401372:	48 8d 3d be 31 00 00 	lea    0x31be(%rip),%rdi        # 404537 <_IO_stdin_used+0x537>
  401379:	e8 02 fd ff ff       	call   401080 <puts@plt>
  40137e:	bf 00 00 00 00       	mov    $0x0,%edi
  401383:	e8 58 fe ff ff       	call   4011e0 <exit@plt>
  401388:	48 8d 35 c4 31 00 00 	lea    0x31c4(%rip),%rsi        # 404553 <_IO_stdin_used+0x553>
  40138f:	bf 02 00 00 00       	mov    $0x2,%edi
  401394:	b8 00 00 00 00       	mov    $0x0,%eax
  401399:	e8 f2 fd ff ff       	call   401190 <__printf_chk@plt>
  40139e:	48 8d 3d eb 2c 00 00 	lea    0x2ceb(%rip),%rdi        # 404090 <_IO_stdin_used+0x90>
  4013a5:	e8 d6 fc ff ff       	call   401080 <puts@plt>
  4013aa:	48 8d 3d 07 2d 00 00 	lea    0x2d07(%rip),%rdi        # 4040b8 <_IO_stdin_used+0xb8>
  4013b1:	e8 ca fc ff ff       	call   401080 <puts@plt>
  4013b6:	48 8d 3d b4 31 00 00 	lea    0x31b4(%rip),%rdi        # 404571 <_IO_stdin_used+0x571>
  4013bd:	e8 be fc ff ff       	call   401080 <puts@plt>
  4013c2:	eb ba                	jmp    40137e <usage+0x58>

00000000004013c4 <initialize_target>:
  4013c4:	55                   	push   %rbp
  4013c5:	53                   	push   %rbx
  4013c6:	48 81 ec 00 10 00 00 	sub    $0x1000,%rsp
  4013cd:	48 83 0c 24 00       	orq    $0x0,(%rsp)
  4013d2:	48 81 ec 00 10 00 00 	sub    $0x1000,%rsp
  4013d9:	48 83 0c 24 00       	orq    $0x0,(%rsp)
  4013de:	48 83 ec 18          	sub    $0x18,%rsp
  4013e2:	89 f5                	mov    %esi,%ebp
  4013e4:	64 48 8b 04 25 28 00 	mov    %fs:0x28,%rax
  4013eb:	00 00 
  4013ed:	48 89 84 24 08 20 00 	mov    %rax,0x2008(%rsp)
  4013f4:	00 
  4013f5:	31 c0                	xor    %eax,%eax
  4013f7:	89 3d 23 61 00 00    	mov    %edi,0x6123(%rip)        # 407520 <check_level>
  4013fd:	8b 3d 2d 5d 00 00    	mov    0x5d2d(%rip),%edi        # 407130 <target_id>
  401403:	e8 9b 21 00 00       	call   4035a3 <gencookie>
  401408:	89 c7                	mov    %eax,%edi
  40140a:	89 05 1c 61 00 00    	mov    %eax,0x611c(%rip)        # 40752c <cookie>
  401410:	e8 8e 21 00 00       	call   4035a3 <gencookie>
  401415:	89 05 0d 61 00 00    	mov    %eax,0x610d(%rip)        # 407528 <authkey>
  40141b:	8b 05 0f 5d 00 00    	mov    0x5d0f(%rip),%eax        # 407130 <target_id>
  401421:	8d 78 01             	lea    0x1(%rax),%edi
  401424:	e8 17 fc ff ff       	call   401040 <srandom@plt>
  401429:	e8 32 fd ff ff       	call   401160 <random@plt>
  40142e:	89 c7                	mov    %eax,%edi
  401430:	e8 07 03 00 00       	call   40173c <scramble>
  401435:	89 c3                	mov    %eax,%ebx
  401437:	85 ed                	test   %ebp,%ebp
  401439:	75 50                	jne    40148b <initialize_target+0xc7>
  40143b:	b8 00 00 00 00       	mov    $0x0,%eax
  401440:	01 d8                	add    %ebx,%eax
  401442:	0f b7 c0             	movzwl %ax,%eax
  401445:	8d 04 c5 00 01 00 00 	lea    0x100(,%rax,8),%eax
  40144c:	89 c0                	mov    %eax,%eax
  40144e:	48 89 05 33 60 00 00 	mov    %rax,0x6033(%rip)        # 407488 <buf_offset>
  401455:	c6 05 ec 6c 00 00 72 	movb   $0x72,0x6cec(%rip)        # 408148 <target_prefix>
  40145c:	83 3d 1d 60 00 00 00 	cmpl   $0x0,0x601d(%rip)        # 407480 <notify>
  401463:	74 09                	je     40146e <initialize_target+0xaa>
  401465:	83 3d c4 60 00 00 00 	cmpl   $0x0,0x60c4(%rip)        # 407530 <is_checker>
  40146c:	74 35                	je     4014a3 <initialize_target+0xdf>
  40146e:	48 8b 84 24 08 20 00 	mov    0x2008(%rsp),%rax
  401475:	00 
  401476:	64 48 2b 04 25 28 00 	sub    %fs:0x28,%rax
  40147d:	00 00 
  40147f:	75 51                	jne    4014d2 <initialize_target+0x10e>
  401481:	48 81 c4 18 20 00 00 	add    $0x2018,%rsp
  401488:	5b                   	pop    %rbx
  401489:	5d                   	pop    %rbp
  40148a:	c3                   	ret
  40148b:	bf 00 00 00 00       	mov    $0x0,%edi
  401490:	e8 bb fc ff ff       	call   401150 <time@plt>
  401495:	89 c7                	mov    %eax,%edi
  401497:	e8 a4 fb ff ff       	call   401040 <srandom@plt>
  40149c:	e8 bf fc ff ff       	call   401160 <random@plt>
  4014a1:	eb 9d                	jmp    401440 <initialize_target+0x7c>
  4014a3:	48 89 e7             	mov    %rsp,%rdi
  4014a6:	e8 2f 1e 00 00       	call   4032da <init_driver>
  4014ab:	85 c0                	test   %eax,%eax
  4014ad:	79 bf                	jns    40146e <initialize_target+0xaa>
  4014af:	48 89 e2             	mov    %rsp,%rdx
  4014b2:	48 8d 35 2f 2c 00 00 	lea    0x2c2f(%rip),%rsi        # 4040e8 <_IO_stdin_used+0xe8>
  4014b9:	bf 02 00 00 00       	mov    $0x2,%edi
  4014be:	b8 00 00 00 00       	mov    $0x0,%eax
  4014c3:	e8 c8 fc ff ff       	call   401190 <__printf_chk@plt>
  4014c8:	bf 08 00 00 00       	mov    $0x8,%edi
  4014cd:	e8 0e fd ff ff       	call   4011e0 <exit@plt>
  4014d2:	e8 7f 11 00 00       	call   402656 <__stack_chk_fail>

00000000004014d7 <main>:
  4014d7:	f3 0f 1e fa          	endbr64
  4014db:	41 56                	push   %r14
  4014dd:	41 55                	push   %r13
  4014df:	41 54                	push   %r12
  4014e1:	55                   	push   %rbp
  4014e2:	53                   	push   %rbx
  4014e3:	48 83 ec 60          	sub    $0x60,%rsp
  4014e7:	89 fd                	mov    %edi,%ebp
  4014e9:	48 89 f3             	mov    %rsi,%rbx
  4014ec:	64 48 8b 04 25 28 00 	mov    %fs:0x28,%rax
  4014f3:	00 00 
  4014f5:	48 89 44 24 58       	mov    %rax,0x58(%rsp)
  4014fa:	31 c0                	xor    %eax,%eax
  4014fc:	48 b8 53 70 69 72 69 	movabs $0x6465746972697053,%rax
  401503:	74 65 64 
  401506:	48 89 04 24          	mov    %rax,(%rsp)
  40150a:	48 b8 64 41 77 61 79 	movabs $0x4e437961774164,%rax
  401511:	43 4e 00 
  401514:	48 89 44 24 07       	mov    %rax,0x7(%rsp)
  401519:	48 c7 c6 45 25 40 00 	mov    $0x402545,%rsi
  401520:	bf 0b 00 00 00       	mov    $0xb,%edi
  401525:	e8 d6 fb ff ff       	call   401100 <signal@plt>
  40152a:	48 c7 c6 eb 24 40 00 	mov    $0x4024eb,%rsi
  401531:	bf 07 00 00 00       	mov    $0x7,%edi
  401536:	e8 c5 fb ff ff       	call   401100 <signal@plt>
  40153b:	48 c7 c6 9f 25 40 00 	mov    $0x40259f,%rsi
  401542:	bf 04 00 00 00       	mov    $0x4,%edi
  401547:	e8 b4 fb ff ff       	call   401100 <signal@plt>
  40154c:	83 3d dd 5f 00 00 00 	cmpl   $0x0,0x5fdd(%rip)        # 407530 <is_checker>
  401553:	75 26                	jne    40157b <main+0xa4>
  401555:	4c 8d 25 2e 30 00 00 	lea    0x302e(%rip),%r12        # 40458a <_IO_stdin_used+0x58a>
  40155c:	48 8b 05 3d 5f 00 00 	mov    0x5f3d(%rip),%rax        # 4074a0 <stdin@GLIBC_2.2.5>
  401563:	48 89 05 ae 5f 00 00 	mov    %rax,0x5fae(%rip)        # 407518 <infile>
  40156a:	41 bd 00 00 00 00    	mov    $0x0,%r13d
  401570:	41 be 00 00 00 00    	mov    $0x0,%r14d
  401576:	e9 8d 00 00 00       	jmp    401608 <main+0x131>
  40157b:	48 c7 c6 f9 25 40 00 	mov    $0x4025f9,%rsi
  401582:	bf 0e 00 00 00       	mov    $0xe,%edi
  401587:	e8 74 fb ff ff       	call   401100 <signal@plt>
  40158c:	bf 02 00 00 00       	mov    $0x2,%edi
  401591:	e8 2a fb ff ff       	call   4010c0 <alarm@plt>
  401596:	4c 8d 25 f2 2f 00 00 	lea    0x2ff2(%rip),%r12        # 40458f <_IO_stdin_used+0x58f>
  40159d:	eb bd                	jmp    40155c <main+0x85>
  40159f:	48 8b 3b             	mov    (%rbx),%rdi
  4015a2:	e8 7f fd ff ff       	call   401326 <usage>
  4015a7:	48 8d 35 5b 30 00 00 	lea    0x305b(%rip),%rsi        # 404609 <_IO_stdin_used+0x609>
  4015ae:	48 8b 3d 0b 5f 00 00 	mov    0x5f0b(%rip),%rdi        # 4074c0 <optarg@GLIBC_2.2.5>
  4015b5:	e8 e6 fb ff ff       	call   4011a0 <fopen@plt>
  4015ba:	48 89 05 57 5f 00 00 	mov    %rax,0x5f57(%rip)        # 407518 <infile>
  4015c1:	48 85 c0             	test   %rax,%rax
  4015c4:	75 42                	jne    401608 <main+0x131>
  4015c6:	48 8b 0d f3 5e 00 00 	mov    0x5ef3(%rip),%rcx        # 4074c0 <optarg@GLIBC_2.2.5>
  4015cd:	48 8d 15 c5 2f 00 00 	lea    0x2fc5(%rip),%rdx        # 404599 <_IO_stdin_used+0x599>
  4015d4:	be 02 00 00 00       	mov    $0x2,%esi
  4015d9:	48 8b 3d 00 5f 00 00 	mov    0x5f00(%rip),%rdi        # 4074e0 <stderr@GLIBC_2.2.5>
  4015e0:	e8 1b fc ff ff       	call   401200 <__fprintf_chk@plt>
  4015e5:	b8 01 00 00 00       	mov    $0x1,%eax
  4015ea:	e9 2b 01 00 00       	jmp    40171a <main+0x243>
  4015ef:	ba 10 00 00 00       	mov    $0x10,%edx
  4015f4:	be 00 00 00 00       	mov    $0x0,%esi
  4015f9:	48 8b 3d c0 5e 00 00 	mov    0x5ec0(%rip),%rdi        # 4074c0 <optarg@GLIBC_2.2.5>
  401600:	e8 bb fb ff ff       	call   4011c0 <strtoul@plt>
  401605:	41 89 c6             	mov    %eax,%r14d
  401608:	4c 89 e2             	mov    %r12,%rdx
  40160b:	48 89 de             	mov    %rbx,%rsi
  40160e:	89 ef                	mov    %ebp,%edi
  401610:	e8 9b fb ff ff       	call   4011b0 <getopt@plt>
  401615:	3c ff                	cmp    $0xff,%al
  401617:	74 7a                	je     401693 <main+0x1bc>
  401619:	8d 50 9f             	lea    -0x61(%rax),%edx
  40161c:	80 fa 14             	cmp    $0x14,%dl
  40161f:	77 51                	ja     401672 <main+0x19b>
  401621:	0f b6 d2             	movzbl %dl,%edx
  401624:	48 8d 0d 75 31 00 00 	lea    0x3175(%rip),%rcx        # 4047a0 <_IO_stdin_used+0x7a0>
  40162b:	48 63 14 91          	movslq (%rcx,%rdx,4),%rdx
  40162f:	48 01 ca             	add    %rcx,%rdx
  401632:	3e ff e2             	notrack jmp *%rdx
  401635:	ba 0a 00 00 00       	mov    $0xa,%edx
  40163a:	be 00 00 00 00       	mov    $0x0,%esi
  40163f:	48 8b 3d 7a 5e 00 00 	mov    0x5e7a(%rip),%rdi        # 4074c0 <optarg@GLIBC_2.2.5>
  401646:	e8 e5 fa ff ff       	call   401130 <strtol@plt>
  40164b:	41 89 c5             	mov    %eax,%r13d
  40164e:	eb b8                	jmp    401608 <main+0x131>
  401650:	c7 05 26 5e 00 00 00 	movl   $0x0,0x5e26(%rip)        # 407480 <notify>
  401657:	00 00 00 
  40165a:	eb ac                	jmp    401608 <main+0x131>
  40165c:	48 89 e7             	mov    %rsp,%rdi
  40165f:	ba 50 00 00 00       	mov    $0x50,%edx
  401664:	48 8b 35 55 5e 00 00 	mov    0x5e55(%rip),%rsi        # 4074c0 <optarg@GLIBC_2.2.5>
  40166b:	e8 e0 f9 ff ff       	call   401050 <strncpy@plt>
  401670:	eb 96                	jmp    401608 <main+0x131>
  401672:	0f be d0             	movsbl %al,%edx
  401675:	48 8d 35 3a 2f 00 00 	lea    0x2f3a(%rip),%rsi        # 4045b6 <_IO_stdin_used+0x5b6>
  40167c:	bf 02 00 00 00       	mov    $0x2,%edi
  401681:	b8 00 00 00 00       	mov    $0x0,%eax
  401686:	e8 05 fb ff ff       	call   401190 <__printf_chk@plt>
  40168b:	48 8b 3b             	mov    (%rbx),%rdi
  40168e:	e8 93 fc ff ff       	call   401326 <usage>
  401693:	be 01 00 00 00       	mov    $0x1,%esi
  401698:	44 89 ef             	mov    %r13d,%edi
  40169b:	e8 24 fd ff ff       	call   4013c4 <initialize_target>
  4016a0:	83 3d 89 5e 00 00 00 	cmpl   $0x0,0x5e89(%rip)        # 407530 <is_checker>
  4016a7:	74 3f                	je     4016e8 <main+0x211>
  4016a9:	44 39 35 78 5e 00 00 	cmp    %r14d,0x5e78(%rip)        # 407528 <authkey>
  4016b0:	75 13                	jne    4016c5 <main+0x1ee>
  4016b2:	48 89 e7             	mov    %rsp,%rdi
  4016b5:	48 8b 35 84 5a 00 00 	mov    0x5a84(%rip),%rsi        # 407140 <user_id>
  4016bc:	e8 2f fa ff ff       	call   4010f0 <strcmp@plt>
  4016c1:	85 c0                	test   %eax,%eax
  4016c3:	74 23                	je     4016e8 <main+0x211>
  4016c5:	44 89 f2             	mov    %r14d,%edx
  4016c8:	48 8d 35 41 2a 00 00 	lea    0x2a41(%rip),%rsi        # 404110 <_IO_stdin_used+0x110>
  4016cf:	bf 02 00 00 00       	mov    $0x2,%edi
  4016d4:	b8 00 00 00 00       	mov    $0x0,%eax
  4016d9:	e8 b2 fa ff ff       	call   401190 <__printf_chk@plt>
  4016de:	b8 00 00 00 00       	mov    $0x0,%eax
  4016e3:	e8 41 0a 00 00       	call   402129 <check_fail>
  4016e8:	8b 15 3e 5e 00 00    	mov    0x5e3e(%rip),%edx        # 40752c <cookie>
  4016ee:	48 8d 35 d4 2e 00 00 	lea    0x2ed4(%rip),%rsi        # 4045c9 <_IO_stdin_used+0x5c9>
  4016f5:	bf 02 00 00 00       	mov    $0x2,%edi
  4016fa:	b8 00 00 00 00       	mov    $0x0,%eax
  4016ff:	e8 8c fa ff ff       	call   401190 <__printf_chk@plt>
  401704:	be 00 00 00 00       	mov    $0x0,%esi
  401709:	48 8b 3d 78 5d 00 00 	mov    0x5d78(%rip),%rdi        # 407488 <buf_offset>
  401710:	e8 9b 0f 00 00       	call   4026b0 <launch>
  401715:	b8 00 00 00 00       	mov    $0x0,%eax
  40171a:	48 8b 54 24 58       	mov    0x58(%rsp),%rdx
  40171f:	64 48 2b 14 25 28 00 	sub    %fs:0x28,%rdx
  401726:	00 00 
  401728:	75 0d                	jne    401737 <main+0x260>
  40172a:	48 83 c4 60          	add    $0x60,%rsp
  40172e:	5b                   	pop    %rbx
  40172f:	5d                   	pop    %rbp
  401730:	41 5c                	pop    %r12
  401732:	41 5d                	pop    %r13
  401734:	41 5e                	pop    %r14
  401736:	c3                   	ret
  401737:	e8 1a 0f 00 00       	call   402656 <__stack_chk_fail>

000000000040173c <scramble>:
  40173c:	f3 0f 1e fa          	endbr64
  401740:	48 83 ec 38          	sub    $0x38,%rsp
  401744:	64 48 8b 04 25 28 00 	mov    %fs:0x28,%rax
  40174b:	00 00 
  40174d:	48 89 44 24 28       	mov    %rax,0x28(%rsp)
  401752:	31 c0                	xor    %eax,%eax
  401754:	eb 10                	jmp    401766 <scramble+0x2a>
  401756:	69 d0 bb 40 00 00    	imul   $0x40bb,%eax,%edx
  40175c:	01 fa                	add    %edi,%edx
  40175e:	89 c1                	mov    %eax,%ecx
  401760:	89 14 8c             	mov    %edx,(%rsp,%rcx,4)
  401763:	83 c0 01             	add    $0x1,%eax
  401766:	83 f8 09             	cmp    $0x9,%eax
  401769:	76 eb                	jbe    401756 <scramble+0x1a>
  40176b:	8b 44 24 04          	mov    0x4(%rsp),%eax
  40176f:	69 c0 fe ea 00 00    	imul   $0xeafe,%eax,%eax
  401775:	89 44 24 04          	mov    %eax,0x4(%rsp)
  401779:	8b 44 24 10          	mov    0x10(%rsp),%eax
  40177d:	69 c0 1c 10 00 00    	imul   $0x101c,%eax,%eax
  401783:	89 44 24 10          	mov    %eax,0x10(%rsp)
  401787:	8b 44 24 08          	mov    0x8(%rsp),%eax
  40178b:	69 c0 2a 36 00 00    	imul   $0x362a,%eax,%eax
  401791:	89 44 24 08          	mov    %eax,0x8(%rsp)
  401795:	8b 44 24 24          	mov    0x24(%rsp),%eax
  401799:	69 c0 32 a3 00 00    	imul   $0xa332,%eax,%eax
  40179f:	89 44 24 24          	mov    %eax,0x24(%rsp)
  4017a3:	8b 44 24 24          	mov    0x24(%rsp),%eax
  4017a7:	69 c0 d2 35 00 00    	imul   $0x35d2,%eax,%eax
  4017ad:	89 44 24 24          	mov    %eax,0x24(%rsp)
  4017b1:	8b 44 24 10          	mov    0x10(%rsp),%eax
  4017b5:	69 c0 02 4e 00 00    	imul   $0x4e02,%eax,%eax
  4017bb:	89 44 24 10          	mov    %eax,0x10(%rsp)
  4017bf:	8b 44 24 14          	mov    0x14(%rsp),%eax
  4017c3:	69 c0 f6 4e 00 00    	imul   $0x4ef6,%eax,%eax
  4017c9:	89 44 24 14          	mov    %eax,0x14(%rsp)
  4017cd:	8b 44 24 1c          	mov    0x1c(%rsp),%eax
  4017d1:	69 c0 d9 e0 00 00    	imul   $0xe0d9,%eax,%eax
  4017d7:	89 44 24 1c          	mov    %eax,0x1c(%rsp)
  4017db:	8b 44 24 1c          	mov    0x1c(%rsp),%eax
  4017df:	69 c0 99 ff 00 00    	imul   $0xff99,%eax,%eax
  4017e5:	89 44 24 1c          	mov    %eax,0x1c(%rsp)
  4017e9:	8b 44 24 1c          	mov    0x1c(%rsp),%eax
  4017ed:	69 c0 e7 92 00 00    	imul   $0x92e7,%eax,%eax
  4017f3:	89 44 24 1c          	mov    %eax,0x1c(%rsp)
  4017f7:	8b 44 24 24          	mov    0x24(%rsp),%eax
  4017fb:	69 c0 85 40 00 00    	imul   $0x4085,%eax,%eax
  401801:	89 44 24 24          	mov    %eax,0x24(%rsp)
  401805:	8b 44 24 24          	mov    0x24(%rsp),%eax
  401809:	69 c0 99 ad 00 00    	imul   $0xad99,%eax,%eax
  40180f:	89 44 24 24          	mov    %eax,0x24(%rsp)
  401813:	8b 44 24 24          	mov    0x24(%rsp),%eax
  401817:	69 c0 87 4a 00 00    	imul   $0x4a87,%eax,%eax
  40181d:	89 44 24 24          	mov    %eax,0x24(%rsp)
  401821:	8b 44 24 10          	mov    0x10(%rsp),%eax
  401825:	69 c0 4d 7e 00 00    	imul   $0x7e4d,%eax,%eax
  40182b:	89 44 24 10          	mov    %eax,0x10(%rsp)
  40182f:	8b 44 24 18          	mov    0x18(%rsp),%eax
  401833:	69 c0 28 fc 00 00    	imul   $0xfc28,%eax,%eax
  401839:	89 44 24 18          	mov    %eax,0x18(%rsp)
  40183d:	8b 44 24 24          	mov    0x24(%rsp),%eax
  401841:	69 c0 f3 89 00 00    	imul   $0x89f3,%eax,%eax
  401847:	89 44 24 24          	mov    %eax,0x24(%rsp)
  40184b:	8b 44 24 04          	mov    0x4(%rsp),%eax
  40184f:	69 c0 0b 44 00 00    	imul   $0x440b,%eax,%eax
  401855:	89 44 24 04          	mov    %eax,0x4(%rsp)
  401859:	8b 44 24 14          	mov    0x14(%rsp),%eax
  40185d:	69 c0 11 b3 00 00    	imul   $0xb311,%eax,%eax
  401863:	89 44 24 14          	mov    %eax,0x14(%rsp)
  401867:	8b 44 24 1c          	mov    0x1c(%rsp),%eax
  40186b:	69 c0 d7 88 00 00    	imul   $0x88d7,%eax,%eax
  401871:	89 44 24 1c          	mov    %eax,0x1c(%rsp)
  401875:	8b 44 24 10          	mov    0x10(%rsp),%eax
  401879:	69 c0 e0 eb 00 00    	imul   $0xebe0,%eax,%eax
  40187f:	89 44 24 10          	mov    %eax,0x10(%rsp)
  401883:	8b 44 24 18          	mov    0x18(%rsp),%eax
  401887:	69 c0 6a c0 00 00    	imul   $0xc06a,%eax,%eax
  40188d:	89 44 24 18          	mov    %eax,0x18(%rsp)
  401891:	8b 44 24 18          	mov    0x18(%rsp),%eax
  401895:	69 c0 c4 41 00 00    	imul   $0x41c4,%eax,%eax
  40189b:	89 44 24 18          	mov    %eax,0x18(%rsp)
  40189f:	8b 44 24 0c          	mov    0xc(%rsp),%eax
  4018a3:	69 c0 bc cb 00 00    	imul   $0xcbbc,%eax,%eax
  4018a9:	89 44 24 0c          	mov    %eax,0xc(%rsp)
  4018ad:	8b 44 24 0c          	mov    0xc(%rsp),%eax
  4018b1:	69 c0 17 fb 00 00    	imul   $0xfb17,%eax,%eax
  4018b7:	89 44 24 0c          	mov    %eax,0xc(%rsp)
  4018bb:	8b 44 24 14          	mov    0x14(%rsp),%eax
  4018bf:	69 c0 38 59 00 00    	imul   $0x5938,%eax,%eax
  4018c5:	89 44 24 14          	mov    %eax,0x14(%rsp)
  4018c9:	8b 44 24 1c          	mov    0x1c(%rsp),%eax
  4018cd:	69 c0 e7 62 00 00    	imul   $0x62e7,%eax,%eax
  4018d3:	89 44 24 1c          	mov    %eax,0x1c(%rsp)
  4018d7:	8b 44 24 08          	mov    0x8(%rsp),%eax
  4018db:	69 c0 88 19 00 00    	imul   $0x1988,%eax,%eax
  4018e1:	89 44 24 08          	mov    %eax,0x8(%rsp)
  4018e5:	8b 44 24 24          	mov    0x24(%rsp),%eax
  4018e9:	69 c0 e8 8b 00 00    	imul   $0x8be8,%eax,%eax
  4018ef:	89 44 24 24          	mov    %eax,0x24(%rsp)
  4018f3:	8b 44 24 04          	mov    0x4(%rsp),%eax
  4018f7:	69 c0 a2 06 00 00    	imul   $0x6a2,%eax,%eax
  4018fd:	89 44 24 04          	mov    %eax,0x4(%rsp)
  401901:	8b 04 24             	mov    (%rsp),%eax
  401904:	69 c0 47 ad 00 00    	imul   $0xad47,%eax,%eax
  40190a:	89 04 24             	mov    %eax,(%rsp)
  40190d:	8b 44 24 08          	mov    0x8(%rsp),%eax
  401911:	69 c0 28 18 00 00    	imul   $0x1828,%eax,%eax
  401917:	89 44 24 08          	mov    %eax,0x8(%rsp)
  40191b:	8b 44 24 04          	mov    0x4(%rsp),%eax
  40191f:	69 c0 f1 e9 00 00    	imul   $0xe9f1,%eax,%eax
  401925:	89 44 24 04          	mov    %eax,0x4(%rsp)
  401929:	8b 44 24 10          	mov    0x10(%rsp),%eax
  40192d:	69 c0 4a d1 00 00    	imul   $0xd14a,%eax,%eax
  401933:	89 44 24 10          	mov    %eax,0x10(%rsp)
  401937:	8b 44 24 24          	mov    0x24(%rsp),%eax
  40193b:	69 c0 69 d6 00 00    	imul   $0xd669,%eax,%eax
  401941:	89 44 24 24          	mov    %eax,0x24(%rsp)
  401945:	8b 44 24 0c          	mov    0xc(%rsp),%eax
  401949:	69 c0 46 f3 00 00    	imul   $0xf346,%eax,%eax
  40194f:	89 44 24 0c          	mov    %eax,0xc(%rsp)
  401953:	8b 44 24 08          	mov    0x8(%rsp),%eax
  401957:	69 c0 cb 18 00 00    	imul   $0x18cb,%eax,%eax
  40195d:	89 44 24 08          	mov    %eax,0x8(%rsp)
  401961:	8b 44 24 14          	mov    0x14(%rsp),%eax
  401965:	69 c0 2c fc 00 00    	imul   $0xfc2c,%eax,%eax
  40196b:	89 44 24 14          	mov    %eax,0x14(%rsp)
  40196f:	8b 44 24 18          	mov    0x18(%rsp),%eax
  401973:	69 c0 11 c3 00 00    	imul   $0xc311,%eax,%eax
  401979:	89 44 24 18          	mov    %eax,0x18(%rsp)
  40197d:	8b 44 24 10          	mov    0x10(%rsp),%eax
  401981:	69 c0 2c 7d 00 00    	imul   $0x7d2c,%eax,%eax
  401987:	89 44 24 10          	mov    %eax,0x10(%rsp)
  40198b:	8b 44 24 04          	mov    0x4(%rsp),%eax
  40198f:	69 c0 3d 93 00 00    	imul   $0x933d,%eax,%eax
  401995:	89 44 24 04          	mov    %eax,0x4(%rsp)
  401999:	8b 44 24 08          	mov    0x8(%rsp),%eax
  40199d:	69 c0 27 4c 00 00    	imul   $0x4c27,%eax,%eax
  4019a3:	89 44 24 08          	mov    %eax,0x8(%rsp)
  4019a7:	8b 44 24 1c          	mov    0x1c(%rsp),%eax
  4019ab:	69 c0 22 70 00 00    	imul   $0x7022,%eax,%eax
  4019b1:	89 44 24 1c          	mov    %eax,0x1c(%rsp)
  4019b5:	8b 44 24 04          	mov    0x4(%rsp),%eax
  4019b9:	69 c0 a5 06 00 00    	imul   $0x6a5,%eax,%eax
  4019bf:	89 44 24 04          	mov    %eax,0x4(%rsp)
  4019c3:	8b 44 24 1c          	mov    0x1c(%rsp),%eax
  4019c7:	69 c0 be c9 00 00    	imul   $0xc9be,%eax,%eax
  4019cd:	89 44 24 1c          	mov    %eax,0x1c(%rsp)
  4019d1:	8b 44 24 0c          	mov    0xc(%rsp),%eax
  4019d5:	69 c0 40 06 00 00    	imul   $0x640,%eax,%eax
  4019db:	89 44 24 0c          	mov    %eax,0xc(%rsp)
  4019df:	8b 44 24 10          	mov    0x10(%rsp),%eax
  4019e3:	69 c0 11 10 00 00    	imul   $0x1011,%eax,%eax
  4019e9:	89 44 24 10          	mov    %eax,0x10(%rsp)
  4019ed:	8b 44 24 24          	mov    0x24(%rsp),%eax
  4019f1:	69 c0 40 ae 00 00    	imul   $0xae40,%eax,%eax
  4019f7:	89 44 24 24          	mov    %eax,0x24(%rsp)
  4019fb:	8b 44 24 08          	mov    0x8(%rsp),%eax
  4019ff:	69 c0 9c 7a 00 00    	imul   $0x7a9c,%eax,%eax
  401a05:	89 44 24 08          	mov    %eax,0x8(%rsp)
  401a09:	8b 44 24 14          	mov    0x14(%rsp),%eax
  401a0d:	69 c0 05 97 00 00    	imul   $0x9705,%eax,%eax
  401a13:	89 44 24 14          	mov    %eax,0x14(%rsp)
  401a17:	8b 44 24 24          	mov    0x24(%rsp),%eax
  401a1b:	69 c0 ab d9 00 00    	imul   $0xd9ab,%eax,%eax
  401a21:	89 44 24 24          	mov    %eax,0x24(%rsp)
  401a25:	8b 44 24 1c          	mov    0x1c(%rsp),%eax
  401a29:	69 c0 4e 13 00 00    	imul   $0x134e,%eax,%eax
  401a2f:	89 44 24 1c          	mov    %eax,0x1c(%rsp)
  401a33:	8b 44 24 08          	mov    0x8(%rsp),%eax
  401a37:	69 c0 fc 3d 00 00    	imul   $0x3dfc,%eax,%eax
  401a3d:	89 44 24 08          	mov    %eax,0x8(%rsp)
  401a41:	8b 44 24 14          	mov    0x14(%rsp),%eax
  401a45:	69 c0 06 4d 00 00    	imul   $0x4d06,%eax,%eax
  401a4b:	89 44 24 14          	mov    %eax,0x14(%rsp)
  401a4f:	8b 44 24 14          	mov    0x14(%rsp),%eax
  401a53:	69 c0 62 d7 00 00    	imul   $0xd762,%eax,%eax
  401a59:	89 44 24 14          	mov    %eax,0x14(%rsp)
  401a5d:	8b 44 24 20          	mov    0x20(%rsp),%eax
  401a61:	69 c0 35 bf 00 00    	imul   $0xbf35,%eax,%eax
  401a67:	89 44 24 20          	mov    %eax,0x20(%rsp)
  401a6b:	8b 44 24 0c          	mov    0xc(%rsp),%eax
  401a6f:	69 c0 98 a0 00 00    	imul   $0xa098,%eax,%eax
  401a75:	89 44 24 0c          	mov    %eax,0xc(%rsp)
  401a79:	8b 04 24             	mov    (%rsp),%eax
  401a7c:	69 c0 c4 60 00 00    	imul   $0x60c4,%eax,%eax
  401a82:	89 04 24             	mov    %eax,(%rsp)
  401a85:	8b 44 24 14          	mov    0x14(%rsp),%eax
  401a89:	69 c0 0c 71 00 00    	imul   $0x710c,%eax,%eax
  401a8f:	89 44 24 14          	mov    %eax,0x14(%rsp)
  401a93:	8b 44 24 24          	mov    0x24(%rsp),%eax
  401a97:	69 c0 c5 0c 00 00    	imul   $0xcc5,%eax,%eax
  401a9d:	89 44 24 24          	mov    %eax,0x24(%rsp)
  401aa1:	8b 44 24 18          	mov    0x18(%rsp),%eax
  401aa5:	69 c0 b0 74 00 00    	imul   $0x74b0,%eax,%eax
  401aab:	89 44 24 18          	mov    %eax,0x18(%rsp)
  401aaf:	8b 44 24 10          	mov    0x10(%rsp),%eax
  401ab3:	69 c0 d0 b1 00 00    	imul   $0xb1d0,%eax,%eax
  401ab9:	89 44 24 10          	mov    %eax,0x10(%rsp)
  401abd:	8b 04 24             	mov    (%rsp),%eax
  401ac0:	69 c0 6e 31 00 00    	imul   $0x316e,%eax,%eax
  401ac6:	89 04 24             	mov    %eax,(%rsp)
  401ac9:	8b 04 24             	mov    (%rsp),%eax
  401acc:	69 c0 c5 7e 00 00    	imul   $0x7ec5,%eax,%eax
  401ad2:	89 04 24             	mov    %eax,(%rsp)
  401ad5:	8b 04 24             	mov    (%rsp),%eax
  401ad8:	69 c0 9a df 00 00    	imul   $0xdf9a,%eax,%eax
  401ade:	89 04 24             	mov    %eax,(%rsp)
  401ae1:	8b 44 24 18          	mov    0x18(%rsp),%eax
  401ae5:	69 c0 0f fd 00 00    	imul   $0xfd0f,%eax,%eax
  401aeb:	89 44 24 18          	mov    %eax,0x18(%rsp)
  401aef:	8b 44 24 18          	mov    0x18(%rsp),%eax
  401af3:	69 c0 16 a0 00 00    	imul   $0xa016,%eax,%eax
  401af9:	89 44 24 18          	mov    %eax,0x18(%rsp)
  401afd:	8b 44 24 10          	mov    0x10(%rsp),%eax
  401b01:	69 c0 bd ab 00 00    	imul   $0xabbd,%eax,%eax
  401b07:	89 44 24 10          	mov    %eax,0x10(%rsp)
  401b0b:	8b 44 24 24          	mov    0x24(%rsp),%eax
  401b0f:	69 c0 d8 1f 00 00    	imul   $0x1fd8,%eax,%eax
  401b15:	89 44 24 24          	mov    %eax,0x24(%rsp)
  401b19:	8b 44 24 24          	mov    0x24(%rsp),%eax
  401b1d:	69 c0 1f df 00 00    	imul   $0xdf1f,%eax,%eax
  401b23:	89 44 24 24          	mov    %eax,0x24(%rsp)
  401b27:	8b 44 24 08          	mov    0x8(%rsp),%eax
  401b2b:	69 c0 f6 c2 00 00    	imul   $0xc2f6,%eax,%eax
  401b31:	89 44 24 08          	mov    %eax,0x8(%rsp)
  401b35:	8b 44 24 10          	mov    0x10(%rsp),%eax
  401b39:	69 c0 db 61 00 00    	imul   $0x61db,%eax,%eax
  401b3f:	89 44 24 10          	mov    %eax,0x10(%rsp)
  401b43:	8b 44 24 24          	mov    0x24(%rsp),%eax
  401b47:	69 c0 b1 a9 00 00    	imul   $0xa9b1,%eax,%eax
  401b4d:	89 44 24 24          	mov    %eax,0x24(%rsp)
  401b51:	8b 44 24 20          	mov    0x20(%rsp),%eax
  401b55:	69 c0 49 74 00 00    	imul   $0x7449,%eax,%eax
  401b5b:	89 44 24 20          	mov    %eax,0x20(%rsp)
  401b5f:	8b 44 24 18          	mov    0x18(%rsp),%eax
  401b63:	69 c0 09 2a 00 00    	imul   $0x2a09,%eax,%eax
  401b69:	89 44 24 18          	mov    %eax,0x18(%rsp)
  401b6d:	8b 44 24 04          	mov    0x4(%rsp),%eax
  401b71:	69 c0 89 55 00 00    	imul   $0x5589,%eax,%eax
  401b77:	89 44 24 04          	mov    %eax,0x4(%rsp)
  401b7b:	8b 44 24 0c          	mov    0xc(%rsp),%eax
  401b7f:	69 c0 14 94 00 00    	imul   $0x9414,%eax,%eax
  401b85:	89 44 24 0c          	mov    %eax,0xc(%rsp)
  401b89:	8b 44 24 1c          	mov    0x1c(%rsp),%eax
  401b8d:	69 c0 7b 23 00 00    	imul   $0x237b,%eax,%eax
  401b93:	89 44 24 1c          	mov    %eax,0x1c(%rsp)
  401b97:	8b 44 24 08          	mov    0x8(%rsp),%eax
  401b9b:	69 c0 6a 67 00 00    	imul   $0x676a,%eax,%eax
  401ba1:	89 44 24 08          	mov    %eax,0x8(%rsp)
  401ba5:	8b 04 24             	mov    (%rsp),%eax
  401ba8:	69 c0 8d 71 00 00    	imul   $0x718d,%eax,%eax
  401bae:	89 04 24             	mov    %eax,(%rsp)
  401bb1:	8b 44 24 14          	mov    0x14(%rsp),%eax
  401bb5:	69 c0 0b b8 00 00    	imul   $0xb80b,%eax,%eax
  401bbb:	89 44 24 14          	mov    %eax,0x14(%rsp)
  401bbf:	8b 44 24 14          	mov    0x14(%rsp),%eax
  401bc3:	6b c0 4a             	imul   $0x4a,%eax,%eax
  401bc6:	89 44 24 14          	mov    %eax,0x14(%rsp)
  401bca:	8b 44 24 0c          	mov    0xc(%rsp),%eax
  401bce:	69 c0 fb 7e 00 00    	imul   $0x7efb,%eax,%eax
  401bd4:	89 44 24 0c          	mov    %eax,0xc(%rsp)
  401bd8:	8b 44 24 0c          	mov    0xc(%rsp),%eax
  401bdc:	69 c0 33 36 00 00    	imul   $0x3633,%eax,%eax
  401be2:	89 44 24 0c          	mov    %eax,0xc(%rsp)
  401be6:	8b 44 24 08          	mov    0x8(%rsp),%eax
  401bea:	69 c0 cb a4 00 00    	imul   $0xa4cb,%eax,%eax
  401bf0:	89 44 24 08          	mov    %eax,0x8(%rsp)
  401bf4:	b8 00 00 00 00       	mov    $0x0,%eax
  401bf9:	ba 00 00 00 00       	mov    $0x0,%edx
  401bfe:	eb 0a                	jmp    401c0a <scramble+0x4ce>
  401c00:	89 c1                	mov    %eax,%ecx
  401c02:	8b 0c 8c             	mov    (%rsp,%rcx,4),%ecx
  401c05:	01 ca                	add    %ecx,%edx
  401c07:	83 c0 01             	add    $0x1,%eax
  401c0a:	83 f8 09             	cmp    $0x9,%eax
  401c0d:	76 f1                	jbe    401c00 <scramble+0x4c4>
  401c0f:	48 8b 44 24 28       	mov    0x28(%rsp),%rax
  401c14:	64 48 2b 04 25 28 00 	sub    %fs:0x28,%rax
  401c1b:	00 00 
  401c1d:	75 07                	jne    401c26 <scramble+0x4ea>
  401c1f:	89 d0                	mov    %edx,%eax
  401c21:	48 83 c4 38          	add    $0x38,%rsp
  401c25:	c3                   	ret
  401c26:	e8 2b 0a 00 00       	call   402656 <__stack_chk_fail>

0000000000401c2b <getbuf>:
  401c2b:	f3 0f 1e fa          	endbr64
  401c2f:	48 83 ec 38          	sub    $0x38,%rsp
  401c33:	48 89 e7             	mov    %rsp,%rdi
  401c36:	e8 2c 05 00 00       	call   402167 <Gets>
  401c3b:	b8 01 00 00 00       	mov    $0x1,%eax
  401c40:	48 83 c4 38          	add    $0x38,%rsp
  401c44:	c3                   	ret

0000000000401c45 <touch1>:
  401c45:	f3 0f 1e fa          	endbr64
  401c49:	50                   	push   %rax
  401c4a:	58                   	pop    %rax
  401c4b:	48 83 ec 08          	sub    $0x8,%rsp
  401c4f:	c7 05 cb 58 00 00 01 	movl   $0x1,0x58cb(%rip)        # 407524 <vlevel>
  401c56:	00 00 00 
  401c59:	48 8d 3d ab 29 00 00 	lea    0x29ab(%rip),%rdi        # 40460b <_IO_stdin_used+0x60b>
  401c60:	e8 1b f4 ff ff       	call   401080 <puts@plt>
  401c65:	bf 01 00 00 00       	mov    $0x1,%edi
  401c6a:	e8 75 07 00 00       	call   4023e4 <validate>
  401c6f:	bf 00 00 00 00       	mov    $0x0,%edi
  401c74:	e8 67 f5 ff ff       	call   4011e0 <exit@plt>

0000000000401c79 <touch2>:
  401c79:	f3 0f 1e fa          	endbr64
  401c7d:	50                   	push   %rax
  401c7e:	58                   	pop    %rax
  401c7f:	48 83 ec 08          	sub    $0x8,%rsp
  401c83:	89 fa                	mov    %edi,%edx
  401c85:	c7 05 95 58 00 00 02 	movl   $0x2,0x5895(%rip)        # 407524 <vlevel>
  401c8c:	00 00 00 
  401c8f:	39 3d 97 58 00 00    	cmp    %edi,0x5897(%rip)        # 40752c <cookie>
  401c95:	74 2a                	je     401cc1 <touch2+0x48>
  401c97:	48 8d 35 e2 24 00 00 	lea    0x24e2(%rip),%rsi        # 404180 <_IO_stdin_used+0x180>
  401c9e:	bf 02 00 00 00       	mov    $0x2,%edi
  401ca3:	b8 00 00 00 00       	mov    $0x0,%eax
  401ca8:	e8 e3 f4 ff ff       	call   401190 <__printf_chk@plt>
  401cad:	bf 02 00 00 00       	mov    $0x2,%edi
  401cb2:	e8 08 08 00 00       	call   4024bf <fail>
  401cb7:	bf 00 00 00 00       	mov    $0x0,%edi
  401cbc:	e8 1f f5 ff ff       	call   4011e0 <exit@plt>
  401cc1:	48 8d 35 90 24 00 00 	lea    0x2490(%rip),%rsi        # 404158 <_IO_stdin_used+0x158>
  401cc8:	bf 02 00 00 00       	mov    $0x2,%edi
  401ccd:	b8 00 00 00 00       	mov    $0x0,%eax
  401cd2:	e8 b9 f4 ff ff       	call   401190 <__printf_chk@plt>
  401cd7:	bf 02 00 00 00       	mov    $0x2,%edi
  401cdc:	e8 03 07 00 00       	call   4023e4 <validate>
  401ce1:	eb d4                	jmp    401cb7 <touch2+0x3e>

0000000000401ce3 <hexmatch>:
  401ce3:	f3 0f 1e fa          	endbr64
  401ce7:	41 54                	push   %r12
  401ce9:	55                   	push   %rbp
  401cea:	53                   	push   %rbx
  401ceb:	48 83 c4 80          	add    $0xffffffffffffff80,%rsp
  401cef:	89 fd                	mov    %edi,%ebp
  401cf1:	48 89 f3             	mov    %rsi,%rbx
  401cf4:	64 48 8b 04 25 28 00 	mov    %fs:0x28,%rax
  401cfb:	00 00 
  401cfd:	48 89 44 24 78       	mov    %rax,0x78(%rsp)
  401d02:	31 c0                	xor    %eax,%eax
  401d04:	e8 57 f4 ff ff       	call   401160 <random@plt>
  401d09:	48 89 c6             	mov    %rax,%rsi
  401d0c:	48 ba 0b d7 a3 70 3d 	movabs $0xa3d70a3d70a3d70b,%rdx
  401d13:	0a d7 a3 
  401d16:	48 f7 ea             	imul   %rdx
  401d19:	48 8d 0c 32          	lea    (%rdx,%rsi,1),%rcx
  401d1d:	48 c1 f9 06          	sar    $0x6,%rcx
  401d21:	48 89 f0             	mov    %rsi,%rax
  401d24:	48 c1 f8 3f          	sar    $0x3f,%rax
  401d28:	48 29 c1             	sub    %rax,%rcx
  401d2b:	48 8d 04 89          	lea    (%rcx,%rcx,4),%rax
  401d2f:	48 8d 04 80          	lea    (%rax,%rax,4),%rax
  401d33:	48 c1 e0 02          	shl    $0x2,%rax
  401d37:	48 29 c6             	sub    %rax,%rsi
  401d3a:	4c 8d 24 34          	lea    (%rsp,%rsi,1),%r12
  401d3e:	ba 6e 00 00 00       	mov    $0x6e,%edx
  401d43:	48 39 d6             	cmp    %rdx,%rsi
  401d46:	48 0f 43 d6          	cmovae %rsi,%rdx
  401d4a:	48 29 f2             	sub    %rsi,%rdx
  401d4d:	41 89 e8             	mov    %ebp,%r8d
  401d50:	48 8d 0d d1 28 00 00 	lea    0x28d1(%rip),%rcx        # 404628 <_IO_stdin_used+0x628>
  401d57:	be 02 00 00 00       	mov    $0x2,%esi
  401d5c:	4c 89 e7             	mov    %r12,%rdi
  401d5f:	b8 00 00 00 00       	mov    $0x0,%eax
  401d64:	e8 b7 f4 ff ff       	call   401220 <__sprintf_chk@plt>
  401d69:	ba 09 00 00 00       	mov    $0x9,%edx
  401d6e:	4c 89 e6             	mov    %r12,%rsi
  401d71:	48 89 df             	mov    %rbx,%rdi
  401d74:	e8 e7 f2 ff ff       	call   401060 <strncmp@plt>
  401d79:	85 c0                	test   %eax,%eax
  401d7b:	0f 94 c0             	sete   %al
  401d7e:	48 8b 54 24 78       	mov    0x78(%rsp),%rdx
  401d83:	64 48 2b 14 25 28 00 	sub    %fs:0x28,%rdx
  401d8a:	00 00 
  401d8c:	75 0c                	jne    401d9a <hexmatch+0xb7>
  401d8e:	0f b6 c0             	movzbl %al,%eax
  401d91:	48 83 ec 80          	sub    $0xffffffffffffff80,%rsp
  401d95:	5b                   	pop    %rbx
  401d96:	5d                   	pop    %rbp
  401d97:	41 5c                	pop    %r12
  401d99:	c3                   	ret
  401d9a:	e8 b7 08 00 00       	call   402656 <__stack_chk_fail>

0000000000401d9f <touch3>:
  401d9f:	f3 0f 1e fa          	endbr64
  401da3:	53                   	push   %rbx
  401da4:	48 89 fb             	mov    %rdi,%rbx
  401da7:	c7 05 73 57 00 00 03 	movl   $0x3,0x5773(%rip)        # 407524 <vlevel>
  401dae:	00 00 00 
  401db1:	48 89 fe             	mov    %rdi,%rsi
  401db4:	8b 3d 72 57 00 00    	mov    0x5772(%rip),%edi        # 40752c <cookie>
  401dba:	e8 24 ff ff ff       	call   401ce3 <hexmatch>
  401dbf:	85 c0                	test   %eax,%eax
  401dc1:	74 2d                	je     401df0 <touch3+0x51>
  401dc3:	48 89 da             	mov    %rbx,%rdx
  401dc6:	48 8d 35 db 23 00 00 	lea    0x23db(%rip),%rsi        # 4041a8 <_IO_stdin_used+0x1a8>
  401dcd:	bf 02 00 00 00       	mov    $0x2,%edi
  401dd2:	b8 00 00 00 00       	mov    $0x0,%eax
  401dd7:	e8 b4 f3 ff ff       	call   401190 <__printf_chk@plt>
  401ddc:	bf 03 00 00 00       	mov    $0x3,%edi
  401de1:	e8 fe 05 00 00       	call   4023e4 <validate>
  401de6:	bf 00 00 00 00       	mov    $0x0,%edi
  401deb:	e8 f0 f3 ff ff       	call   4011e0 <exit@plt>
  401df0:	48 89 da             	mov    %rbx,%rdx
  401df3:	48 8d 35 d6 23 00 00 	lea    0x23d6(%rip),%rsi        # 4041d0 <_IO_stdin_used+0x1d0>
  401dfa:	bf 02 00 00 00       	mov    $0x2,%edi
  401dff:	b8 00 00 00 00       	mov    $0x0,%eax
  401e04:	e8 87 f3 ff ff       	call   401190 <__printf_chk@plt>
  401e09:	bf 03 00 00 00       	mov    $0x3,%edi
  401e0e:	e8 ac 06 00 00       	call   4024bf <fail>
  401e13:	eb d1                	jmp    401de6 <touch3+0x47>

0000000000401e15 <test>:
  401e15:	f3 0f 1e fa          	endbr64
  401e19:	48 83 ec 08          	sub    $0x8,%rsp
  401e1d:	b8 00 00 00 00       	mov    $0x0,%eax
  401e22:	e8 04 fe ff ff       	call   401c2b <getbuf>
  401e27:	89 c2                	mov    %eax,%edx
  401e29:	48 8d 35 c8 23 00 00 	lea    0x23c8(%rip),%rsi        # 4041f8 <_IO_stdin_used+0x1f8>
  401e30:	bf 02 00 00 00       	mov    $0x2,%edi
  401e35:	b8 00 00 00 00       	mov    $0x0,%eax
  401e3a:	e8 51 f3 ff ff       	call   401190 <__printf_chk@plt>
  401e3f:	48 83 c4 08          	add    $0x8,%rsp
  401e43:	c3                   	ret

0000000000401e44 <test2>:
  401e44:	f3 0f 1e fa          	endbr64
  401e48:	48 83 ec 08          	sub    $0x8,%rsp
  401e4c:	b8 00 00 00 00       	mov    $0x0,%eax
  401e51:	e8 1d 00 00 00       	call   401e73 <getbuf_withcanary>
  401e56:	89 c2                	mov    %eax,%edx
  401e58:	48 8d 35 c1 23 00 00 	lea    0x23c1(%rip),%rsi        # 404220 <_IO_stdin_used+0x220>
  401e5f:	bf 02 00 00 00       	mov    $0x2,%edi
  401e64:	b8 00 00 00 00       	mov    $0x0,%eax
  401e69:	e8 22 f3 ff ff       	call   401190 <__printf_chk@plt>
  401e6e:	48 83 c4 08          	add    $0x8,%rsp
  401e72:	c3                   	ret

0000000000401e73 <getbuf_withcanary>:
  401e73:	55                   	push   %rbp
  401e74:	48 89 e5             	mov    %rsp,%rbp
  401e77:	48 81 ec 20 01 00 00 	sub    $0x120,%rsp
  401e7e:	64 48 8b 04 25 28 00 	mov    %fs:0x28,%rax
  401e85:	00 00 
  401e87:	48 89 45 f8          	mov    %rax,-0x8(%rbp)
  401e8b:	31 c0                	xor    %eax,%eax
  401e8d:	c7 45 e4 00 00 00 00 	movl   $0x0,-0x1c(%rbp)
  401e94:	48 8d 85 60 ff ff ff 	lea    -0xa0(%rbp),%rax
  401e9b:	48 89 c7             	mov    %rax,%rdi
  401e9e:	e8 c4 02 00 00       	call   402167 <Gets>
  401ea3:	8b 45 e4             	mov    -0x1c(%rbp),%eax
  401ea6:	48 98                	cltq
  401ea8:	48 8d 95 e0 fe ff ff 	lea    -0x120(%rbp),%rdx
  401eaf:	48 8d 0c 02          	lea    (%rdx,%rax,1),%rcx
  401eb3:	48 8d 85 60 ff ff ff 	lea    -0xa0(%rbp),%rax
  401eba:	ba 80 00 00 00       	mov    $0x80,%edx
  401ebf:	48 89 c6             	mov    %rax,%rsi
  401ec2:	48 89 cf             	mov    %rcx,%rdi
  401ec5:	e8 76 f2 ff ff       	call   401140 <memcpy@plt>
  401eca:	b8 01 00 00 00       	mov    $0x1,%eax
  401ecf:	48 8b 75 f8          	mov    -0x8(%rbp),%rsi
  401ed3:	64 48 33 34 25 28 00 	xor    %fs:0x28,%rsi
  401eda:	00 00 
  401edc:	74 05                	je     401ee3 <getbuf_withcanary+0x70>
  401ede:	e8 73 07 00 00       	call   402656 <__stack_chk_fail>
  401ee3:	c9                   	leave
  401ee4:	c3                   	ret

0000000000401ee5 <start_farm>:
  401ee5:	f3 0f 1e fa          	endbr64
  401ee9:	b8 01 00 00 00       	mov    $0x1,%eax
  401eee:	c3                   	ret

0000000000401eef <addval_209>:
  401eef:	f3 0f 1e fa          	endbr64
  401ef3:	8d 87 48 89 c7 c3    	lea    -0x3c3876b8(%rdi),%eax
  401ef9:	c3                   	ret

0000000000401efa <getval_383>:
  401efa:	f3 0f 1e fa          	endbr64
  401efe:	b8 48 89 c7 91       	mov    $0x91c78948,%eax
  401f03:	c3                   	ret

0000000000401f04 <addval_442>:
  401f04:	f3 0f 1e fa          	endbr64
  401f08:	8d 87 48 89 c7 92    	lea    -0x6d3876b8(%rdi),%eax
  401f0e:	c3                   	ret

0000000000401f0f <getval_411>:
  401f0f:	f3 0f 1e fa          	endbr64
  401f13:	b8 d8 90 90 90       	mov    $0x909090d8,%eax
  401f18:	c3                   	ret

0000000000401f19 <addval_363>:
  401f19:	f3 0f 1e fa          	endbr64
  401f1d:	8d 87 90 15 2b 58    	lea    0x582b1590(%rdi),%eax
  401f23:	c3                   	ret

0000000000401f24 <setval_176>:
  401f24:	f3 0f 1e fa          	endbr64
  401f28:	c7 07 23 3f 55 58    	movl   $0x58553f23,(%rdi)
  401f2e:	c3                   	ret

0000000000401f2f <addval_308>:
  401f2f:	f3 0f 1e fa          	endbr64
  401f33:	8d 87 48 89 c7 c3    	lea    -0x3c3876b8(%rdi),%eax
  401f39:	c3                   	ret

0000000000401f3a <getval_488>:
  401f3a:	f3 0f 1e fa          	endbr64
  401f3e:	b8 58 90 91 c3       	mov    $0xc3919058,%eax
  401f43:	c3                   	ret

0000000000401f44 <mid_farm>:
  401f44:	f3 0f 1e fa          	endbr64
  401f48:	b8 01 00 00 00       	mov    $0x1,%eax
  401f4d:	c3                   	ret

0000000000401f4e <add_xy>:
  401f4e:	f3 0f 1e fa          	endbr64
  401f52:	48 8d 04 37          	lea    (%rdi,%rsi,1),%rax
  401f56:	c3                   	ret

0000000000401f57 <addval_480>:
  401f57:	f3 0f 1e fa          	endbr64
  401f5b:	8d 87 48 8b e0 90    	lea    -0x6f1f74b8(%rdi),%eax
  401f61:	c3                   	ret

0000000000401f62 <addval_427>:
  401f62:	f3 0f 1e fa          	endbr64
  401f66:	8d 87 5e 89 ce 94    	lea    -0x6b3176a2(%rdi),%eax
  401f6c:	c3                   	ret

0000000000401f6d <addval_163>:
  401f6d:	f3 0f 1e fa          	endbr64
  401f71:	8d 87 48 89 e0 c3    	lea    -0x3c1f76b8(%rdi),%eax
  401f77:	c3                   	ret

0000000000401f78 <addval_115>:
  401f78:	f3 0f 1e fa          	endbr64
  401f7c:	8d 87 89 ce 20 db    	lea    -0x24df3177(%rdi),%eax
  401f82:	c3                   	ret

0000000000401f83 <setval_119>:
  401f83:	f3 0f 1e fa          	endbr64
  401f87:	c7 07 89 c2 30 d2    	movl   $0xd230c289,(%rdi)
  401f8d:	c3                   	ret

0000000000401f8e <getval_267>:
  401f8e:	f3 0f 1e fa          	endbr64
  401f92:	b8 48 89 e0 94       	mov    $0x94e08948,%eax
  401f97:	c3                   	ret

0000000000401f98 <addval_131>:
  401f98:	f3 0f 1e fa          	endbr64
  401f9c:	8d 87 89 d1 28 c9    	lea    -0x36d72e77(%rdi),%eax
  401fa2:	c3                   	ret

0000000000401fa3 <addval_240>:
  401fa3:	f3 0f 1e fa          	endbr64
  401fa7:	8d 87 89 ce 92 c3    	lea    -0x3c6d3177(%rdi),%eax
  401fad:	c3                   	ret

0000000000401fae <setval_191>:
  401fae:	f3 0f 1e fa          	endbr64
  401fb2:	c7 07 89 d1 20 d2    	movl   $0xd220d189,(%rdi)
  401fb8:	c3                   	ret

0000000000401fb9 <getval_312>:
  401fb9:	f3 0f 1e fa          	endbr64
  401fbd:	b8 48 89 e0 91       	mov    $0x91e08948,%eax
  401fc2:	c3                   	ret

0000000000401fc3 <setval_453>:
  401fc3:	f3 0f 1e fa          	endbr64
  401fc7:	c7 07 99 c2 84 db    	movl   $0xdb84c299,(%rdi)
  401fcd:	c3                   	ret

0000000000401fce <getval_483>:
  401fce:	f3 0f 1e fa          	endbr64
  401fd2:	b8 89 ce c4 d2       	mov    $0xd2c4ce89,%eax
  401fd7:	c3                   	ret

0000000000401fd8 <addval_435>:
  401fd8:	f3 0f 1e fa          	endbr64
  401fdc:	8d 87 48 89 e0 c3    	lea    -0x3c1f76b8(%rdi),%eax
  401fe2:	c3                   	ret

0000000000401fe3 <addval_268>:
  401fe3:	f3 0f 1e fa          	endbr64
  401fe7:	8d 87 81 d1 08 c9    	lea    -0x36f72e7f(%rdi),%eax
  401fed:	c3                   	ret

0000000000401fee <getval_375>:
  401fee:	f3 0f 1e fa          	endbr64
  401ff2:	b8 c9 d1 08 db       	mov    $0xdb08d1c9,%eax
  401ff7:	c3                   	ret

0000000000401ff8 <setval_322>:
  401ff8:	f3 0f 1e fa          	endbr64
  401ffc:	c7 07 89 c2 90 c1    	movl   $0xc190c289,(%rdi)
  402002:	c3                   	ret

0000000000402003 <addval_310>:
  402003:	f3 0f 1e fa          	endbr64
  402007:	8d 87 48 8d e0 c3    	lea    -0x3c1f72b8(%rdi),%eax
  40200d:	c3                   	ret

000000000040200e <setval_499>:
  40200e:	f3 0f 1e fa          	endbr64
  402012:	c7 07 89 c2 20 c9    	movl   $0xc920c289,(%rdi)
  402018:	c3                   	ret

0000000000402019 <addval_116>:
  402019:	f3 0f 1e fa          	endbr64
  40201d:	8d 87 89 d1 18 db    	lea    -0x24e72e77(%rdi),%eax
  402023:	c3                   	ret

0000000000402024 <setval_356>:
  402024:	f3 0f 1e fa          	endbr64
  402028:	c7 07 b9 89 c2 90    	movl   $0x90c289b9,(%rdi)
  40202e:	c3                   	ret

000000000040202f <addval_105>:
  40202f:	f3 0f 1e fa          	endbr64
  402033:	8d 87 99 d1 20 db    	lea    -0x24df2e67(%rdi),%eax
  402039:	c3                   	ret

000000000040203a <addval_137>:
  40203a:	f3 0f 1e fa          	endbr64
  40203e:	8d 87 48 89 e0 c7    	lea    -0x381f76b8(%rdi),%eax
  402044:	c3                   	ret

0000000000402045 <getval_223>:
  402045:	f3 0f 1e fa          	endbr64
  402049:	b8 89 ce 90 c3       	mov    $0xc390ce89,%eax
  40204e:	c3                   	ret

000000000040204f <setval_159>:
  40204f:	f3 0f 1e fa          	endbr64
  402053:	c7 07 99 c2 08 db    	movl   $0xdb08c299,(%rdi)
  402059:	c3                   	ret

000000000040205a <addval_243>:
  40205a:	f3 0f 1e fa          	endbr64
  40205e:	8d 87 88 ce 38 c0    	lea    -0x3fc73178(%rdi),%eax
  402064:	c3                   	ret

0000000000402065 <getval_392>:
  402065:	f3 0f 1e fa          	endbr64
  402069:	b8 99 c2 84 c9       	mov    $0xc984c299,%eax
  40206e:	c3                   	ret

000000000040206f <addval_459>:
  40206f:	f3 0f 1e fa          	endbr64
  402073:	8d 87 81 ce 20 db    	lea    -0x24df317f(%rdi),%eax
  402079:	c3                   	ret

000000000040207a <getval_325>:
  40207a:	f3 0f 1e fa          	endbr64
  40207e:	b8 8d ce 20 db       	mov    $0xdb20ce8d,%eax
  402083:	c3                   	ret

0000000000402084 <setval_417>:
  402084:	f3 0f 1e fa          	endbr64
  402088:	c7 07 8b d1 38 db    	movl   $0xdb38d18b,(%rdi)
  40208e:	c3                   	ret

000000000040208f <setval_248>:
  40208f:	f3 0f 1e fa          	endbr64
  402093:	c7 07 89 d1 84 c0    	movl   $0xc084d189,(%rdi)
  402099:	c3                   	ret

000000000040209a <addval_408>:
  40209a:	f3 0f 1e fa          	endbr64
  40209e:	8d 87 89 c2 00 db    	lea    -0x24ff3d77(%rdi),%eax
  4020a4:	c3                   	ret

00000000004020a5 <setval_293>:
  4020a5:	f3 0f 1e fa          	endbr64
  4020a9:	c7 07 48 8b e0 90    	movl   $0x90e08b48,(%rdi)
  4020af:	c3                   	ret

00000000004020b0 <end_farm>:
  4020b0:	f3 0f 1e fa          	endbr64
  4020b4:	b8 01 00 00 00       	mov    $0x1,%eax
  4020b9:	c3                   	ret

00000000004020ba <save_char>:
  4020ba:	8b 05 84 60 00 00    	mov    0x6084(%rip),%eax        # 408144 <gets_cnt>
  4020c0:	3d ff 03 00 00       	cmp    $0x3ff,%eax
  4020c5:	7f 4a                	jg     402111 <save_char+0x57>
  4020c7:	89 f9                	mov    %edi,%ecx
  4020c9:	c0 e9 04             	shr    $0x4,%cl
  4020cc:	8d 14 40             	lea    (%rax,%rax,2),%edx
  4020cf:	4c 8d 05 2a 27 00 00 	lea    0x272a(%rip),%r8        # 404800 <trans_char>
  4020d6:	83 e1 0f             	and    $0xf,%ecx
  4020d9:	45 0f b6 0c 08       	movzbl (%r8,%rcx,1),%r9d
  4020de:	48 8d 0d 5b 54 00 00 	lea    0x545b(%rip),%rcx        # 407540 <gets_buf>
  4020e5:	48 63 f2             	movslq %edx,%rsi
  4020e8:	44 88 0c 31          	mov    %r9b,(%rcx,%rsi,1)
  4020ec:	8d 72 01             	lea    0x1(%rdx),%esi
  4020ef:	83 e7 0f             	and    $0xf,%edi
  4020f2:	41 0f b6 3c 38       	movzbl (%r8,%rdi,1),%edi
  4020f7:	48 63 f6             	movslq %esi,%rsi
  4020fa:	40 88 3c 31          	mov    %dil,(%rcx,%rsi,1)
  4020fe:	83 c2 02             	add    $0x2,%edx
  402101:	48 63 d2             	movslq %edx,%rdx
  402104:	c6 04 11 20          	movb   $0x20,(%rcx,%rdx,1)
  402108:	83 c0 01             	add    $0x1,%eax
  40210b:	89 05 33 60 00 00    	mov    %eax,0x6033(%rip)        # 408144 <gets_cnt>
  402111:	c3                   	ret

0000000000402112 <save_term>:
  402112:	8b 05 2c 60 00 00    	mov    0x602c(%rip),%eax        # 408144 <gets_cnt>
  402118:	8d 04 40             	lea    (%rax,%rax,2),%eax
  40211b:	48 98                	cltq
  40211d:	48 8d 15 1c 54 00 00 	lea    0x541c(%rip),%rdx        # 407540 <gets_buf>
  402124:	c6 04 02 00          	movb   $0x0,(%rdx,%rax,1)
  402128:	c3                   	ret

0000000000402129 <check_fail>:
  402129:	f3 0f 1e fa          	endbr64
  40212d:	50                   	push   %rax
  40212e:	58                   	pop    %rax
  40212f:	48 83 ec 08          	sub    $0x8,%rsp
  402133:	0f be 15 0e 60 00 00 	movsbl 0x600e(%rip),%edx        # 408148 <target_prefix>
  40213a:	4c 8d 05 ff 53 00 00 	lea    0x53ff(%rip),%r8        # 407540 <gets_buf>
  402141:	8b 0d d9 53 00 00    	mov    0x53d9(%rip),%ecx        # 407520 <check_level>
  402147:	48 8d 35 df 24 00 00 	lea    0x24df(%rip),%rsi        # 40462d <_IO_stdin_used+0x62d>
  40214e:	bf 02 00 00 00       	mov    $0x2,%edi
  402153:	b8 00 00 00 00       	mov    $0x0,%eax
  402158:	e8 33 f0 ff ff       	call   401190 <__printf_chk@plt>
  40215d:	bf 01 00 00 00       	mov    $0x1,%edi
  402162:	e8 79 f0 ff ff       	call   4011e0 <exit@plt>

0000000000402167 <Gets>:
  402167:	f3 0f 1e fa          	endbr64
  40216b:	41 54                	push   %r12
  40216d:	55                   	push   %rbp
  40216e:	53                   	push   %rbx
  40216f:	49 89 fc             	mov    %rdi,%r12
  402172:	c7 05 c8 5f 00 00 00 	movl   $0x0,0x5fc8(%rip)        # 408144 <gets_cnt>
  402179:	00 00 00 
  40217c:	48 89 fb             	mov    %rdi,%rbx
  40217f:	eb 11                	jmp    402192 <Gets+0x2b>
  402181:	48 8d 6b 01          	lea    0x1(%rbx),%rbp
  402185:	88 03                	mov    %al,(%rbx)
  402187:	0f b6 f8             	movzbl %al,%edi
  40218a:	e8 2b ff ff ff       	call   4020ba <save_char>
  40218f:	48 89 eb             	mov    %rbp,%rbx
  402192:	48 8b 3d 7f 53 00 00 	mov    0x537f(%rip),%rdi        # 407518 <infile>
  402199:	e8 72 f0 ff ff       	call   401210 <getc@plt>
  40219e:	83 f8 ff             	cmp    $0xffffffff,%eax
  4021a1:	74 05                	je     4021a8 <Gets+0x41>
  4021a3:	83 f8 0a             	cmp    $0xa,%eax
  4021a6:	75 d9                	jne    402181 <Gets+0x1a>
  4021a8:	c6 03 00             	movb   $0x0,(%rbx)
  4021ab:	b8 00 00 00 00       	mov    $0x0,%eax
  4021b0:	e8 5d ff ff ff       	call   402112 <save_term>
  4021b5:	4c 89 e0             	mov    %r12,%rax
  4021b8:	5b                   	pop    %rbx
  4021b9:	5d                   	pop    %rbp
  4021ba:	41 5c                	pop    %r12
  4021bc:	c3                   	ret

00000000004021bd <notify_server>:
  4021bd:	f3 0f 1e fa          	endbr64
  4021c1:	55                   	push   %rbp
  4021c2:	53                   	push   %rbx
  4021c3:	4c 8d 9c 24 00 c0 ff 	lea    -0x4000(%rsp),%r11
  4021ca:	ff 
  4021cb:	48 81 ec 00 10 00 00 	sub    $0x1000,%rsp
  4021d2:	48 83 0c 24 00       	orq    $0x0,(%rsp)
  4021d7:	4c 39 dc             	cmp    %r11,%rsp
  4021da:	75 ef                	jne    4021cb <notify_server+0xe>
  4021dc:	48 83 ec 18          	sub    $0x18,%rsp
  4021e0:	64 48 8b 04 25 28 00 	mov    %fs:0x28,%rax
  4021e7:	00 00 
  4021e9:	48 89 84 24 08 40 00 	mov    %rax,0x4008(%rsp)
  4021f0:	00 
  4021f1:	31 c0                	xor    %eax,%eax
  4021f3:	83 3d 36 53 00 00 00 	cmpl   $0x0,0x5336(%rip)        # 407530 <is_checker>
  4021fa:	0f 85 c2 01 00 00    	jne    4023c2 <notify_server+0x205>
  402200:	89 fb                	mov    %edi,%ebx
  402202:	81 3d 38 5f 00 00 9c 	cmpl   $0x1f9c,0x5f38(%rip)        # 408144 <gets_cnt>
  402209:	1f 00 00 
  40220c:	0f 8f bd 00 00 00    	jg     4022cf <notify_server+0x112>
  402212:	0f be 05 2f 5f 00 00 	movsbl 0x5f2f(%rip),%eax        # 408148 <target_prefix>
  402219:	83 3d 60 52 00 00 00 	cmpl   $0x0,0x5260(%rip)        # 407480 <notify>
  402220:	0f 84 c4 00 00 00    	je     4022ea <notify_server+0x12d>
  402226:	8b 15 fc 52 00 00    	mov    0x52fc(%rip),%edx        # 407528 <authkey>
  40222c:	85 db                	test   %ebx,%ebx
  40222e:	0f 84 c0 00 00 00    	je     4022f4 <notify_server+0x137>
  402234:	48 8d 2d 08 24 00 00 	lea    0x2408(%rip),%rbp        # 404643 <_IO_stdin_used+0x643>
  40223b:	48 89 e7             	mov    %rsp,%rdi
  40223e:	48 8d 0d fb 52 00 00 	lea    0x52fb(%rip),%rcx        # 407540 <gets_buf>
  402245:	51                   	push   %rcx
  402246:	56                   	push   %rsi
  402247:	50                   	push   %rax
  402248:	52                   	push   %rdx
  402249:	49 89 e9             	mov    %rbp,%r9
  40224c:	44 8b 05 dd 4e 00 00 	mov    0x4edd(%rip),%r8d        # 407130 <target_id>
  402253:	48 8d 0d f3 23 00 00 	lea    0x23f3(%rip),%rcx        # 40464d <_IO_stdin_used+0x64d>
  40225a:	ba 00 20 00 00       	mov    $0x2000,%edx
  40225f:	be 02 00 00 00       	mov    $0x2,%esi
  402264:	b8 00 00 00 00       	mov    $0x0,%eax
  402269:	e8 b2 ef ff ff       	call   401220 <__sprintf_chk@plt>
  40226e:	48 83 c4 20          	add    $0x20,%rsp
  402272:	83 3d 07 52 00 00 00 	cmpl   $0x0,0x5207(%rip)        # 407480 <notify>
  402279:	0f 84 ba 00 00 00    	je     402339 <notify_server+0x17c>
  40227f:	48 89 e1             	mov    %rsp,%rcx
  402282:	4c 8d 8c 24 00 20 00 	lea    0x2000(%rsp),%r9
  402289:	00 
  40228a:	41 b8 00 00 00 00    	mov    $0x0,%r8d
  402290:	48 8b 15 b1 4e 00 00 	mov    0x4eb1(%rip),%rdx        # 407148 <lab>
  402297:	48 8b 35 b2 4e 00 00 	mov    0x4eb2(%rip),%rsi        # 407150 <course>
  40229e:	48 8b 3d 9b 4e 00 00 	mov    0x4e9b(%rip),%rdi        # 407140 <user_id>
  4022a5:	e8 4e 12 00 00       	call   4034f8 <driver_post>
  4022aa:	85 c0                	test   %eax,%eax
  4022ac:	78 52                	js     402300 <notify_server+0x143>
  4022ae:	85 db                	test   %ebx,%ebx
  4022b0:	74 76                	je     402328 <notify_server+0x16b>
  4022b2:	48 8d 3d c7 1f 00 00 	lea    0x1fc7(%rip),%rdi        # 404280 <_IO_stdin_used+0x280>
  4022b9:	e8 c2 ed ff ff       	call   401080 <puts@plt>
  4022be:	48 8d 3d b0 23 00 00 	lea    0x23b0(%rip),%rdi        # 404675 <_IO_stdin_used+0x675>
  4022c5:	e8 b6 ed ff ff       	call   401080 <puts@plt>
  4022ca:	e9 f3 00 00 00       	jmp    4023c2 <notify_server+0x205>
  4022cf:	48 8d 35 7a 1f 00 00 	lea    0x1f7a(%rip),%rsi        # 404250 <_IO_stdin_used+0x250>
  4022d6:	bf 02 00 00 00       	mov    $0x2,%edi
  4022db:	e8 b0 ee ff ff       	call   401190 <__printf_chk@plt>
  4022e0:	bf 01 00 00 00       	mov    $0x1,%edi
  4022e5:	e8 f6 ee ff ff       	call   4011e0 <exit@plt>
  4022ea:	ba ff ff ff ff       	mov    $0xffffffff,%edx
  4022ef:	e9 38 ff ff ff       	jmp    40222c <notify_server+0x6f>
  4022f4:	48 8d 2d 4d 23 00 00 	lea    0x234d(%rip),%rbp        # 404648 <_IO_stdin_used+0x648>
  4022fb:	e9 3b ff ff ff       	jmp    40223b <notify_server+0x7e>
  402300:	48 8d 94 24 00 20 00 	lea    0x2000(%rsp),%rdx
  402307:	00 
  402308:	48 8d 35 5a 23 00 00 	lea    0x235a(%rip),%rsi        # 404669 <_IO_stdin_used+0x669>
  40230f:	bf 02 00 00 00       	mov    $0x2,%edi
  402314:	b8 00 00 00 00       	mov    $0x0,%eax
  402319:	e8 72 ee ff ff       	call   401190 <__printf_chk@plt>
  40231e:	bf 01 00 00 00       	mov    $0x1,%edi
  402323:	e8 b8 ee ff ff       	call   4011e0 <exit@plt>
  402328:	48 8d 3d 50 23 00 00 	lea    0x2350(%rip),%rdi        # 40467f <_IO_stdin_used+0x67f>
  40232f:	e8 4c ed ff ff       	call   401080 <puts@plt>
  402334:	e9 89 00 00 00       	jmp    4023c2 <notify_server+0x205>
  402339:	48 89 ea             	mov    %rbp,%rdx
  40233c:	48 8d 35 75 1f 00 00 	lea    0x1f75(%rip),%rsi        # 4042b8 <_IO_stdin_used+0x2b8>
  402343:	bf 02 00 00 00       	mov    $0x2,%edi
  402348:	b8 00 00 00 00       	mov    $0x0,%eax
  40234d:	e8 3e ee ff ff       	call   401190 <__printf_chk@plt>
  402352:	48 8b 15 e7 4d 00 00 	mov    0x4de7(%rip),%rdx        # 407140 <user_id>
  402359:	48 8d 35 26 23 00 00 	lea    0x2326(%rip),%rsi        # 404686 <_IO_stdin_used+0x686>
  402360:	bf 02 00 00 00       	mov    $0x2,%edi
  402365:	b8 00 00 00 00       	mov    $0x0,%eax
  40236a:	e8 21 ee ff ff       	call   401190 <__printf_chk@plt>
  40236f:	48 8b 15 da 4d 00 00 	mov    0x4dda(%rip),%rdx        # 407150 <course>
  402376:	48 8d 35 16 23 00 00 	lea    0x2316(%rip),%rsi        # 404693 <_IO_stdin_used+0x693>
  40237d:	bf 02 00 00 00       	mov    $0x2,%edi
  402382:	b8 00 00 00 00       	mov    $0x0,%eax
  402387:	e8 04 ee ff ff       	call   401190 <__printf_chk@plt>
  40238c:	48 8b 15 b5 4d 00 00 	mov    0x4db5(%rip),%rdx        # 407148 <lab>
  402393:	48 8d 35 05 23 00 00 	lea    0x2305(%rip),%rsi        # 40469f <_IO_stdin_used+0x69f>
  40239a:	bf 02 00 00 00       	mov    $0x2,%edi
  40239f:	b8 00 00 00 00       	mov    $0x0,%eax
  4023a4:	e8 e7 ed ff ff       	call   401190 <__printf_chk@plt>
  4023a9:	48 89 e2             	mov    %rsp,%rdx
  4023ac:	48 8d 35 f5 22 00 00 	lea    0x22f5(%rip),%rsi        # 4046a8 <_IO_stdin_used+0x6a8>
  4023b3:	bf 02 00 00 00       	mov    $0x2,%edi
  4023b8:	b8 00 00 00 00       	mov    $0x0,%eax
  4023bd:	e8 ce ed ff ff       	call   401190 <__printf_chk@plt>
  4023c2:	48 8b 84 24 08 40 00 	mov    0x4008(%rsp),%rax
  4023c9:	00 
  4023ca:	64 48 2b 04 25 28 00 	sub    %fs:0x28,%rax
  4023d1:	00 00 
  4023d3:	75 0a                	jne    4023df <notify_server+0x222>
  4023d5:	48 81 c4 18 40 00 00 	add    $0x4018,%rsp
  4023dc:	5b                   	pop    %rbx
  4023dd:	5d                   	pop    %rbp
  4023de:	c3                   	ret
  4023df:	e8 72 02 00 00       	call   402656 <__stack_chk_fail>

00000000004023e4 <validate>:
  4023e4:	f3 0f 1e fa          	endbr64
  4023e8:	53                   	push   %rbx
  4023e9:	89 fb                	mov    %edi,%ebx
  4023eb:	83 3d 3e 51 00 00 00 	cmpl   $0x0,0x513e(%rip)        # 407530 <is_checker>
  4023f2:	74 79                	je     40246d <validate+0x89>
  4023f4:	39 3d 2a 51 00 00    	cmp    %edi,0x512a(%rip)        # 407524 <vlevel>
  4023fa:	75 39                	jne    402435 <validate+0x51>
  4023fc:	8b 15 1e 51 00 00    	mov    0x511e(%rip),%edx        # 407520 <check_level>
  402402:	39 fa                	cmp    %edi,%edx
  402404:	75 45                	jne    40244b <validate+0x67>
  402406:	0f be 0d 3b 5d 00 00 	movsbl 0x5d3b(%rip),%ecx        # 408148 <target_prefix>
  40240d:	4c 8d 0d 2c 51 00 00 	lea    0x512c(%rip),%r9        # 407540 <gets_buf>
  402414:	41 89 f8             	mov    %edi,%r8d
  402417:	8b 15 0b 51 00 00    	mov    0x510b(%rip),%edx        # 407528 <authkey>
  40241d:	48 8d 35 e4 1e 00 00 	lea    0x1ee4(%rip),%rsi        # 404308 <_IO_stdin_used+0x308>
  402424:	bf 02 00 00 00       	mov    $0x2,%edi
  402429:	b8 00 00 00 00       	mov    $0x0,%eax
  40242e:	e8 5d ed ff ff       	call   401190 <__printf_chk@plt>
  402433:	5b                   	pop    %rbx
  402434:	c3                   	ret
  402435:	48 8d 3d 78 22 00 00 	lea    0x2278(%rip),%rdi        # 4046b4 <_IO_stdin_used+0x6b4>
  40243c:	e8 3f ec ff ff       	call   401080 <puts@plt>
  402441:	b8 00 00 00 00       	mov    $0x0,%eax
  402446:	e8 de fc ff ff       	call   402129 <check_fail>
  40244b:	89 f9                	mov    %edi,%ecx
  40244d:	48 8d 35 8c 1e 00 00 	lea    0x1e8c(%rip),%rsi        # 4042e0 <_IO_stdin_used+0x2e0>
  402454:	bf 02 00 00 00       	mov    $0x2,%edi
  402459:	b8 00 00 00 00       	mov    $0x0,%eax
  40245e:	e8 2d ed ff ff       	call   401190 <__printf_chk@plt>
  402463:	b8 00 00 00 00       	mov    $0x0,%eax
  402468:	e8 bc fc ff ff       	call   402129 <check_fail>
  40246d:	39 3d b1 50 00 00    	cmp    %edi,0x50b1(%rip)        # 407524 <vlevel>
  402473:	74 1a                	je     40248f <validate+0xab>
  402475:	48 8d 3d 38 22 00 00 	lea    0x2238(%rip),%rdi        # 4046b4 <_IO_stdin_used+0x6b4>
  40247c:	e8 ff eb ff ff       	call   401080 <puts@plt>
  402481:	89 de                	mov    %ebx,%esi
  402483:	bf 00 00 00 00       	mov    $0x0,%edi
  402488:	e8 30 fd ff ff       	call   4021bd <notify_server>
  40248d:	eb a4                	jmp    402433 <validate+0x4f>
  40248f:	0f be 0d b2 5c 00 00 	movsbl 0x5cb2(%rip),%ecx        # 408148 <target_prefix>
  402496:	89 fa                	mov    %edi,%edx
  402498:	48 8d 35 91 1e 00 00 	lea    0x1e91(%rip),%rsi        # 404330 <_IO_stdin_used+0x330>
  40249f:	bf 02 00 00 00       	mov    $0x2,%edi
  4024a4:	b8 00 00 00 00       	mov    $0x0,%eax
  4024a9:	e8 e2 ec ff ff       	call   401190 <__printf_chk@plt>
  4024ae:	89 de                	mov    %ebx,%esi
  4024b0:	bf 01 00 00 00       	mov    $0x1,%edi
  4024b5:	e8 03 fd ff ff       	call   4021bd <notify_server>
  4024ba:	e9 74 ff ff ff       	jmp    402433 <validate+0x4f>

00000000004024bf <fail>:
  4024bf:	f3 0f 1e fa          	endbr64
  4024c3:	48 83 ec 08          	sub    $0x8,%rsp
  4024c7:	83 3d 62 50 00 00 00 	cmpl   $0x0,0x5062(%rip)        # 407530 <is_checker>
  4024ce:	75 11                	jne    4024e1 <fail+0x22>
  4024d0:	89 fe                	mov    %edi,%esi
  4024d2:	bf 00 00 00 00       	mov    $0x0,%edi
  4024d7:	e8 e1 fc ff ff       	call   4021bd <notify_server>
  4024dc:	48 83 c4 08          	add    $0x8,%rsp
  4024e0:	c3                   	ret
  4024e1:	b8 00 00 00 00       	mov    $0x0,%eax
  4024e6:	e8 3e fc ff ff       	call   402129 <check_fail>

00000000004024eb <bushandler>:
  4024eb:	f3 0f 1e fa          	endbr64
  4024ef:	50                   	push   %rax
  4024f0:	58                   	pop    %rax
  4024f1:	48 83 ec 08          	sub    $0x8,%rsp
  4024f5:	83 3d 34 50 00 00 00 	cmpl   $0x0,0x5034(%rip)        # 407530 <is_checker>
  4024fc:	74 16                	je     402514 <bushandler+0x29>
  4024fe:	48 8d 3d cd 21 00 00 	lea    0x21cd(%rip),%rdi        # 4046d2 <_IO_stdin_used+0x6d2>
  402505:	e8 76 eb ff ff       	call   401080 <puts@plt>
  40250a:	b8 00 00 00 00       	mov    $0x0,%eax
  40250f:	e8 15 fc ff ff       	call   402129 <check_fail>
  402514:	48 8d 3d 4d 1e 00 00 	lea    0x1e4d(%rip),%rdi        # 404368 <_IO_stdin_used+0x368>
  40251b:	e8 60 eb ff ff       	call   401080 <puts@plt>
  402520:	48 8d 3d b5 21 00 00 	lea    0x21b5(%rip),%rdi        # 4046dc <_IO_stdin_used+0x6dc>
  402527:	e8 54 eb ff ff       	call   401080 <puts@plt>
  40252c:	be 00 00 00 00       	mov    $0x0,%esi
  402531:	bf 00 00 00 00       	mov    $0x0,%edi
  402536:	e8 82 fc ff ff       	call   4021bd <notify_server>
  40253b:	bf 01 00 00 00       	mov    $0x1,%edi
  402540:	e8 9b ec ff ff       	call   4011e0 <exit@plt>

0000000000402545 <seghandler>:
  402545:	f3 0f 1e fa          	endbr64
  402549:	50                   	push   %rax
  40254a:	58                   	pop    %rax
  40254b:	48 83 ec 08          	sub    $0x8,%rsp
  40254f:	83 3d da 4f 00 00 00 	cmpl   $0x0,0x4fda(%rip)        # 407530 <is_checker>
  402556:	74 16                	je     40256e <seghandler+0x29>
  402558:	48 8d 3d 93 21 00 00 	lea    0x2193(%rip),%rdi        # 4046f2 <_IO_stdin_used+0x6f2>
  40255f:	e8 1c eb ff ff       	call   401080 <puts@plt>
  402564:	b8 00 00 00 00       	mov    $0x0,%eax
  402569:	e8 bb fb ff ff       	call   402129 <check_fail>
  40256e:	48 8d 3d 13 1e 00 00 	lea    0x1e13(%rip),%rdi        # 404388 <_IO_stdin_used+0x388>
  402575:	e8 06 eb ff ff       	call   401080 <puts@plt>
  40257a:	48 8d 3d 5b 21 00 00 	lea    0x215b(%rip),%rdi        # 4046dc <_IO_stdin_used+0x6dc>
  402581:	e8 fa ea ff ff       	call   401080 <puts@plt>
  402586:	be 00 00 00 00       	mov    $0x0,%esi
  40258b:	bf 00 00 00 00       	mov    $0x0,%edi
  402590:	e8 28 fc ff ff       	call   4021bd <notify_server>
  402595:	bf 01 00 00 00       	mov    $0x1,%edi
  40259a:	e8 41 ec ff ff       	call   4011e0 <exit@plt>

000000000040259f <illegalhandler>:
  40259f:	f3 0f 1e fa          	endbr64
  4025a3:	50                   	push   %rax
  4025a4:	58                   	pop    %rax
  4025a5:	48 83 ec 08          	sub    $0x8,%rsp
  4025a9:	83 3d 80 4f 00 00 00 	cmpl   $0x0,0x4f80(%rip)        # 407530 <is_checker>
  4025b0:	74 16                	je     4025c8 <illegalhandler+0x29>
  4025b2:	48 8d 3d 4c 21 00 00 	lea    0x214c(%rip),%rdi        # 404705 <_IO_stdin_used+0x705>
  4025b9:	e8 c2 ea ff ff       	call   401080 <puts@plt>
  4025be:	b8 00 00 00 00       	mov    $0x0,%eax
  4025c3:	e8 61 fb ff ff       	call   402129 <check_fail>
  4025c8:	48 8d 3d e1 1d 00 00 	lea    0x1de1(%rip),%rdi        # 4043b0 <_IO_stdin_used+0x3b0>
  4025cf:	e8 ac ea ff ff       	call   401080 <puts@plt>
  4025d4:	48 8d 3d 01 21 00 00 	lea    0x2101(%rip),%rdi        # 4046dc <_IO_stdin_used+0x6dc>
  4025db:	e8 a0 ea ff ff       	call   401080 <puts@plt>
  4025e0:	be 00 00 00 00       	mov    $0x0,%esi
  4025e5:	bf 00 00 00 00       	mov    $0x0,%edi
  4025ea:	e8 ce fb ff ff       	call   4021bd <notify_server>
  4025ef:	bf 01 00 00 00       	mov    $0x1,%edi
  4025f4:	e8 e7 eb ff ff       	call   4011e0 <exit@plt>

00000000004025f9 <sigalrmhandler>:
  4025f9:	f3 0f 1e fa          	endbr64
  4025fd:	50                   	push   %rax
  4025fe:	58                   	pop    %rax
  4025ff:	48 83 ec 08          	sub    $0x8,%rsp
  402603:	83 3d 26 4f 00 00 00 	cmpl   $0x0,0x4f26(%rip)        # 407530 <is_checker>
  40260a:	74 16                	je     402622 <sigalrmhandler+0x29>
  40260c:	48 8d 3d 06 21 00 00 	lea    0x2106(%rip),%rdi        # 404719 <_IO_stdin_used+0x719>
  402613:	e8 68 ea ff ff       	call   401080 <puts@plt>
  402618:	b8 00 00 00 00       	mov    $0x0,%eax
  40261d:	e8 07 fb ff ff       	call   402129 <check_fail>
  402622:	ba 02 00 00 00       	mov    $0x2,%edx
  402627:	48 8d 35 b2 1d 00 00 	lea    0x1db2(%rip),%rsi        # 4043e0 <_IO_stdin_used+0x3e0>
  40262e:	bf 02 00 00 00       	mov    $0x2,%edi
  402633:	b8 00 00 00 00       	mov    $0x0,%eax
  402638:	e8 53 eb ff ff       	call   401190 <__printf_chk@plt>
  40263d:	be 00 00 00 00       	mov    $0x0,%esi
  402642:	bf 00 00 00 00       	mov    $0x0,%edi
  402647:	e8 71 fb ff ff       	call   4021bd <notify_server>
  40264c:	bf 01 00 00 00       	mov    $0x1,%edi
  402651:	e8 8a eb ff ff       	call   4011e0 <exit@plt>

0000000000402656 <__stack_chk_fail>:
  402656:	f3 0f 1e fa          	endbr64
  40265a:	50                   	push   %rax
  40265b:	58                   	pop    %rax
  40265c:	48 83 ec 08          	sub    $0x8,%rsp
  402660:	83 3d c9 4e 00 00 00 	cmpl   $0x0,0x4ec9(%rip)        # 407530 <is_checker>
  402667:	74 16                	je     40267f <__stack_chk_fail+0x29>
  402669:	48 8d 3d b1 20 00 00 	lea    0x20b1(%rip),%rdi        # 404721 <_IO_stdin_used+0x721>
  402670:	e8 0b ea ff ff       	call   401080 <puts@plt>
  402675:	b8 00 00 00 00       	mov    $0x0,%eax
  40267a:	e8 aa fa ff ff       	call   402129 <check_fail>
  40267f:	48 8d 3d 92 1d 00 00 	lea    0x1d92(%rip),%rdi        # 404418 <_IO_stdin_used+0x418>
  402686:	e8 f5 e9 ff ff       	call   401080 <puts@plt>
  40268b:	48 8d 3d 4a 20 00 00 	lea    0x204a(%rip),%rdi        # 4046dc <_IO_stdin_used+0x6dc>
  402692:	e8 e9 e9 ff ff       	call   401080 <puts@plt>
  402697:	be 00 00 00 00       	mov    $0x0,%esi
  40269c:	bf 00 00 00 00       	mov    $0x0,%edi
  4026a1:	e8 17 fb ff ff       	call   4021bd <notify_server>
  4026a6:	bf 01 00 00 00       	mov    $0x1,%edi
  4026ab:	e8 30 eb ff ff       	call   4011e0 <exit@plt>

00000000004026b0 <launch>:
  4026b0:	f3 0f 1e fa          	endbr64
  4026b4:	55                   	push   %rbp
  4026b5:	48 89 e5             	mov    %rsp,%rbp
  4026b8:	53                   	push   %rbx
  4026b9:	48 83 ec 18          	sub    $0x18,%rsp
  4026bd:	48 89 fa             	mov    %rdi,%rdx
  4026c0:	89 f3                	mov    %esi,%ebx
  4026c2:	64 48 8b 04 25 28 00 	mov    %fs:0x28,%rax
  4026c9:	00 00 
  4026cb:	48 89 45 e8          	mov    %rax,-0x18(%rbp)
  4026cf:	31 c0                	xor    %eax,%eax
  4026d1:	48 8d 47 17          	lea    0x17(%rdi),%rax
  4026d5:	48 89 c6             	mov    %rax,%rsi
  4026d8:	48 83 e6 f0          	and    $0xfffffffffffffff0,%rsi
  4026dc:	48 25 00 f0 ff ff    	and    $0xfffffffffffff000,%rax
  4026e2:	48 89 e1             	mov    %rsp,%rcx
  4026e5:	48 29 c1             	sub    %rax,%rcx
  4026e8:	48 39 cc             	cmp    %rcx,%rsp
  4026eb:	74 12                	je     4026ff <launch+0x4f>
  4026ed:	48 81 ec 00 10 00 00 	sub    $0x1000,%rsp
  4026f4:	48 83 8c 24 f8 0f 00 	orq    $0x0,0xff8(%rsp)
  4026fb:	00 00 
  4026fd:	eb e9                	jmp    4026e8 <launch+0x38>
  4026ff:	48 89 f0             	mov    %rsi,%rax
  402702:	25 ff 0f 00 00       	and    $0xfff,%eax
  402707:	48 29 c4             	sub    %rax,%rsp
  40270a:	48 85 c0             	test   %rax,%rax
  40270d:	74 06                	je     402715 <launch+0x65>
  40270f:	48 83 4c 04 f8 00    	orq    $0x0,-0x8(%rsp,%rax,1)
  402715:	48 8d 7c 24 0f       	lea    0xf(%rsp),%rdi
  40271a:	48 83 e7 f0          	and    $0xfffffffffffffff0,%rdi
  40271e:	48 89 d1             	mov    %rdx,%rcx
  402721:	be f4 00 00 00       	mov    $0xf4,%esi
  402726:	e8 a5 ea ff ff       	call   4011d0 <__memset_chk@plt>
  40272b:	48 8b 05 6e 4d 00 00 	mov    0x4d6e(%rip),%rax        # 4074a0 <stdin@GLIBC_2.2.5>
  402732:	48 39 05 df 4d 00 00 	cmp    %rax,0x4ddf(%rip)        # 407518 <infile>
  402739:	74 42                	je     40277d <launch+0xcd>
  40273b:	c7 05 df 4d 00 00 00 	movl   $0x0,0x4ddf(%rip)        # 407524 <vlevel>
  402742:	00 00 00 
  402745:	85 db                	test   %ebx,%ebx
  402747:	75 4c                	jne    402795 <launch+0xe5>
  402749:	b8 00 00 00 00       	mov    $0x0,%eax
  40274e:	e8 c2 f6 ff ff       	call   401e15 <test>
  402753:	83 3d d6 4d 00 00 00 	cmpl   $0x0,0x4dd6(%rip)        # 407530 <is_checker>
  40275a:	75 45                	jne    4027a1 <launch+0xf1>
  40275c:	48 8d 3d e5 1f 00 00 	lea    0x1fe5(%rip),%rdi        # 404748 <_IO_stdin_used+0x748>
  402763:	e8 18 e9 ff ff       	call   401080 <puts@plt>
  402768:	48 8b 45 e8          	mov    -0x18(%rbp),%rax
  40276c:	64 48 2b 04 25 28 00 	sub    %fs:0x28,%rax
  402773:	00 00 
  402775:	75 40                	jne    4027b7 <launch+0x107>
  402777:	48 8b 5d f8          	mov    -0x8(%rbp),%rbx
  40277b:	c9                   	leave
  40277c:	c3                   	ret
  40277d:	48 8d 35 ac 1f 00 00 	lea    0x1fac(%rip),%rsi        # 404730 <_IO_stdin_used+0x730>
  402784:	bf 02 00 00 00       	mov    $0x2,%edi
  402789:	b8 00 00 00 00       	mov    $0x0,%eax
  40278e:	e8 fd e9 ff ff       	call   401190 <__printf_chk@plt>
  402793:	eb a6                	jmp    40273b <launch+0x8b>
  402795:	b8 00 00 00 00       	mov    $0x0,%eax
  40279a:	e8 a5 f6 ff ff       	call   401e44 <test2>
  40279f:	eb b2                	jmp    402753 <launch+0xa3>
  4027a1:	48 8d 3d 95 1f 00 00 	lea    0x1f95(%rip),%rdi        # 40473d <_IO_stdin_used+0x73d>
  4027a8:	e8 d3 e8 ff ff       	call   401080 <puts@plt>
  4027ad:	b8 00 00 00 00       	mov    $0x0,%eax
  4027b2:	e8 72 f9 ff ff       	call   402129 <check_fail>
  4027b7:	e8 9a fe ff ff       	call   402656 <__stack_chk_fail>

00000000004027bc <stable_launch>:
  4027bc:	f3 0f 1e fa          	endbr64
  4027c0:	55                   	push   %rbp
  4027c1:	53                   	push   %rbx
  4027c2:	48 83 ec 08          	sub    $0x8,%rsp
  4027c6:	89 f5                	mov    %esi,%ebp
  4027c8:	48 89 3d 41 4d 00 00 	mov    %rdi,0x4d41(%rip)        # 407510 <global_offset>
  4027cf:	41 b9 00 00 00 00    	mov    $0x0,%r9d
  4027d5:	41 b8 00 00 00 00    	mov    $0x0,%r8d
  4027db:	b9 32 01 00 00       	mov    $0x132,%ecx
  4027e0:	ba 07 00 00 00       	mov    $0x7,%edx
  4027e5:	be 00 00 10 00       	mov    $0x100000,%esi
  4027ea:	bf 00 60 58 55       	mov    $0x55586000,%edi
  4027ef:	e8 bc e8 ff ff       	call   4010b0 <mmap@plt>
  4027f4:	48 89 c3             	mov    %rax,%rbx
  4027f7:	48 3d 00 60 58 55    	cmp    $0x55586000,%rax
  4027fd:	75 4a                	jne    402849 <stable_launch+0x8d>
  4027ff:	48 8d 90 f8 ff 0f 00 	lea    0xffff8(%rax),%rdx
  402806:	48 89 15 fb 4c 00 00 	mov    %rdx,0x4cfb(%rip)        # 407508 <stack_top>
  40280d:	48 89 e0             	mov    %rsp,%rax
  402810:	48 89 d4             	mov    %rdx,%rsp
  402813:	48 89 c2             	mov    %rax,%rdx
  402816:	48 89 15 e3 4c 00 00 	mov    %rdx,0x4ce3(%rip)        # 407500 <global_save_stack>
  40281d:	89 ee                	mov    %ebp,%esi
  40281f:	48 8b 3d ea 4c 00 00 	mov    0x4cea(%rip),%rdi        # 407510 <global_offset>
  402826:	e8 85 fe ff ff       	call   4026b0 <launch>
  40282b:	48 8b 05 ce 4c 00 00 	mov    0x4cce(%rip),%rax        # 407500 <global_save_stack>
  402832:	48 89 c4             	mov    %rax,%rsp
  402835:	be 00 00 10 00       	mov    $0x100000,%esi
  40283a:	48 89 df             	mov    %rbx,%rdi
  40283d:	e8 3e e9 ff ff       	call   401180 <munmap@plt>
  402842:	48 83 c4 08          	add    $0x8,%rsp
  402846:	5b                   	pop    %rbx
  402847:	5d                   	pop    %rbp
  402848:	c3                   	ret
  402849:	be 00 00 10 00       	mov    $0x100000,%esi
  40284e:	48 89 c7             	mov    %rax,%rdi
  402851:	e8 2a e9 ff ff       	call   401180 <munmap@plt>
  402856:	b9 00 60 58 55       	mov    $0x55586000,%ecx
  40285b:	48 8d 15 de 1b 00 00 	lea    0x1bde(%rip),%rdx        # 404440 <_IO_stdin_used+0x440>
  402862:	be 02 00 00 00       	mov    $0x2,%esi
  402867:	48 8b 3d 72 4c 00 00 	mov    0x4c72(%rip),%rdi        # 4074e0 <stderr@GLIBC_2.2.5>
  40286e:	b8 00 00 00 00       	mov    $0x0,%eax
  402873:	e8 88 e9 ff ff       	call   401200 <__fprintf_chk@plt>
  402878:	bf 01 00 00 00       	mov    $0x1,%edi
  40287d:	e8 5e e9 ff ff       	call   4011e0 <exit@plt>

0000000000402882 <rio_readinitb>:
  402882:	89 37                	mov    %esi,(%rdi)
  402884:	c7 47 04 00 00 00 00 	movl   $0x0,0x4(%rdi)
  40288b:	48 8d 47 10          	lea    0x10(%rdi),%rax
  40288f:	48 89 47 08          	mov    %rax,0x8(%rdi)
  402893:	c3                   	ret

0000000000402894 <sigalrm_handler>:
  402894:	f3 0f 1e fa          	endbr64
  402898:	50                   	push   %rax
  402899:	58                   	pop    %rax
  40289a:	48 83 ec 08          	sub    $0x8,%rsp
  40289e:	b9 00 00 00 00       	mov    $0x0,%ecx
  4028a3:	48 8d 15 be 1b 00 00 	lea    0x1bbe(%rip),%rdx        # 404468 <_IO_stdin_used+0x468>
  4028aa:	be 02 00 00 00       	mov    $0x2,%esi
  4028af:	48 8b 3d 2a 4c 00 00 	mov    0x4c2a(%rip),%rdi        # 4074e0 <stderr@GLIBC_2.2.5>
  4028b6:	b8 00 00 00 00       	mov    $0x0,%eax
  4028bb:	e8 40 e9 ff ff       	call   401200 <__fprintf_chk@plt>
  4028c0:	bf 01 00 00 00       	mov    $0x1,%edi
  4028c5:	e8 16 e9 ff ff       	call   4011e0 <exit@plt>

00000000004028ca <rio_writen>:
  4028ca:	41 55                	push   %r13
  4028cc:	41 54                	push   %r12
  4028ce:	55                   	push   %rbp
  4028cf:	53                   	push   %rbx
  4028d0:	48 83 ec 08          	sub    $0x8,%rsp
  4028d4:	41 89 fc             	mov    %edi,%r12d
  4028d7:	48 89 f5             	mov    %rsi,%rbp
  4028da:	49 89 d5             	mov    %rdx,%r13
  4028dd:	48 89 d3             	mov    %rdx,%rbx
  4028e0:	eb 06                	jmp    4028e8 <rio_writen+0x1e>
  4028e2:	48 29 c3             	sub    %rax,%rbx
  4028e5:	48 01 c5             	add    %rax,%rbp
  4028e8:	48 85 db             	test   %rbx,%rbx
  4028eb:	74 24                	je     402911 <rio_writen+0x47>
  4028ed:	48 89 da             	mov    %rbx,%rdx
  4028f0:	48 89 ee             	mov    %rbp,%rsi
  4028f3:	44 89 e7             	mov    %r12d,%edi
  4028f6:	e8 95 e7 ff ff       	call   401090 <write@plt>
  4028fb:	48 85 c0             	test   %rax,%rax
  4028fe:	7f e2                	jg     4028e2 <rio_writen+0x18>
  402900:	e8 2b e7 ff ff       	call   401030 <__errno_location@plt>
  402905:	83 38 04             	cmpl   $0x4,(%rax)
  402908:	75 15                	jne    40291f <rio_writen+0x55>
  40290a:	b8 00 00 00 00       	mov    $0x0,%eax
  40290f:	eb d1                	jmp    4028e2 <rio_writen+0x18>
  402911:	4c 89 e8             	mov    %r13,%rax
  402914:	48 83 c4 08          	add    $0x8,%rsp
  402918:	5b                   	pop    %rbx
  402919:	5d                   	pop    %rbp
  40291a:	41 5c                	pop    %r12
  40291c:	41 5d                	pop    %r13
  40291e:	c3                   	ret
  40291f:	48 c7 c0 ff ff ff ff 	mov    $0xffffffffffffffff,%rax
  402926:	eb ec                	jmp    402914 <rio_writen+0x4a>

0000000000402928 <rio_read>:
  402928:	41 55                	push   %r13
  40292a:	41 54                	push   %r12
  40292c:	55                   	push   %rbp
  40292d:	53                   	push   %rbx
  40292e:	48 83 ec 08          	sub    $0x8,%rsp
  402932:	48 89 fb             	mov    %rdi,%rbx
  402935:	49 89 f5             	mov    %rsi,%r13
  402938:	49 89 d4             	mov    %rdx,%r12
  40293b:	eb 0a                	jmp    402947 <rio_read+0x1f>
  40293d:	e8 ee e6 ff ff       	call   401030 <__errno_location@plt>
  402942:	83 38 04             	cmpl   $0x4,(%rax)
  402945:	75 5f                	jne    4029a6 <rio_read+0x7e>
  402947:	8b 6b 04             	mov    0x4(%rbx),%ebp
  40294a:	85 ed                	test   %ebp,%ebp
  40294c:	7f 22                	jg     402970 <rio_read+0x48>
  40294e:	48 8d 6b 10          	lea    0x10(%rbx),%rbp
  402952:	8b 3b                	mov    (%rbx),%edi
  402954:	ba 00 20 00 00       	mov    $0x2000,%edx
  402959:	48 89 ee             	mov    %rbp,%rsi
  40295c:	e8 7f e7 ff ff       	call   4010e0 <read@plt>
  402961:	89 43 04             	mov    %eax,0x4(%rbx)
  402964:	85 c0                	test   %eax,%eax
  402966:	78 d5                	js     40293d <rio_read+0x15>
  402968:	74 45                	je     4029af <rio_read+0x87>
  40296a:	48 89 6b 08          	mov    %rbp,0x8(%rbx)
  40296e:	eb d7                	jmp    402947 <rio_read+0x1f>
  402970:	89 e8                	mov    %ebp,%eax
  402972:	4c 39 e0             	cmp    %r12,%rax
  402975:	72 03                	jb     40297a <rio_read+0x52>
  402977:	44 89 e5             	mov    %r12d,%ebp
  40297a:	4c 63 e5             	movslq %ebp,%r12
  40297d:	48 8b 73 08          	mov    0x8(%rbx),%rsi
  402981:	4c 89 e2             	mov    %r12,%rdx
  402984:	4c 89 ef             	mov    %r13,%rdi
  402987:	e8 b4 e7 ff ff       	call   401140 <memcpy@plt>
  40298c:	4c 01 63 08          	add    %r12,0x8(%rbx)
  402990:	8b 43 04             	mov    0x4(%rbx),%eax
  402993:	29 e8                	sub    %ebp,%eax
  402995:	89 43 04             	mov    %eax,0x4(%rbx)
  402998:	4c 89 e0             	mov    %r12,%rax
  40299b:	48 83 c4 08          	add    $0x8,%rsp
  40299f:	5b                   	pop    %rbx
  4029a0:	5d                   	pop    %rbp
  4029a1:	41 5c                	pop    %r12
  4029a3:	41 5d                	pop    %r13
  4029a5:	c3                   	ret
  4029a6:	48 c7 c0 ff ff ff ff 	mov    $0xffffffffffffffff,%rax
  4029ad:	eb ec                	jmp    40299b <rio_read+0x73>
  4029af:	b8 00 00 00 00       	mov    $0x0,%eax
  4029b4:	eb e5                	jmp    40299b <rio_read+0x73>

00000000004029b6 <rio_readlineb>:
  4029b6:	41 55                	push   %r13
  4029b8:	41 54                	push   %r12
  4029ba:	55                   	push   %rbp
  4029bb:	53                   	push   %rbx
  4029bc:	48 83 ec 18          	sub    $0x18,%rsp
  4029c0:	49 89 fd             	mov    %rdi,%r13
  4029c3:	48 89 f5             	mov    %rsi,%rbp
  4029c6:	49 89 d4             	mov    %rdx,%r12
  4029c9:	64 48 8b 04 25 28 00 	mov    %fs:0x28,%rax
  4029d0:	00 00 
  4029d2:	48 89 44 24 08       	mov    %rax,0x8(%rsp)
  4029d7:	31 c0                	xor    %eax,%eax
  4029d9:	bb 01 00 00 00       	mov    $0x1,%ebx
  4029de:	eb 18                	jmp    4029f8 <rio_readlineb+0x42>
  4029e0:	85 c0                	test   %eax,%eax
  4029e2:	75 65                	jne    402a49 <rio_readlineb+0x93>
  4029e4:	48 83 fb 01          	cmp    $0x1,%rbx
  4029e8:	75 3d                	jne    402a27 <rio_readlineb+0x71>
  4029ea:	b8 00 00 00 00       	mov    $0x0,%eax
  4029ef:	eb 3d                	jmp    402a2e <rio_readlineb+0x78>
  4029f1:	48 83 c3 01          	add    $0x1,%rbx
  4029f5:	48 89 d5             	mov    %rdx,%rbp
  4029f8:	4c 39 e3             	cmp    %r12,%rbx
  4029fb:	73 2a                	jae    402a27 <rio_readlineb+0x71>
  4029fd:	48 8d 74 24 07       	lea    0x7(%rsp),%rsi
  402a02:	ba 01 00 00 00       	mov    $0x1,%edx
  402a07:	4c 89 ef             	mov    %r13,%rdi
  402a0a:	e8 19 ff ff ff       	call   402928 <rio_read>
  402a0f:	83 f8 01             	cmp    $0x1,%eax
  402a12:	75 cc                	jne    4029e0 <rio_readlineb+0x2a>
  402a14:	48 8d 55 01          	lea    0x1(%rbp),%rdx
  402a18:	0f b6 44 24 07       	movzbl 0x7(%rsp),%eax
  402a1d:	88 45 00             	mov    %al,0x0(%rbp)
  402a20:	3c 0a                	cmp    $0xa,%al
  402a22:	75 cd                	jne    4029f1 <rio_readlineb+0x3b>
  402a24:	48 89 d5             	mov    %rdx,%rbp
  402a27:	c6 45 00 00          	movb   $0x0,0x0(%rbp)
  402a2b:	48 89 d8             	mov    %rbx,%rax
  402a2e:	48 8b 54 24 08       	mov    0x8(%rsp),%rdx
  402a33:	64 48 2b 14 25 28 00 	sub    %fs:0x28,%rdx
  402a3a:	00 00 
  402a3c:	75 14                	jne    402a52 <rio_readlineb+0x9c>
  402a3e:	48 83 c4 18          	add    $0x18,%rsp
  402a42:	5b                   	pop    %rbx
  402a43:	5d                   	pop    %rbp
  402a44:	41 5c                	pop    %r12
  402a46:	41 5d                	pop    %r13
  402a48:	c3                   	ret
  402a49:	48 c7 c0 ff ff ff ff 	mov    $0xffffffffffffffff,%rax
  402a50:	eb dc                	jmp    402a2e <rio_readlineb+0x78>
  402a52:	e8 ff fb ff ff       	call   402656 <__stack_chk_fail>

0000000000402a57 <urlencode>:
  402a57:	41 54                	push   %r12
  402a59:	55                   	push   %rbp
  402a5a:	53                   	push   %rbx
  402a5b:	48 83 ec 10          	sub    $0x10,%rsp
  402a5f:	48 89 fb             	mov    %rdi,%rbx
  402a62:	48 89 f5             	mov    %rsi,%rbp
  402a65:	64 48 8b 04 25 28 00 	mov    %fs:0x28,%rax
  402a6c:	00 00 
  402a6e:	48 89 44 24 08       	mov    %rax,0x8(%rsp)
  402a73:	31 c0                	xor    %eax,%eax
  402a75:	e8 26 e6 ff ff       	call   4010a0 <strlen@plt>
  402a7a:	eb 0f                	jmp    402a8b <urlencode+0x34>
  402a7c:	44 88 45 00          	mov    %r8b,0x0(%rbp)
  402a80:	48 8d 6d 01          	lea    0x1(%rbp),%rbp
  402a84:	48 83 c3 01          	add    $0x1,%rbx
  402a88:	44 89 e0             	mov    %r12d,%eax
  402a8b:	44 8d 60 ff          	lea    -0x1(%rax),%r12d
  402a8f:	85 c0                	test   %eax,%eax
  402a91:	0f 84 a8 00 00 00    	je     402b3f <urlencode+0xe8>
  402a97:	44 0f b6 03          	movzbl (%rbx),%r8d
  402a9b:	41 80 f8 2a          	cmp    $0x2a,%r8b
  402a9f:	0f 94 c0             	sete   %al
  402aa2:	41 80 f8 2d          	cmp    $0x2d,%r8b
  402aa6:	0f 94 c2             	sete   %dl
  402aa9:	08 d0                	or     %dl,%al
  402aab:	75 cf                	jne    402a7c <urlencode+0x25>
  402aad:	41 80 f8 2e          	cmp    $0x2e,%r8b
  402ab1:	74 c9                	je     402a7c <urlencode+0x25>
  402ab3:	41 80 f8 5f          	cmp    $0x5f,%r8b
  402ab7:	74 c3                	je     402a7c <urlencode+0x25>
  402ab9:	41 8d 40 d0          	lea    -0x30(%r8),%eax
  402abd:	3c 09                	cmp    $0x9,%al
  402abf:	76 bb                	jbe    402a7c <urlencode+0x25>
  402ac1:	41 8d 40 bf          	lea    -0x41(%r8),%eax
  402ac5:	3c 19                	cmp    $0x19,%al
  402ac7:	76 b3                	jbe    402a7c <urlencode+0x25>
  402ac9:	41 8d 40 9f          	lea    -0x61(%r8),%eax
  402acd:	3c 19                	cmp    $0x19,%al
  402acf:	76 ab                	jbe    402a7c <urlencode+0x25>
  402ad1:	41 80 f8 20          	cmp    $0x20,%r8b
  402ad5:	74 56                	je     402b2d <urlencode+0xd6>
  402ad7:	41 8d 40 e0          	lea    -0x20(%r8),%eax
  402adb:	3c 5f                	cmp    $0x5f,%al
  402add:	0f 96 c0             	setbe  %al
  402ae0:	41 80 f8 09          	cmp    $0x9,%r8b
  402ae4:	0f 94 c2             	sete   %dl
  402ae7:	08 d0                	or     %dl,%al
  402ae9:	74 4f                	je     402b3a <urlencode+0xe3>
  402aeb:	48 89 e7             	mov    %rsp,%rdi
  402aee:	45 0f b6 c0          	movzbl %r8b,%r8d
  402af2:	48 8d 0d 5d 1c 00 00 	lea    0x1c5d(%rip),%rcx        # 404756 <_IO_stdin_used+0x756>
  402af9:	ba 08 00 00 00       	mov    $0x8,%edx
  402afe:	be 02 00 00 00       	mov    $0x2,%esi
  402b03:	b8 00 00 00 00       	mov    $0x0,%eax
  402b08:	e8 13 e7 ff ff       	call   401220 <__sprintf_chk@plt>
  402b0d:	0f b6 04 24          	movzbl (%rsp),%eax
  402b11:	88 45 00             	mov    %al,0x0(%rbp)
  402b14:	0f b6 44 24 01       	movzbl 0x1(%rsp),%eax
  402b19:	88 45 01             	mov    %al,0x1(%rbp)
  402b1c:	0f b6 44 24 02       	movzbl 0x2(%rsp),%eax
  402b21:	88 45 02             	mov    %al,0x2(%rbp)
  402b24:	48 8d 6d 03          	lea    0x3(%rbp),%rbp
  402b28:	e9 57 ff ff ff       	jmp    402a84 <urlencode+0x2d>
  402b2d:	c6 45 00 2b          	movb   $0x2b,0x0(%rbp)
  402b31:	48 8d 6d 01          	lea    0x1(%rbp),%rbp
  402b35:	e9 4a ff ff ff       	jmp    402a84 <urlencode+0x2d>
  402b3a:	b8 ff ff ff ff       	mov    $0xffffffff,%eax
  402b3f:	48 8b 54 24 08       	mov    0x8(%rsp),%rdx
  402b44:	64 48 2b 14 25 28 00 	sub    %fs:0x28,%rdx
  402b4b:	00 00 
  402b4d:	75 09                	jne    402b58 <urlencode+0x101>
  402b4f:	48 83 c4 10          	add    $0x10,%rsp
  402b53:	5b                   	pop    %rbx
  402b54:	5d                   	pop    %rbp
  402b55:	41 5c                	pop    %r12
  402b57:	c3                   	ret
  402b58:	e8 f9 fa ff ff       	call   402656 <__stack_chk_fail>

0000000000402b5d <submitr>:
  402b5d:	f3 0f 1e fa          	endbr64
  402b61:	41 57                	push   %r15
  402b63:	41 56                	push   %r14
  402b65:	41 55                	push   %r13
  402b67:	41 54                	push   %r12
  402b69:	55                   	push   %rbp
  402b6a:	53                   	push   %rbx
  402b6b:	4c 8d 9c 24 00 60 ff 	lea    -0xa000(%rsp),%r11
  402b72:	ff 
  402b73:	48 81 ec 00 10 00 00 	sub    $0x1000,%rsp
  402b7a:	48 83 0c 24 00       	orq    $0x0,(%rsp)
  402b7f:	4c 39 dc             	cmp    %r11,%rsp
  402b82:	75 ef                	jne    402b73 <submitr+0x16>
  402b84:	48 83 ec 68          	sub    $0x68,%rsp
  402b88:	49 89 fd             	mov    %rdi,%r13
  402b8b:	41 89 f6             	mov    %esi,%r14d
  402b8e:	48 89 54 24 10       	mov    %rdx,0x10(%rsp)
  402b93:	49 89 cc             	mov    %rcx,%r12
  402b96:	4c 89 44 24 18       	mov    %r8,0x18(%rsp)
  402b9b:	4c 89 4c 24 08       	mov    %r9,0x8(%rsp)
  402ba0:	4c 8b bc 24 a0 a0 00 	mov    0xa0a0(%rsp),%r15
  402ba7:	00 
  402ba8:	64 48 8b 04 25 28 00 	mov    %fs:0x28,%rax
  402baf:	00 00 
  402bb1:	48 89 84 24 58 a0 00 	mov    %rax,0xa058(%rsp)
  402bb8:	00 
  402bb9:	31 c0                	xor    %eax,%eax
  402bbb:	c7 44 24 2c 00 00 00 	movl   $0x0,0x2c(%rsp)
  402bc2:	00 
  402bc3:	ba 00 00 00 00       	mov    $0x0,%edx
  402bc8:	be 01 00 00 00       	mov    $0x1,%esi
  402bcd:	bf 02 00 00 00       	mov    $0x2,%edi
  402bd2:	e8 59 e6 ff ff       	call   401230 <socket@plt>
  402bd7:	85 c0                	test   %eax,%eax
  402bd9:	0f 88 72 02 00 00    	js     402e51 <submitr+0x2f4>
  402bdf:	89 c3                	mov    %eax,%ebx
  402be1:	4c 89 ef             	mov    %r13,%rdi
  402be4:	e8 27 e5 ff ff       	call   401110 <gethostbyname@plt>
  402be9:	48 85 c0             	test   %rax,%rax
  402bec:	0f 84 ab 02 00 00    	je     402e9d <submitr+0x340>
  402bf2:	48 8d 6c 24 30       	lea    0x30(%rsp),%rbp
  402bf7:	66 0f ef c0          	pxor   %xmm0,%xmm0
  402bfb:	0f 29 44 24 30       	movaps %xmm0,0x30(%rsp)
  402c00:	66 c7 44 24 30 02 00 	movw   $0x2,0x30(%rsp)
  402c07:	48 63 50 14          	movslq 0x14(%rax),%rdx
  402c0b:	48 8b 40 18          	mov    0x18(%rax),%rax
  402c0f:	48 8b 30             	mov    (%rax),%rsi
  402c12:	48 8d 7c 24 34       	lea    0x34(%rsp),%rdi
  402c17:	b9 0c 00 00 00       	mov    $0xc,%ecx
  402c1c:	e8 ff e4 ff ff       	call   401120 <__memmove_chk@plt>
  402c21:	66 41 c1 c6 08       	rol    $0x8,%r14w
  402c26:	66 44 89 74 24 32    	mov    %r14w,0x32(%rsp)
  402c2c:	ba 10 00 00 00       	mov    $0x10,%edx
  402c31:	48 89 ee             	mov    %rbp,%rsi
  402c34:	89 df                	mov    %ebx,%edi
  402c36:	e8 b5 e5 ff ff       	call   4011f0 <connect@plt>
  402c3b:	85 c0                	test   %eax,%eax
  402c3d:	0f 88 cc 02 00 00    	js     402f0f <submitr+0x3b2>
  402c43:	48 8b 7c 24 08       	mov    0x8(%rsp),%rdi
  402c48:	e8 53 e4 ff ff       	call   4010a0 <strlen@plt>
  402c4d:	49 89 c6             	mov    %rax,%r14
  402c50:	48 8b 7c 24 10       	mov    0x10(%rsp),%rdi
  402c55:	e8 46 e4 ff ff       	call   4010a0 <strlen@plt>
  402c5a:	48 89 c5             	mov    %rax,%rbp
  402c5d:	4c 89 e7             	mov    %r12,%rdi
  402c60:	e8 3b e4 ff ff       	call   4010a0 <strlen@plt>
  402c65:	48 01 c5             	add    %rax,%rbp
  402c68:	48 8b 7c 24 18       	mov    0x18(%rsp),%rdi
  402c6d:	e8 2e e4 ff ff       	call   4010a0 <strlen@plt>
  402c72:	48 01 c5             	add    %rax,%rbp
  402c75:	4b 8d 04 76          	lea    (%r14,%r14,2),%rax
  402c79:	48 8d 84 05 80 00 00 	lea    0x80(%rbp,%rax,1),%rax
  402c80:	00 
  402c81:	48 3d 00 20 00 00    	cmp    $0x2000,%rax
  402c87:	0f 87 e6 02 00 00    	ja     402f73 <submitr+0x416>
  402c8d:	48 8d b4 24 50 40 00 	lea    0x4050(%rsp),%rsi
  402c94:	00 
  402c95:	b9 00 04 00 00       	mov    $0x400,%ecx
  402c9a:	b8 00 00 00 00       	mov    $0x0,%eax
  402c9f:	48 89 f7             	mov    %rsi,%rdi
  402ca2:	f3 48 ab             	rep stos %rax,%es:(%rdi)
  402ca5:	48 8b 7c 24 08       	mov    0x8(%rsp),%rdi
  402caa:	e8 a8 fd ff ff       	call   402a57 <urlencode>
  402caf:	85 c0                	test   %eax,%eax
  402cb1:	0f 88 2e 03 00 00    	js     402fe5 <submitr+0x488>
  402cb7:	48 8d ac 24 50 20 00 	lea    0x2050(%rsp),%rbp
  402cbe:	00 
  402cbf:	48 83 ec 08          	sub    $0x8,%rsp
  402cc3:	41 55                	push   %r13
  402cc5:	48 8d 84 24 60 40 00 	lea    0x4060(%rsp),%rax
  402ccc:	00 
  402ccd:	50                   	push   %rax
  402cce:	41 54                	push   %r12
  402cd0:	4c 8b 4c 24 38       	mov    0x38(%rsp),%r9
  402cd5:	4c 8b 44 24 30       	mov    0x30(%rsp),%r8
  402cda:	48 8d 0d af 17 00 00 	lea    0x17af(%rip),%rcx        # 404490 <_IO_stdin_used+0x490>
  402ce1:	ba 00 20 00 00       	mov    $0x2000,%edx
  402ce6:	be 02 00 00 00       	mov    $0x2,%esi
  402ceb:	48 89 ef             	mov    %rbp,%rdi
  402cee:	b8 00 00 00 00       	mov    $0x0,%eax
  402cf3:	e8 28 e5 ff ff       	call   401220 <__sprintf_chk@plt>
  402cf8:	48 83 c4 20          	add    $0x20,%rsp
  402cfc:	48 89 ef             	mov    %rbp,%rdi
  402cff:	e8 9c e3 ff ff       	call   4010a0 <strlen@plt>
  402d04:	48 89 c2             	mov    %rax,%rdx
  402d07:	48 89 ee             	mov    %rbp,%rsi
  402d0a:	89 df                	mov    %ebx,%edi
  402d0c:	e8 b9 fb ff ff       	call   4028ca <rio_writen>
  402d11:	48 85 c0             	test   %rax,%rax
  402d14:	0f 88 53 03 00 00    	js     40306d <submitr+0x510>
  402d1a:	48 8d 6c 24 40       	lea    0x40(%rsp),%rbp
  402d1f:	89 de                	mov    %ebx,%esi
  402d21:	48 89 ef             	mov    %rbp,%rdi
  402d24:	e8 59 fb ff ff       	call   402882 <rio_readinitb>
  402d29:	48 8d b4 24 50 20 00 	lea    0x2050(%rsp),%rsi
  402d30:	00 
  402d31:	ba 00 20 00 00       	mov    $0x2000,%edx
  402d36:	48 89 ef             	mov    %rbp,%rdi
  402d39:	e8 78 fc ff ff       	call   4029b6 <rio_readlineb>
  402d3e:	48 85 c0             	test   %rax,%rax
  402d41:	0f 8e 92 03 00 00    	jle    4030d9 <submitr+0x57c>
  402d47:	48 8d 4c 24 2c       	lea    0x2c(%rsp),%rcx
  402d4c:	48 8d 94 24 50 60 00 	lea    0x6050(%rsp),%rdx
  402d53:	00 
  402d54:	48 8d bc 24 50 20 00 	lea    0x2050(%rsp),%rdi
  402d5b:	00 
  402d5c:	4c 8d 84 24 50 80 00 	lea    0x8050(%rsp),%r8
  402d63:	00 
  402d64:	48 8d 35 f2 19 00 00 	lea    0x19f2(%rip),%rsi        # 40475d <_IO_stdin_used+0x75d>
  402d6b:	b8 00 00 00 00       	mov    $0x0,%eax
  402d70:	e8 fb e3 ff ff       	call   401170 <__isoc99_sscanf@plt>
  402d75:	48 8d bc 24 50 20 00 	lea    0x2050(%rsp),%rdi
  402d7c:	00 
  402d7d:	48 8d 35 f0 19 00 00 	lea    0x19f0(%rip),%rsi        # 404774 <_IO_stdin_used+0x774>
  402d84:	e8 67 e3 ff ff       	call   4010f0 <strcmp@plt>
  402d89:	85 c0                	test   %eax,%eax
  402d8b:	0f 84 c8 03 00 00    	je     403159 <submitr+0x5fc>
  402d91:	48 8d b4 24 50 20 00 	lea    0x2050(%rsp),%rsi
  402d98:	00 
  402d99:	48 8d 7c 24 40       	lea    0x40(%rsp),%rdi
  402d9e:	ba 00 20 00 00       	mov    $0x2000,%edx
  402da3:	e8 0e fc ff ff       	call   4029b6 <rio_readlineb>
  402da8:	48 85 c0             	test   %rax,%rax
  402dab:	7f c8                	jg     402d75 <submitr+0x218>
  402dad:	48 b8 45 72 72 6f 72 	movabs $0x43203a726f727245,%rax
  402db4:	3a 20 43 
  402db7:	48 ba 6c 69 65 6e 74 	movabs $0x6e7520746e65696c,%rdx
  402dbe:	20 75 6e 
  402dc1:	49 89 07             	mov    %rax,(%r15)
  402dc4:	49 89 57 08          	mov    %rdx,0x8(%r15)
  402dc8:	48 b8 61 62 6c 65 20 	movabs $0x206f7420656c6261,%rax
  402dcf:	74 6f 20 
  402dd2:	48 ba 72 65 61 64 20 	movabs $0x6165682064616572,%rdx
  402dd9:	68 65 61 
  402ddc:	49 89 47 10          	mov    %rax,0x10(%r15)
  402de0:	49 89 57 18          	mov    %rdx,0x18(%r15)
  402de4:	48 b8 64 65 72 73 20 	movabs $0x6f72662073726564,%rax
  402deb:	66 72 6f 
  402dee:	48 ba 6d 20 41 75 74 	movabs $0x616c6f747541206d,%rdx
  402df5:	6f 6c 61 
  402df8:	49 89 47 20          	mov    %rax,0x20(%r15)
  402dfc:	49 89 57 28          	mov    %rdx,0x28(%r15)
  402e00:	48 b8 20 41 75 74 6f 	movabs $0x62616c6f74754120,%rax
  402e07:	6c 61 62 
  402e0a:	48 ba 20 73 65 72 76 	movabs $0x72657672657320,%rdx
  402e11:	65 72 00 
  402e14:	49 89 47 29          	mov    %rax,0x29(%r15)
  402e18:	49 89 57 31          	mov    %rdx,0x31(%r15)
  402e1c:	89 df                	mov    %ebx,%edi
  402e1e:	e8 ad e2 ff ff       	call   4010d0 <close@plt>
  402e23:	b8 ff ff ff ff       	mov    $0xffffffff,%eax
  402e28:	48 8b 94 24 58 a0 00 	mov    0xa058(%rsp),%rdx
  402e2f:	00 
  402e30:	64 48 2b 14 25 28 00 	sub    %fs:0x28,%rdx
  402e37:	00 00 
  402e39:	0f 85 67 04 00 00    	jne    4032a6 <submitr+0x749>
  402e3f:	48 81 c4 68 a0 00 00 	add    $0xa068,%rsp
  402e46:	5b                   	pop    %rbx
  402e47:	5d                   	pop    %rbp
  402e48:	41 5c                	pop    %r12
  402e4a:	41 5d                	pop    %r13
  402e4c:	41 5e                	pop    %r14
  402e4e:	41 5f                	pop    %r15
  402e50:	c3                   	ret
  402e51:	48 b8 45 72 72 6f 72 	movabs $0x43203a726f727245,%rax
  402e58:	3a 20 43 
  402e5b:	48 ba 6c 69 65 6e 74 	movabs $0x6e7520746e65696c,%rdx
  402e62:	20 75 6e 
  402e65:	49 89 07             	mov    %rax,(%r15)
  402e68:	49 89 57 08          	mov    %rdx,0x8(%r15)
  402e6c:	48 b8 61 62 6c 65 20 	movabs $0x206f7420656c6261,%rax
  402e73:	74 6f 20 
  402e76:	48 ba 63 72 65 61 74 	movabs $0x7320657461657263,%rdx
  402e7d:	65 20 73 
  402e80:	49 89 47 10          	mov    %rax,0x10(%r15)
  402e84:	49 89 57 18          	mov    %rdx,0x18(%r15)
  402e88:	48 b8 20 73 6f 63 6b 	movabs $0x74656b636f7320,%rax
  402e8f:	65 74 00 
  402e92:	49 89 47 1e          	mov    %rax,0x1e(%r15)
  402e96:	b8 ff ff ff ff       	mov    $0xffffffff,%eax
  402e9b:	eb 8b                	jmp    402e28 <submitr+0x2cb>
  402e9d:	48 b8 45 72 72 6f 72 	movabs $0x44203a726f727245,%rax
  402ea4:	3a 20 44 
  402ea7:	48 ba 4e 53 20 69 73 	movabs $0x6e7520736920534e,%rdx
  402eae:	20 75 6e 
  402eb1:	49 89 07             	mov    %rax,(%r15)
  402eb4:	49 89 57 08          	mov    %rdx,0x8(%r15)
  402eb8:	48 b8 61 62 6c 65 20 	movabs $0x206f7420656c6261,%rax
  402ebf:	74 6f 20 
  402ec2:	48 ba 72 65 73 6f 6c 	movabs $0x2065766c6f736572,%rdx
  402ec9:	76 65 20 
  402ecc:	49 89 47 10          	mov    %rax,0x10(%r15)
  402ed0:	49 89 57 18          	mov    %rdx,0x18(%r15)
  402ed4:	48 b8 41 75 74 6f 6c 	movabs $0x2062616c6f747541,%rax
  402edb:	61 62 20 
  402ede:	48 ba 73 65 72 76 65 	movabs $0x6120726576726573,%rdx
  402ee5:	72 20 61 
  402ee8:	49 89 47 20          	mov    %rax,0x20(%r15)
  402eec:	49 89 57 28          	mov    %rdx,0x28(%r15)
  402ef0:	48 b8 61 64 64 72 65 	movabs $0x73736572646461,%rax
  402ef7:	73 73 00 
  402efa:	49 89 47 2f          	mov    %rax,0x2f(%r15)
  402efe:	89 df                	mov    %ebx,%edi
  402f00:	e8 cb e1 ff ff       	call   4010d0 <close@plt>
  402f05:	b8 ff ff ff ff       	mov    $0xffffffff,%eax
  402f0a:	e9 19 ff ff ff       	jmp    402e28 <submitr+0x2cb>
  402f0f:	48 b8 45 72 72 6f 72 	movabs $0x55203a726f727245,%rax
  402f16:	3a 20 55 
  402f19:	48 ba 6e 61 62 6c 65 	movabs $0x6f7420656c62616e,%rdx
  402f20:	20 74 6f 
  402f23:	49 89 07             	mov    %rax,(%r15)
  402f26:	49 89 57 08          	mov    %rdx,0x8(%r15)
  402f2a:	48 b8 20 63 6f 6e 6e 	movabs $0x7463656e6e6f6320,%rax
  402f31:	65 63 74 
  402f34:	48 ba 20 74 6f 20 74 	movabs $0x20656874206f7420,%rdx
  402f3b:	68 65 20 
  402f3e:	49 89 47 10          	mov    %rax,0x10(%r15)
  402f42:	49 89 57 18          	mov    %rdx,0x18(%r15)
  402f46:	48 b8 20 41 75 74 6f 	movabs $0x62616c6f74754120,%rax
  402f4d:	6c 61 62 
  402f50:	48 ba 20 73 65 72 76 	movabs $0x72657672657320,%rdx
  402f57:	65 72 00 
  402f5a:	49 89 47 1f          	mov    %rax,0x1f(%r15)
  402f5e:	49 89 57 27          	mov    %rdx,0x27(%r15)
  402f62:	89 df                	mov    %ebx,%edi
  402f64:	e8 67 e1 ff ff       	call   4010d0 <close@plt>
  402f69:	b8 ff ff ff ff       	mov    $0xffffffff,%eax
  402f6e:	e9 b5 fe ff ff       	jmp    402e28 <submitr+0x2cb>
  402f73:	48 b8 45 72 72 6f 72 	movabs $0x52203a726f727245,%rax
  402f7a:	3a 20 52 
  402f7d:	48 ba 65 73 75 6c 74 	movabs $0x747320746c757365,%rdx
  402f84:	20 73 74 
  402f87:	49 89 07             	mov    %rax,(%r15)
  402f8a:	49 89 57 08          	mov    %rdx,0x8(%r15)
  402f8e:	48 b8 72 69 6e 67 20 	movabs $0x6f6f7420676e6972,%rax
  402f95:	74 6f 6f 
  402f98:	48 ba 20 6c 61 72 67 	movabs $0x202e656772616c20,%rdx
  402f9f:	65 2e 20 
  402fa2:	49 89 47 10          	mov    %rax,0x10(%r15)
  402fa6:	49 89 57 18          	mov    %rdx,0x18(%r15)
  402faa:	48 b8 49 6e 63 72 65 	movabs $0x6573616572636e49,%rax
  402fb1:	61 73 65 
  402fb4:	48 ba 20 53 55 42 4d 	movabs $0x5254494d42555320,%rdx
  402fbb:	49 54 52 
  402fbe:	49 89 47 20          	mov    %rax,0x20(%r15)
  402fc2:	49 89 57 28          	mov    %rdx,0x28(%r15)
  402fc6:	48 b8 5f 4d 41 58 42 	movabs $0x46554258414d5f,%rax
  402fcd:	55 46 00 
  402fd0:	49 89 47 30          	mov    %rax,0x30(%r15)
  402fd4:	89 df                	mov    %ebx,%edi
  402fd6:	e8 f5 e0 ff ff       	call   4010d0 <close@plt>
  402fdb:	b8 ff ff ff ff       	mov    $0xffffffff,%eax
  402fe0:	e9 43 fe ff ff       	jmp    402e28 <submitr+0x2cb>
  402fe5:	48 b8 45 72 72 6f 72 	movabs $0x55203a726f727245,%rax
  402fec:	3a 20 55 
  402fef:	48 ba 73 65 72 69 64 	movabs $0x7473206469726573,%rdx
  402ff6:	20 73 74 
  402ff9:	49 89 07             	mov    %rax,(%r15)
  402ffc:	49 89 57 08          	mov    %rdx,0x8(%r15)
  403000:	48 b8 72 69 6e 67 20 	movabs $0x6e6f6320676e6972,%rax
  403007:	63 6f 6e 
  40300a:	48 ba 74 61 69 6e 73 	movabs $0x6e6120736e696174,%rdx
  403011:	20 61 6e 
  403014:	49 89 47 10          	mov    %rax,0x10(%r15)
  403018:	49 89 57 18          	mov    %rdx,0x18(%r15)
  40301c:	48 b8 20 69 6c 6c 65 	movabs $0x6c6167656c6c6920,%rax
  403023:	67 61 6c 
  403026:	48 ba 20 6f 72 20 75 	movabs $0x72706e7520726f20,%rdx
  40302d:	6e 70 72 
  403030:	49 89 47 20          	mov    %rax,0x20(%r15)
  403034:	49 89 57 28          	mov    %rdx,0x28(%r15)
  403038:	48 b8 69 6e 74 61 62 	movabs $0x20656c6261746e69,%rax
  40303f:	6c 65 20 
  403042:	48 ba 63 68 61 72 61 	movabs $0x6574636172616863,%rdx
  403049:	63 74 65 
  40304c:	49 89 47 30          	mov    %rax,0x30(%r15)
  403050:	49 89 57 38          	mov    %rdx,0x38(%r15)
  403054:	41 c7 47 3f 65 72 2e 	movl   $0x2e7265,0x3f(%r15)
  40305b:	00 
  40305c:	89 df                	mov    %ebx,%edi
  40305e:	e8 6d e0 ff ff       	call   4010d0 <close@plt>
  403063:	b8 ff ff ff ff       	mov    $0xffffffff,%eax
  403068:	e9 bb fd ff ff       	jmp    402e28 <submitr+0x2cb>
  40306d:	48 b8 45 72 72 6f 72 	movabs $0x43203a726f727245,%rax
  403074:	3a 20 43 
  403077:	48 ba 6c 69 65 6e 74 	movabs $0x6e7520746e65696c,%rdx
  40307e:	20 75 6e 
  403081:	49 89 07             	mov    %rax,(%r15)
  403084:	49 89 57 08          	mov    %rdx,0x8(%r15)
  403088:	48 b8 61 62 6c 65 20 	movabs $0x206f7420656c6261,%rax
  40308f:	74 6f 20 
  403092:	48 ba 77 72 69 74 65 	movabs $0x6f74206574697277,%rdx
  403099:	20 74 6f 
  40309c:	49 89 47 10          	mov    %rax,0x10(%r15)
  4030a0:	49 89 57 18          	mov    %rdx,0x18(%r15)
  4030a4:	48 b8 20 74 68 65 20 	movabs $0x7475412065687420,%rax
  4030ab:	41 75 74 
  4030ae:	48 ba 6f 6c 61 62 20 	movabs $0x7265732062616c6f,%rdx
  4030b5:	73 65 72 
  4030b8:	49 89 47 20          	mov    %rax,0x20(%r15)
  4030bc:	49 89 57 28          	mov    %rdx,0x28(%r15)
  4030c0:	41 c7 47 30 76 65 72 	movl   $0x726576,0x30(%r15)
  4030c7:	00 
  4030c8:	89 df                	mov    %ebx,%edi
  4030ca:	e8 01 e0 ff ff       	call   4010d0 <close@plt>
  4030cf:	b8 ff ff ff ff       	mov    $0xffffffff,%eax
  4030d4:	e9 4f fd ff ff       	jmp    402e28 <submitr+0x2cb>
  4030d9:	48 b8 45 72 72 6f 72 	movabs $0x43203a726f727245,%rax
  4030e0:	3a 20 43 
  4030e3:	48 ba 6c 69 65 6e 74 	movabs $0x6e7520746e65696c,%rdx
  4030ea:	20 75 6e 
  4030ed:	49 89 07             	mov    %rax,(%r15)
  4030f0:	49 89 57 08          	mov    %rdx,0x8(%r15)
  4030f4:	48 b8 61 62 6c 65 20 	movabs $0x206f7420656c6261,%rax
  4030fb:	74 6f 20 
  4030fe:	48 ba 72 65 61 64 20 	movabs $0x7269662064616572,%rdx
  403105:	66 69 72 
  403108:	49 89 47 10          	mov    %rax,0x10(%r15)
  40310c:	49 89 57 18          	mov    %rdx,0x18(%r15)
  403110:	48 b8 73 74 20 68 65 	movabs $0x6564616568207473,%rax
  403117:	61 64 65 
  40311a:	48 ba 72 20 66 72 6f 	movabs $0x41206d6f72662072,%rdx
  403121:	6d 20 41 
  403124:	49 89 47 20          	mov    %rax,0x20(%r15)
  403128:	49 89 57 28          	mov    %rdx,0x28(%r15)
  40312c:	48 b8 20 41 75 74 6f 	movabs $0x62616c6f74754120,%rax
  403133:	6c 61 62 
  403136:	48 ba 20 73 65 72 76 	movabs $0x72657672657320,%rdx
  40313d:	65 72 00 
  403140:	49 89 47 2e          	mov    %rax,0x2e(%r15)
  403144:	49 89 57 36          	mov    %rdx,0x36(%r15)
  403148:	89 df                	mov    %ebx,%edi
  40314a:	e8 81 df ff ff       	call   4010d0 <close@plt>
  40314f:	b8 ff ff ff ff       	mov    $0xffffffff,%eax
  403154:	e9 cf fc ff ff       	jmp    402e28 <submitr+0x2cb>
  403159:	48 8d b4 24 50 20 00 	lea    0x2050(%rsp),%rsi
  403160:	00 
  403161:	48 8d 7c 24 40       	lea    0x40(%rsp),%rdi
  403166:	ba 00 20 00 00       	mov    $0x2000,%edx
  40316b:	e8 46 f8 ff ff       	call   4029b6 <rio_readlineb>
  403170:	48 85 c0             	test   %rax,%rax
  403173:	7e 78                	jle    4031ed <submitr+0x690>
  403175:	44 8b 44 24 2c       	mov    0x2c(%rsp),%r8d
  40317a:	41 81 f8 c8 00 00 00 	cmp    $0xc8,%r8d
  403181:	0f 85 e6 00 00 00    	jne    40326d <submitr+0x710>
  403187:	48 8d b4 24 50 20 00 	lea    0x2050(%rsp),%rsi
  40318e:	00 
  40318f:	4c 89 ff             	mov    %r15,%rdi
  403192:	e8 d9 de ff ff       	call   401070 <strcpy@plt>
  403197:	89 df                	mov    %ebx,%edi
  403199:	e8 32 df ff ff       	call   4010d0 <close@plt>
  40319e:	48 8d 35 c9 15 00 00 	lea    0x15c9(%rip),%rsi        # 40476e <_IO_stdin_used+0x76e>
  4031a5:	4c 89 ff             	mov    %r15,%rdi
  4031a8:	e8 43 df ff ff       	call   4010f0 <strcmp@plt>
  4031ad:	85 c0                	test   %eax,%eax
  4031af:	0f 84 73 fc ff ff    	je     402e28 <submitr+0x2cb>
  4031b5:	48 8d 35 b6 15 00 00 	lea    0x15b6(%rip),%rsi        # 404772 <_IO_stdin_used+0x772>
  4031bc:	4c 89 ff             	mov    %r15,%rdi
  4031bf:	e8 2c df ff ff       	call   4010f0 <strcmp@plt>
  4031c4:	85 c0                	test   %eax,%eax
  4031c6:	0f 84 5c fc ff ff    	je     402e28 <submitr+0x2cb>
  4031cc:	48 8d 35 a4 15 00 00 	lea    0x15a4(%rip),%rsi        # 404777 <_IO_stdin_used+0x777>
  4031d3:	4c 89 ff             	mov    %r15,%rdi
  4031d6:	e8 15 df ff ff       	call   4010f0 <strcmp@plt>
  4031db:	85 c0                	test   %eax,%eax
  4031dd:	0f 84 45 fc ff ff    	je     402e28 <submitr+0x2cb>
  4031e3:	b8 ff ff ff ff       	mov    $0xffffffff,%eax
  4031e8:	e9 3b fc ff ff       	jmp    402e28 <submitr+0x2cb>
  4031ed:	48 b8 45 72 72 6f 72 	movabs $0x43203a726f727245,%rax
  4031f4:	3a 20 43 
  4031f7:	48 ba 6c 69 65 6e 74 	movabs $0x6e7520746e65696c,%rdx
  4031fe:	20 75 6e 
  403201:	49 89 07             	mov    %rax,(%r15)
  403204:	49 89 57 08          	mov    %rdx,0x8(%r15)
  403208:	48 b8 61 62 6c 65 20 	movabs $0x206f7420656c6261,%rax
  40320f:	74 6f 20 
  403212:	48 ba 72 65 61 64 20 	movabs $0x6174732064616572,%rdx
  403219:	73 74 61 
  40321c:	49 89 47 10          	mov    %rax,0x10(%r15)
  403220:	49 89 57 18          	mov    %rdx,0x18(%r15)
  403224:	48 b8 74 75 73 20 6d 	movabs $0x7373656d20737574,%rax
  40322b:	65 73 73 
  40322e:	48 ba 61 67 65 20 66 	movabs $0x6d6f726620656761,%rdx
  403235:	72 6f 6d 
  403238:	49 89 47 20          	mov    %rax,0x20(%r15)
  40323c:	49 89 57 28          	mov    %rdx,0x28(%r15)
  403240:	48 b8 20 41 75 74 6f 	movabs $0x62616c6f74754120,%rax
  403247:	6c 61 62 
  40324a:	48 ba 20 73 65 72 76 	movabs $0x72657672657320,%rdx
  403251:	65 72 00 
  403254:	49 89 47 30          	mov    %rax,0x30(%r15)
  403258:	49 89 57 38          	mov    %rdx,0x38(%r15)
  40325c:	89 df                	mov    %ebx,%edi
  40325e:	e8 6d de ff ff       	call   4010d0 <close@plt>
  403263:	b8 ff ff ff ff       	mov    $0xffffffff,%eax
  403268:	e9 bb fb ff ff       	jmp    402e28 <submitr+0x2cb>
  40326d:	4c 8d 8c 24 50 80 00 	lea    0x8050(%rsp),%r9
  403274:	00 
  403275:	48 8d 0d 74 12 00 00 	lea    0x1274(%rip),%rcx        # 4044f0 <_IO_stdin_used+0x4f0>
  40327c:	48 c7 c2 ff ff ff ff 	mov    $0xffffffffffffffff,%rdx
  403283:	be 02 00 00 00       	mov    $0x2,%esi
  403288:	4c 89 ff             	mov    %r15,%rdi
  40328b:	b8 00 00 00 00       	mov    $0x0,%eax
  403290:	e8 8b df ff ff       	call   401220 <__sprintf_chk@plt>
  403295:	89 df                	mov    %ebx,%edi
  403297:	e8 34 de ff ff       	call   4010d0 <close@plt>
  40329c:	b8 ff ff ff ff       	mov    $0xffffffff,%eax
  4032a1:	e9 82 fb ff ff       	jmp    402e28 <submitr+0x2cb>
  4032a6:	e8 ab f3 ff ff       	call   402656 <__stack_chk_fail>

00000000004032ab <init_timeout>:
  4032ab:	f3 0f 1e fa          	endbr64
  4032af:	85 ff                	test   %edi,%edi
  4032b1:	74 26                	je     4032d9 <init_timeout+0x2e>
  4032b3:	53                   	push   %rbx
  4032b4:	89 fb                	mov    %edi,%ebx
  4032b6:	78 1a                	js     4032d2 <init_timeout+0x27>
  4032b8:	48 8d 35 d5 f5 ff ff 	lea    -0xa2b(%rip),%rsi        # 402894 <sigalrm_handler>
  4032bf:	bf 0e 00 00 00       	mov    $0xe,%edi
  4032c4:	e8 37 de ff ff       	call   401100 <signal@plt>
  4032c9:	89 df                	mov    %ebx,%edi
  4032cb:	e8 f0 dd ff ff       	call   4010c0 <alarm@plt>
  4032d0:	5b                   	pop    %rbx
  4032d1:	c3                   	ret
  4032d2:	bb 00 00 00 00       	mov    $0x0,%ebx
  4032d7:	eb df                	jmp    4032b8 <init_timeout+0xd>
  4032d9:	c3                   	ret

00000000004032da <init_driver>:
  4032da:	f3 0f 1e fa          	endbr64
  4032de:	41 54                	push   %r12
  4032e0:	55                   	push   %rbp
  4032e1:	53                   	push   %rbx
  4032e2:	48 83 ec 20          	sub    $0x20,%rsp
  4032e6:	48 89 fd             	mov    %rdi,%rbp
  4032e9:	64 48 8b 04 25 28 00 	mov    %fs:0x28,%rax
  4032f0:	00 00 
  4032f2:	48 89 44 24 18       	mov    %rax,0x18(%rsp)
  4032f7:	31 c0                	xor    %eax,%eax
  4032f9:	be 01 00 00 00       	mov    $0x1,%esi
  4032fe:	bf 0d 00 00 00       	mov    $0xd,%edi
  403303:	e8 f8 dd ff ff       	call   401100 <signal@plt>
  403308:	be 01 00 00 00       	mov    $0x1,%esi
  40330d:	bf 1d 00 00 00       	mov    $0x1d,%edi
  403312:	e8 e9 dd ff ff       	call   401100 <signal@plt>
  403317:	be 01 00 00 00       	mov    $0x1,%esi
  40331c:	bf 1d 00 00 00       	mov    $0x1d,%edi
  403321:	e8 da dd ff ff       	call   401100 <signal@plt>
  403326:	ba 00 00 00 00       	mov    $0x0,%edx
  40332b:	be 01 00 00 00       	mov    $0x1,%esi
  403330:	bf 02 00 00 00       	mov    $0x2,%edi
  403335:	e8 f6 de ff ff       	call   401230 <socket@plt>
  40333a:	85 c0                	test   %eax,%eax
  40333c:	0f 88 93 00 00 00    	js     4033d5 <init_driver+0xfb>
  403342:	89 c3                	mov    %eax,%ebx
  403344:	48 8d 3d 2f 14 00 00 	lea    0x142f(%rip),%rdi        # 40477a <_IO_stdin_used+0x77a>
  40334b:	e8 c0 dd ff ff       	call   401110 <gethostbyname@plt>
  403350:	48 85 c0             	test   %rax,%rax
  403353:	0f 84 c9 00 00 00    	je     403422 <init_driver+0x148>
  403359:	49 89 e4             	mov    %rsp,%r12
  40335c:	66 0f ef c0          	pxor   %xmm0,%xmm0
  403360:	0f 29 04 24          	movaps %xmm0,(%rsp)
  403364:	66 c7 04 24 02 00    	movw   $0x2,(%rsp)
  40336a:	48 63 50 14          	movslq 0x14(%rax),%rdx
  40336e:	48 8b 40 18          	mov    0x18(%rax),%rax
  403372:	48 8b 30             	mov    (%rax),%rsi
  403375:	48 8d 7c 24 04       	lea    0x4(%rsp),%rdi
  40337a:	b9 0c 00 00 00       	mov    $0xc,%ecx
  40337f:	e8 9c dd ff ff       	call   401120 <__memmove_chk@plt>
  403384:	66 c7 44 24 02 00 50 	movw   $0x5000,0x2(%rsp)
  40338b:	ba 10 00 00 00       	mov    $0x10,%edx
  403390:	4c 89 e6             	mov    %r12,%rsi
  403393:	89 df                	mov    %ebx,%edi
  403395:	e8 56 de ff ff       	call   4011f0 <connect@plt>
  40339a:	85 c0                	test   %eax,%eax
  40339c:	0f 88 e5 00 00 00    	js     403487 <init_driver+0x1ad>
  4033a2:	89 df                	mov    %ebx,%edi
  4033a4:	e8 27 dd ff ff       	call   4010d0 <close@plt>
  4033a9:	66 c7 45 00 4f 4b    	movw   $0x4b4f,0x0(%rbp)
  4033af:	c6 45 02 00          	movb   $0x0,0x2(%rbp)
  4033b3:	b8 00 00 00 00       	mov    $0x0,%eax
  4033b8:	48 8b 54 24 18       	mov    0x18(%rsp),%rdx
  4033bd:	64 48 2b 14 25 28 00 	sub    %fs:0x28,%rdx
  4033c4:	00 00 
  4033c6:	0f 85 27 01 00 00    	jne    4034f3 <init_driver+0x219>
  4033cc:	48 83 c4 20          	add    $0x20,%rsp
  4033d0:	5b                   	pop    %rbx
  4033d1:	5d                   	pop    %rbp
  4033d2:	41 5c                	pop    %r12
  4033d4:	c3                   	ret
  4033d5:	48 b8 45 72 72 6f 72 	movabs $0x43203a726f727245,%rax
  4033dc:	3a 20 43 
  4033df:	48 ba 6c 69 65 6e 74 	movabs $0x6e7520746e65696c,%rdx
  4033e6:	20 75 6e 
  4033e9:	48 89 45 00          	mov    %rax,0x0(%rbp)
  4033ed:	48 89 55 08          	mov    %rdx,0x8(%rbp)
  4033f1:	48 b8 61 62 6c 65 20 	movabs $0x206f7420656c6261,%rax
  4033f8:	74 6f 20 
  4033fb:	48 ba 63 72 65 61 74 	movabs $0x7320657461657263,%rdx
  403402:	65 20 73 
  403405:	48 89 45 10          	mov    %rax,0x10(%rbp)
  403409:	48 89 55 18          	mov    %rdx,0x18(%rbp)
  40340d:	48 b8 20 73 6f 63 6b 	movabs $0x74656b636f7320,%rax
  403414:	65 74 00 
  403417:	48 89 45 1e          	mov    %rax,0x1e(%rbp)
  40341b:	b8 ff ff ff ff       	mov    $0xffffffff,%eax
  403420:	eb 96                	jmp    4033b8 <init_driver+0xde>
  403422:	48 b8 45 72 72 6f 72 	movabs $0x44203a726f727245,%rax
  403429:	3a 20 44 
  40342c:	48 ba 4e 53 20 69 73 	movabs $0x6e7520736920534e,%rdx
  403433:	20 75 6e 
  403436:	48 89 45 00          	mov    %rax,0x0(%rbp)
  40343a:	48 89 55 08          	mov    %rdx,0x8(%rbp)
  40343e:	48 b8 61 62 6c 65 20 	movabs $0x206f7420656c6261,%rax
  403445:	74 6f 20 
  403448:	48 ba 72 65 73 6f 6c 	movabs $0x2065766c6f736572,%rdx
  40344f:	76 65 20 
  403452:	48 89 45 10          	mov    %rax,0x10(%rbp)
  403456:	48 89 55 18          	mov    %rdx,0x18(%rbp)
  40345a:	48 b8 20 73 65 72 76 	movabs $0x2072657672657320,%rax
  403461:	65 72 20 
  403464:	48 ba 61 64 64 72 65 	movabs $0x73736572646461,%rdx
  40346b:	73 73 00 
  40346e:	48 89 45 1f          	mov    %rax,0x1f(%rbp)
  403472:	48 89 55 27          	mov    %rdx,0x27(%rbp)
  403476:	89 df                	mov    %ebx,%edi
  403478:	e8 53 dc ff ff       	call   4010d0 <close@plt>
  40347d:	b8 ff ff ff ff       	mov    $0xffffffff,%eax
  403482:	e9 31 ff ff ff       	jmp    4033b8 <init_driver+0xde>
  403487:	48 b8 31 36 32 2e 31 	movabs $0x2e3530312e323631,%rax
  40348e:	30 35 2e 
  403491:	48 89 45 00          	mov    %rax,0x0(%rbp)
  403495:	48 b8 2e 33 31 2e 32 	movabs $0x3233322e31332e,%rax
  40349c:	33 32 00 
  40349f:	48 89 45 07          	mov    %rax,0x7(%rbp)
  4034a3:	48 b8 45 72 72 6f 72 	movabs $0x55203a726f727245,%rax
  4034aa:	3a 20 55 
  4034ad:	48 ba 6e 61 62 6c 65 	movabs $0x6f7420656c62616e,%rdx
  4034b4:	20 74 6f 
  4034b7:	48 89 45 00          	mov    %rax,0x0(%rbp)
  4034bb:	48 89 55 08          	mov    %rdx,0x8(%rbp)
  4034bf:	48 b8 20 63 6f 6e 6e 	movabs $0x7463656e6e6f6320,%rax
  4034c6:	65 63 74 
  4034c9:	48 ba 20 74 6f 20 73 	movabs $0x76726573206f7420,%rdx
  4034d0:	65 72 76 
  4034d3:	48 89 45 10          	mov    %rax,0x10(%rbp)
  4034d7:	48 89 55 18          	mov    %rdx,0x18(%rbp)
  4034db:	c7 45 1f 76 65 72 00 	movl   $0x726576,0x1f(%rbp)
  4034e2:	89 df                	mov    %ebx,%edi
  4034e4:	e8 e7 db ff ff       	call   4010d0 <close@plt>
  4034e9:	b8 ff ff ff ff       	mov    $0xffffffff,%eax
  4034ee:	e9 c5 fe ff ff       	jmp    4033b8 <init_driver+0xde>
  4034f3:	e8 5e f1 ff ff       	call   402656 <__stack_chk_fail>

00000000004034f8 <driver_post>:
  4034f8:	f3 0f 1e fa          	endbr64
  4034fc:	53                   	push   %rbx
  4034fd:	4c 89 cb             	mov    %r9,%rbx
  403500:	45 85 c0             	test   %r8d,%r8d
  403503:	75 18                	jne    40351d <driver_post+0x25>
  403505:	48 85 ff             	test   %rdi,%rdi
  403508:	74 05                	je     40350f <driver_post+0x17>
  40350a:	80 3f 00             	cmpb   $0x0,(%rdi)
  40350d:	75 37                	jne    403546 <driver_post+0x4e>
  40350f:	66 c7 03 4f 4b       	movw   $0x4b4f,(%rbx)
  403514:	c6 43 02 00          	movb   $0x0,0x2(%rbx)
  403518:	44 89 c0             	mov    %r8d,%eax
  40351b:	5b                   	pop    %rbx
  40351c:	c3                   	ret
  40351d:	48 89 ca             	mov    %rcx,%rdx
  403520:	48 8d 35 62 12 00 00 	lea    0x1262(%rip),%rsi        # 404789 <_IO_stdin_used+0x789>
  403527:	bf 02 00 00 00       	mov    $0x2,%edi
  40352c:	b8 00 00 00 00       	mov    $0x0,%eax
  403531:	e8 5a dc ff ff       	call   401190 <__printf_chk@plt>
  403536:	66 c7 03 4f 4b       	movw   $0x4b4f,(%rbx)
  40353b:	c6 43 02 00          	movb   $0x0,0x2(%rbx)
  40353f:	b8 00 00 00 00       	mov    $0x0,%eax
  403544:	eb d5                	jmp    40351b <driver_post+0x23>
  403546:	48 83 ec 08          	sub    $0x8,%rsp
  40354a:	41 51                	push   %r9
  40354c:	49 89 c9             	mov    %rcx,%r9
  40354f:	49 89 d0             	mov    %rdx,%r8
  403552:	48 89 f9             	mov    %rdi,%rcx
  403555:	48 89 f2             	mov    %rsi,%rdx
  403558:	be 50 00 00 00       	mov    $0x50,%esi
  40355d:	48 8d 3d 16 12 00 00 	lea    0x1216(%rip),%rdi        # 40477a <_IO_stdin_used+0x77a>
  403564:	e8 f4 f5 ff ff       	call   402b5d <submitr>
  403569:	48 83 c4 10          	add    $0x10,%rsp
  40356d:	eb ac                	jmp    40351b <driver_post+0x23>

000000000040356f <check>:
  40356f:	f3 0f 1e fa          	endbr64
  403573:	89 f8                	mov    %edi,%eax
  403575:	c1 e8 1c             	shr    $0x1c,%eax
  403578:	74 1d                	je     403597 <check+0x28>
  40357a:	b9 00 00 00 00       	mov    $0x0,%ecx
  40357f:	83 f9 1f             	cmp    $0x1f,%ecx
  403582:	7f 0d                	jg     403591 <check+0x22>
  403584:	89 f8                	mov    %edi,%eax
  403586:	d3 e8                	shr    %cl,%eax
  403588:	3c 0a                	cmp    $0xa,%al
  40358a:	74 11                	je     40359d <check+0x2e>
  40358c:	83 c1 08             	add    $0x8,%ecx
  40358f:	eb ee                	jmp    40357f <check+0x10>
  403591:	b8 01 00 00 00       	mov    $0x1,%eax
  403596:	c3                   	ret
  403597:	b8 00 00 00 00       	mov    $0x0,%eax
  40359c:	c3                   	ret
  40359d:	b8 00 00 00 00       	mov    $0x0,%eax
  4035a2:	c3                   	ret

00000000004035a3 <gencookie>:
  4035a3:	f3 0f 1e fa          	endbr64
  4035a7:	53                   	push   %rbx
  4035a8:	83 c7 01             	add    $0x1,%edi
  4035ab:	e8 90 da ff ff       	call   401040 <srandom@plt>
  4035b0:	e8 ab db ff ff       	call   401160 <random@plt>
  4035b5:	89 c3                	mov    %eax,%ebx
  4035b7:	89 c7                	mov    %eax,%edi
  4035b9:	e8 b1 ff ff ff       	call   40356f <check>
  4035be:	85 c0                	test   %eax,%eax
  4035c0:	74 ee                	je     4035b0 <gencookie+0xd>
  4035c2:	89 d8                	mov    %ebx,%eax
  4035c4:	5b                   	pop    %rbx
  4035c5:	c3                   	ret

Disassembly of section .fini:

00000000004035c8 <_fini>:
  4035c8:	f3 0f 1e fa          	endbr64
  4035cc:	48 83 ec 08          	sub    $0x8,%rsp
  4035d0:	48 83 c4 08          	add    $0x8,%rsp
  4035d4:	c3                   	ret
