
starget:     file format elf64-x86-64


Disassembly of section .init:

0000000000401000 <_init>:
  401000:	f3 0f 1e fa          	endbr64
  401004:	48 83 ec 08          	sub    $0x8,%rsp
  401008:	48 8b 05 d1 5f 00 00 	mov    0x5fd1(%rip),%rax        # 406fe0 <__gmon_start__@Base>
  40100f:	48 85 c0             	test   %rax,%rax
  401012:	74 02                	je     401016 <_init+0x16>
  401014:	ff d0                	call   *%rax
  401016:	48 83 c4 08          	add    $0x8,%rsp
  40101a:	c3                   	ret

Disassembly of section .plt:

0000000000401020 <__errno_location@plt-0x10>:
  401020:	ff 35 ca 5f 00 00    	push   0x5fca(%rip)        # 406ff0 <_GLOBAL_OFFSET_TABLE_+0x8>
  401026:	ff 25 cc 5f 00 00    	jmp    *0x5fcc(%rip)        # 406ff8 <_GLOBAL_OFFSET_TABLE_+0x10>
  40102c:	0f 1f 40 00          	nopl   0x0(%rax)

0000000000401030 <__errno_location@plt>:
  401030:	ff 25 ca 5f 00 00    	jmp    *0x5fca(%rip)        # 407000 <__errno_location@GLIBC_2.2.5>
  401036:	68 00 00 00 00       	push   $0x0
  40103b:	e9 e0 ff ff ff       	jmp    401020 <_init+0x20>

0000000000401040 <srandom@plt>:
  401040:	ff 25 c2 5f 00 00    	jmp    *0x5fc2(%rip)        # 407008 <srandom@GLIBC_2.2.5>
  401046:	68 01 00 00 00       	push   $0x1
  40104b:	e9 d0 ff ff ff       	jmp    401020 <_init+0x20>

0000000000401050 <strncpy@plt>:
  401050:	ff 25 ba 5f 00 00    	jmp    *0x5fba(%rip)        # 407010 <strncpy@GLIBC_2.2.5>
  401056:	68 02 00 00 00       	push   $0x2
  40105b:	e9 c0 ff ff ff       	jmp    401020 <_init+0x20>

0000000000401060 <strncmp@plt>:
  401060:	ff 25 b2 5f 00 00    	jmp    *0x5fb2(%rip)        # 407018 <strncmp@GLIBC_2.2.5>
  401066:	68 03 00 00 00       	push   $0x3
  40106b:	e9 b0 ff ff ff       	jmp    401020 <_init+0x20>

0000000000401070 <strcpy@plt>:
  401070:	ff 25 aa 5f 00 00    	jmp    *0x5faa(%rip)        # 407020 <strcpy@GLIBC_2.2.5>
  401076:	68 04 00 00 00       	push   $0x4
  40107b:	e9 a0 ff ff ff       	jmp    401020 <_init+0x20>

0000000000401080 <puts@plt>:
  401080:	ff 25 a2 5f 00 00    	jmp    *0x5fa2(%rip)        # 407028 <puts@GLIBC_2.2.5>
  401086:	68 05 00 00 00       	push   $0x5
  40108b:	e9 90 ff ff ff       	jmp    401020 <_init+0x20>

0000000000401090 <write@plt>:
  401090:	ff 25 9a 5f 00 00    	jmp    *0x5f9a(%rip)        # 407030 <write@GLIBC_2.2.5>
  401096:	68 06 00 00 00       	push   $0x6
  40109b:	e9 80 ff ff ff       	jmp    401020 <_init+0x20>

00000000004010a0 <strlen@plt>:
  4010a0:	ff 25 92 5f 00 00    	jmp    *0x5f92(%rip)        # 407038 <strlen@GLIBC_2.2.5>
  4010a6:	68 07 00 00 00       	push   $0x7
  4010ab:	e9 70 ff ff ff       	jmp    401020 <_init+0x20>

00000000004010b0 <mmap@plt>:
  4010b0:	ff 25 8a 5f 00 00    	jmp    *0x5f8a(%rip)        # 407040 <mmap@GLIBC_2.2.5>
  4010b6:	68 08 00 00 00       	push   $0x8
  4010bb:	e9 60 ff ff ff       	jmp    401020 <_init+0x20>

00000000004010c0 <alarm@plt>:
  4010c0:	ff 25 82 5f 00 00    	jmp    *0x5f82(%rip)        # 407048 <alarm@GLIBC_2.2.5>
  4010c6:	68 09 00 00 00       	push   $0x9
  4010cb:	e9 50 ff ff ff       	jmp    401020 <_init+0x20>

00000000004010d0 <close@plt>:
  4010d0:	ff 25 7a 5f 00 00    	jmp    *0x5f7a(%rip)        # 407050 <close@GLIBC_2.2.5>
  4010d6:	68 0a 00 00 00       	push   $0xa
  4010db:	e9 40 ff ff ff       	jmp    401020 <_init+0x20>

00000000004010e0 <read@plt>:
  4010e0:	ff 25 72 5f 00 00    	jmp    *0x5f72(%rip)        # 407058 <read@GLIBC_2.2.5>
  4010e6:	68 0b 00 00 00       	push   $0xb
  4010eb:	e9 30 ff ff ff       	jmp    401020 <_init+0x20>

00000000004010f0 <strcmp@plt>:
  4010f0:	ff 25 6a 5f 00 00    	jmp    *0x5f6a(%rip)        # 407060 <strcmp@GLIBC_2.2.5>
  4010f6:	68 0c 00 00 00       	push   $0xc
  4010fb:	e9 20 ff ff ff       	jmp    401020 <_init+0x20>

0000000000401100 <signal@plt>:
  401100:	ff 25 62 5f 00 00    	jmp    *0x5f62(%rip)        # 407068 <signal@GLIBC_2.2.5>
  401106:	68 0d 00 00 00       	push   $0xd
  40110b:	e9 10 ff ff ff       	jmp    401020 <_init+0x20>

0000000000401110 <gethostbyname@plt>:
  401110:	ff 25 5a 5f 00 00    	jmp    *0x5f5a(%rip)        # 407070 <gethostbyname@GLIBC_2.2.5>
  401116:	68 0e 00 00 00       	push   $0xe
  40111b:	e9 00 ff ff ff       	jmp    401020 <_init+0x20>

0000000000401120 <__memmove_chk@plt>:
  401120:	ff 25 52 5f 00 00    	jmp    *0x5f52(%rip)        # 407078 <__memmove_chk@GLIBC_2.3.4>
  401126:	68 0f 00 00 00       	push   $0xf
  40112b:	e9 f0 fe ff ff       	jmp    401020 <_init+0x20>

0000000000401130 <strtol@plt>:
  401130:	ff 25 4a 5f 00 00    	jmp    *0x5f4a(%rip)        # 407080 <strtol@GLIBC_2.2.5>
  401136:	68 10 00 00 00       	push   $0x10
  40113b:	e9 e0 fe ff ff       	jmp    401020 <_init+0x20>

0000000000401140 <memcpy@plt>:
  401140:	ff 25 42 5f 00 00    	jmp    *0x5f42(%rip)        # 407088 <memcpy@GLIBC_2.14>
  401146:	68 11 00 00 00       	push   $0x11
  40114b:	e9 d0 fe ff ff       	jmp    401020 <_init+0x20>

0000000000401150 <time@plt>:
  401150:	ff 25 3a 5f 00 00    	jmp    *0x5f3a(%rip)        # 407090 <time@GLIBC_2.2.5>
  401156:	68 12 00 00 00       	push   $0x12
  40115b:	e9 c0 fe ff ff       	jmp    401020 <_init+0x20>

0000000000401160 <random@plt>:
  401160:	ff 25 32 5f 00 00    	jmp    *0x5f32(%rip)        # 407098 <random@GLIBC_2.2.5>
  401166:	68 13 00 00 00       	push   $0x13
  40116b:	e9 b0 fe ff ff       	jmp    401020 <_init+0x20>

0000000000401170 <__isoc99_sscanf@plt>:
  401170:	ff 25 2a 5f 00 00    	jmp    *0x5f2a(%rip)        # 4070a0 <__isoc99_sscanf@GLIBC_2.7>
  401176:	68 14 00 00 00       	push   $0x14
  40117b:	e9 a0 fe ff ff       	jmp    401020 <_init+0x20>

0000000000401180 <munmap@plt>:
  401180:	ff 25 22 5f 00 00    	jmp    *0x5f22(%rip)        # 4070a8 <munmap@GLIBC_2.2.5>
  401186:	68 15 00 00 00       	push   $0x15
  40118b:	e9 90 fe ff ff       	jmp    401020 <_init+0x20>

0000000000401190 <__printf_chk@plt>:
  401190:	ff 25 1a 5f 00 00    	jmp    *0x5f1a(%rip)        # 4070b0 <__printf_chk@GLIBC_2.3.4>
  401196:	68 16 00 00 00       	push   $0x16
  40119b:	e9 80 fe ff ff       	jmp    401020 <_init+0x20>

00000000004011a0 <fopen@plt>:
  4011a0:	ff 25 12 5f 00 00    	jmp    *0x5f12(%rip)        # 4070b8 <fopen@GLIBC_2.2.5>
  4011a6:	68 17 00 00 00       	push   $0x17
  4011ab:	e9 70 fe ff ff       	jmp    401020 <_init+0x20>

00000000004011b0 <getopt@plt>:
  4011b0:	ff 25 0a 5f 00 00    	jmp    *0x5f0a(%rip)        # 4070c0 <getopt@GLIBC_2.2.5>
  4011b6:	68 18 00 00 00       	push   $0x18
  4011bb:	e9 60 fe ff ff       	jmp    401020 <_init+0x20>

00000000004011c0 <strtoul@plt>:
  4011c0:	ff 25 02 5f 00 00    	jmp    *0x5f02(%rip)        # 4070c8 <strtoul@GLIBC_2.2.5>
  4011c6:	68 19 00 00 00       	push   $0x19
  4011cb:	e9 50 fe ff ff       	jmp    401020 <_init+0x20>

00000000004011d0 <__memset_chk@plt>:
  4011d0:	ff 25 fa 5e 00 00    	jmp    *0x5efa(%rip)        # 4070d0 <__memset_chk@GLIBC_2.3.4>
  4011d6:	68 1a 00 00 00       	push   $0x1a
  4011db:	e9 40 fe ff ff       	jmp    401020 <_init+0x20>

00000000004011e0 <exit@plt>:
  4011e0:	ff 25 f2 5e 00 00    	jmp    *0x5ef2(%rip)        # 4070d8 <exit@GLIBC_2.2.5>
  4011e6:	68 1b 00 00 00       	push   $0x1b
  4011eb:	e9 30 fe ff ff       	jmp    401020 <_init+0x20>

00000000004011f0 <connect@plt>:
  4011f0:	ff 25 ea 5e 00 00    	jmp    *0x5eea(%rip)        # 4070e0 <connect@GLIBC_2.2.5>
  4011f6:	68 1c 00 00 00       	push   $0x1c
  4011fb:	e9 20 fe ff ff       	jmp    401020 <_init+0x20>

0000000000401200 <__fprintf_chk@plt>:
  401200:	ff 25 e2 5e 00 00    	jmp    *0x5ee2(%rip)        # 4070e8 <__fprintf_chk@GLIBC_2.3.4>
  401206:	68 1d 00 00 00       	push   $0x1d
  40120b:	e9 10 fe ff ff       	jmp    401020 <_init+0x20>

0000000000401210 <getc@plt>:
  401210:	ff 25 da 5e 00 00    	jmp    *0x5eda(%rip)        # 4070f0 <getc@GLIBC_2.2.5>
  401216:	68 1e 00 00 00       	push   $0x1e
  40121b:	e9 00 fe ff ff       	jmp    401020 <_init+0x20>

0000000000401220 <__sprintf_chk@plt>:
  401220:	ff 25 d2 5e 00 00    	jmp    *0x5ed2(%rip)        # 4070f8 <__sprintf_chk@GLIBC_2.3.4>
  401226:	68 1f 00 00 00       	push   $0x1f
  40122b:	e9 f0 fd ff ff       	jmp    401020 <_init+0x20>

0000000000401230 <socket@plt>:
  401230:	ff 25 ca 5e 00 00    	jmp    *0x5eca(%rip)        # 407100 <socket@GLIBC_2.2.5>
  401236:	68 20 00 00 00       	push   $0x20
  40123b:	e9 e0 fd ff ff       	jmp    401020 <_init+0x20>

Disassembly of section .text:

0000000000401240 <_start>:
  401240:	f3 0f 1e fa          	endbr64
  401244:	31 ed                	xor    %ebp,%ebp
  401246:	49 89 d1             	mov    %rdx,%r9
  401249:	5e                   	pop    %rsi
  40124a:	48 89 e2             	mov    %rsp,%rdx
  40124d:	48 83 e4 f0          	and    $0xfffffffffffffff0,%rsp
  401251:	50                   	push   %rax
  401252:	54                   	push   %rsp
  401253:	45 31 c0             	xor    %r8d,%r8d
  401256:	31 c9                	xor    %ecx,%ecx
  401258:	48 c7 c7 de 14 40 00 	mov    $0x4014de,%rdi
  40125f:	ff 15 73 5d 00 00    	call   *0x5d73(%rip)        # 406fd8 <__libc_start_main@GLIBC_2.34>
  401265:	f4                   	hlt
  401266:	66 2e 0f 1f 84 00 00 	cs nopw 0x0(%rax,%rax,1)
  40126d:	00 00 00 

0000000000401270 <_dl_relocate_static_pie>:
  401270:	f3 0f 1e fa          	endbr64
  401274:	c3                   	ret
  401275:	66 2e 0f 1f 84 00 00 	cs nopw 0x0(%rax,%rax,1)
  40127c:	00 00 00 
  40127f:	90                   	nop

0000000000401280 <deregister_tm_clones>:
  401280:	b8 90 74 40 00       	mov    $0x407490,%eax
  401285:	48 3d 90 74 40 00    	cmp    $0x407490,%rax
  40128b:	74 13                	je     4012a0 <deregister_tm_clones+0x20>
  40128d:	b8 00 00 00 00       	mov    $0x0,%eax
  401292:	48 85 c0             	test   %rax,%rax
  401295:	74 09                	je     4012a0 <deregister_tm_clones+0x20>
  401297:	bf 90 74 40 00       	mov    $0x407490,%edi
  40129c:	ff e0                	jmp    *%rax
  40129e:	66 90                	xchg   %ax,%ax
  4012a0:	c3                   	ret
  4012a1:	66 66 2e 0f 1f 84 00 	data16 cs nopw 0x0(%rax,%rax,1)
  4012a8:	00 00 00 00 
  4012ac:	0f 1f 40 00          	nopl   0x0(%rax)

00000000004012b0 <register_tm_clones>:
  4012b0:	be 90 74 40 00       	mov    $0x407490,%esi
  4012b5:	48 81 ee 90 74 40 00 	sub    $0x407490,%rsi
  4012bc:	48 89 f0             	mov    %rsi,%rax
  4012bf:	48 c1 ee 3f          	shr    $0x3f,%rsi
  4012c3:	48 c1 f8 03          	sar    $0x3,%rax
  4012c7:	48 01 c6             	add    %rax,%rsi
  4012ca:	48 d1 fe             	sar    $1,%rsi
  4012cd:	74 11                	je     4012e0 <register_tm_clones+0x30>
  4012cf:	b8 00 00 00 00       	mov    $0x0,%eax
  4012d4:	48 85 c0             	test   %rax,%rax
  4012d7:	74 07                	je     4012e0 <register_tm_clones+0x30>
  4012d9:	bf 90 74 40 00       	mov    $0x407490,%edi
  4012de:	ff e0                	jmp    *%rax
  4012e0:	c3                   	ret
  4012e1:	66 66 2e 0f 1f 84 00 	data16 cs nopw 0x0(%rax,%rax,1)
  4012e8:	00 00 00 00 
  4012ec:	0f 1f 40 00          	nopl   0x0(%rax)

00000000004012f0 <__do_global_dtors_aux>:
  4012f0:	f3 0f 1e fa          	endbr64
  4012f4:	80 3d ed 61 00 00 00 	cmpb   $0x0,0x61ed(%rip)        # 4074e8 <completed.0>
  4012fb:	75 13                	jne    401310 <__do_global_dtors_aux+0x20>
  4012fd:	55                   	push   %rbp
  4012fe:	48 89 e5             	mov    %rsp,%rbp
  401301:	e8 7a ff ff ff       	call   401280 <deregister_tm_clones>
  401306:	c6 05 db 61 00 00 01 	movb   $0x1,0x61db(%rip)        # 4074e8 <completed.0>
  40130d:	5d                   	pop    %rbp
  40130e:	c3                   	ret
  40130f:	90                   	nop
  401310:	c3                   	ret
  401311:	66 66 2e 0f 1f 84 00 	data16 cs nopw 0x0(%rax,%rax,1)
  401318:	00 00 00 00 
  40131c:	0f 1f 40 00          	nopl   0x0(%rax)

0000000000401320 <frame_dummy>:
  401320:	f3 0f 1e fa          	endbr64
  401324:	eb 8a                	jmp    4012b0 <register_tm_clones>

0000000000401326 <usage>:
  401326:	50                   	push   %rax
  401327:	58                   	pop    %rax
  401328:	48 83 ec 08          	sub    $0x8,%rsp
  40132c:	48 89 fa             	mov    %rdi,%rdx
  40132f:	83 3d fa 61 00 00 00 	cmpl   $0x0,0x61fa(%rip)        # 407530 <is_checker>
  401336:	74 50                	je     401388 <usage+0x62>
  401338:	48 8d 35 c9 2c 00 00 	lea    0x2cc9(%rip),%rsi        # 404008 <_IO_stdin_used+0x8>
  40133f:	bf 02 00 00 00       	mov    $0x2,%edi
  401344:	b8 00 00 00 00       	mov    $0x0,%eax
  401349:	e8 42 fe ff ff       	call   401190 <__printf_chk@plt>
  40134e:	48 8d 3d eb 2c 00 00 	lea    0x2ceb(%rip),%rdi        # 404040 <_IO_stdin_used+0x40>
  401355:	e8 26 fd ff ff       	call   401080 <puts@plt>
  40135a:	48 8d 3d bc 31 00 00 	lea    0x31bc(%rip),%rdi        # 40451d <_IO_stdin_used+0x51d>
  401361:	e8 1a fd ff ff       	call   401080 <puts@plt>
  401366:	48 8d 3d fb 2c 00 00 	lea    0x2cfb(%rip),%rdi        # 404068 <_IO_stdin_used+0x68>
  40136d:	e8 0e fd ff ff       	call   401080 <puts@plt>
  401372:	48 8d 3d be 31 00 00 	lea    0x31be(%rip),%rdi        # 404537 <_IO_stdin_used+0x537>
  401379:	e8 02 fd ff ff       	call   401080 <puts@plt>
  40137e:	bf 00 00 00 00       	mov    $0x0,%edi
  401383:	e8 58 fe ff ff       	call   4011e0 <exit@plt>
  401388:	48 8d 35 c4 31 00 00 	lea    0x31c4(%rip),%rsi        # 404553 <_IO_stdin_used+0x553>
  40138f:	bf 02 00 00 00       	mov    $0x2,%edi
  401394:	b8 00 00 00 00       	mov    $0x0,%eax
  401399:	e8 f2 fd ff ff       	call   401190 <__printf_chk@plt>
  40139e:	48 8d 3d eb 2c 00 00 	lea    0x2ceb(%rip),%rdi        # 404090 <_IO_stdin_used+0x90>
  4013a5:	e8 d6 fc ff ff       	call   401080 <puts@plt>
  4013aa:	48 8d 3d 07 2d 00 00 	lea    0x2d07(%rip),%rdi        # 4040b8 <_IO_stdin_used+0xb8>
  4013b1:	e8 ca fc ff ff       	call   401080 <puts@plt>
  4013b6:	48 8d 3d b4 31 00 00 	lea    0x31b4(%rip),%rdi        # 404571 <_IO_stdin_used+0x571>
  4013bd:	e8 be fc ff ff       	call   401080 <puts@plt>
  4013c2:	eb ba                	jmp    40137e <usage+0x58>

00000000004013c4 <initialize_target>:
  4013c4:	55                   	push   %rbp
  4013c5:	53                   	push   %rbx
  4013c6:	48 81 ec 00 10 00 00 	sub    $0x1000,%rsp
  4013cd:	48 83 0c 24 00       	orq    $0x0,(%rsp)
  4013d2:	48 81 ec 00 10 00 00 	sub    $0x1000,%rsp
  4013d9:	48 83 0c 24 00       	orq    $0x0,(%rsp)
  4013de:	48 83 ec 18          	sub    $0x18,%rsp
  4013e2:	89 f5                	mov    %esi,%ebp
  4013e4:	64 48 8b 04 25 28 00 	mov    %fs:0x28,%rax
  4013eb:	00 00 
  4013ed:	48 89 84 24 08 20 00 	mov    %rax,0x2008(%rsp)
  4013f4:	00 
  4013f5:	31 c0                	xor    %eax,%eax
  4013f7:	89 3d 23 61 00 00    	mov    %edi,0x6123(%rip)        # 407520 <check_level>
  4013fd:	8b 3d 2d 5d 00 00    	mov    0x5d2d(%rip),%edi        # 407130 <target_id>
  401403:	e8 a2 21 00 00       	call   4035aa <gencookie>
  401408:	89 c7                	mov    %eax,%edi
  40140a:	89 05 1c 61 00 00    	mov    %eax,0x611c(%rip)        # 40752c <cookie>
  401410:	e8 95 21 00 00       	call   4035aa <gencookie>
  401415:	89 05 0d 61 00 00    	mov    %eax,0x610d(%rip)        # 407528 <authkey>
  40141b:	8b 05 0f 5d 00 00    	mov    0x5d0f(%rip),%eax        # 407130 <target_id>
  401421:	8d 78 01             	lea    0x1(%rax),%edi
  401424:	e8 17 fc ff ff       	call   401040 <srandom@plt>
  401429:	e8 32 fd ff ff       	call   401160 <random@plt>
  40142e:	89 c7                	mov    %eax,%edi
  401430:	e8 0e 03 00 00       	call   401743 <scramble>
  401435:	89 c3                	mov    %eax,%ebx
  401437:	85 ed                	test   %ebp,%ebp
  401439:	75 57                	jne    401492 <initialize_target+0xce>
  40143b:	b8 00 00 00 00       	mov    $0x0,%eax
  401440:	01 d8                	add    %ebx,%eax
  401442:	0f b7 c0             	movzwl %ax,%eax
  401445:	8d 04 c5 00 01 00 00 	lea    0x100(,%rax,8),%eax
  40144c:	89 c0                	mov    %eax,%eax
  40144e:	48 89 05 33 60 00 00 	mov    %rax,0x6033(%rip)        # 407488 <buf_offset>
  401455:	c6 05 ec 6c 00 00 72 	movb   $0x72,0x6cec(%rip)        # 408148 <target_prefix>
  40145c:	c6 05 e5 6c 00 00 73 	movb   $0x73,0x6ce5(%rip)        # 408148 <target_prefix>
  401463:	83 3d 16 60 00 00 00 	cmpl   $0x0,0x6016(%rip)        # 407480 <notify>
  40146a:	74 09                	je     401475 <initialize_target+0xb1>
  40146c:	83 3d bd 60 00 00 00 	cmpl   $0x0,0x60bd(%rip)        # 407530 <is_checker>
  401473:	74 35                	je     4014aa <initialize_target+0xe6>
  401475:	48 8b 84 24 08 20 00 	mov    0x2008(%rsp),%rax
  40147c:	00 
  40147d:	64 48 2b 04 25 28 00 	sub    %fs:0x28,%rax
  401484:	00 00 
  401486:	75 51                	jne    4014d9 <initialize_target+0x115>
  401488:	48 81 c4 18 20 00 00 	add    $0x2018,%rsp
  40148f:	5b                   	pop    %rbx
  401490:	5d                   	pop    %rbp
  401491:	c3                   	ret
  401492:	bf 00 00 00 00       	mov    $0x0,%edi
  401497:	e8 b4 fc ff ff       	call   401150 <time@plt>
  40149c:	89 c7                	mov    %eax,%edi
  40149e:	e8 9d fb ff ff       	call   401040 <srandom@plt>
  4014a3:	e8 b8 fc ff ff       	call   401160 <random@plt>
  4014a8:	eb 96                	jmp    401440 <initialize_target+0x7c>
  4014aa:	48 89 e7             	mov    %rsp,%rdi
  4014ad:	e8 2f 1e 00 00       	call   4032e1 <init_driver>
  4014b2:	85 c0                	test   %eax,%eax
  4014b4:	79 bf                	jns    401475 <initialize_target+0xb1>
  4014b6:	48 89 e2             	mov    %rsp,%rdx
  4014b9:	48 8d 35 28 2c 00 00 	lea    0x2c28(%rip),%rsi        # 4040e8 <_IO_stdin_used+0xe8>
  4014c0:	bf 02 00 00 00       	mov    $0x2,%edi
  4014c5:	b8 00 00 00 00       	mov    $0x0,%eax
  4014ca:	e8 c1 fc ff ff       	call   401190 <__printf_chk@plt>
  4014cf:	bf 08 00 00 00       	mov    $0x8,%edi
  4014d4:	e8 07 fd ff ff       	call   4011e0 <exit@plt>
  4014d9:	e8 7f 11 00 00       	call   40265d <__stack_chk_fail>

00000000004014de <main>:
  4014de:	f3 0f 1e fa          	endbr64
  4014e2:	41 56                	push   %r14
  4014e4:	41 55                	push   %r13
  4014e6:	41 54                	push   %r12
  4014e8:	55                   	push   %rbp
  4014e9:	53                   	push   %rbx
  4014ea:	48 83 ec 60          	sub    $0x60,%rsp
  4014ee:	89 fd                	mov    %edi,%ebp
  4014f0:	48 89 f3             	mov    %rsi,%rbx
  4014f3:	64 48 8b 04 25 28 00 	mov    %fs:0x28,%rax
  4014fa:	00 00 
  4014fc:	48 89 44 24 58       	mov    %rax,0x58(%rsp)
  401501:	31 c0                	xor    %eax,%eax
  401503:	48 b8 53 70 69 72 69 	movabs $0x6465746972697053,%rax
  40150a:	74 65 64 
  40150d:	48 89 04 24          	mov    %rax,(%rsp)
  401511:	48 b8 64 41 77 61 79 	movabs $0x4e437961774164,%rax
  401518:	43 4e 00 
  40151b:	48 89 44 24 07       	mov    %rax,0x7(%rsp)
  401520:	48 c7 c6 4c 25 40 00 	mov    $0x40254c,%rsi
  401527:	bf 0b 00 00 00       	mov    $0xb,%edi
  40152c:	e8 cf fb ff ff       	call   401100 <signal@plt>
  401531:	48 c7 c6 f2 24 40 00 	mov    $0x4024f2,%rsi
  401538:	bf 07 00 00 00       	mov    $0x7,%edi
  40153d:	e8 be fb ff ff       	call   401100 <signal@plt>
  401542:	48 c7 c6 a6 25 40 00 	mov    $0x4025a6,%rsi
  401549:	bf 04 00 00 00       	mov    $0x4,%edi
  40154e:	e8 ad fb ff ff       	call   401100 <signal@plt>
  401553:	83 3d d6 5f 00 00 00 	cmpl   $0x0,0x5fd6(%rip)        # 407530 <is_checker>
  40155a:	75 26                	jne    401582 <main+0xa4>
  40155c:	4c 8d 25 27 30 00 00 	lea    0x3027(%rip),%r12        # 40458a <_IO_stdin_used+0x58a>
  401563:	48 8b 05 36 5f 00 00 	mov    0x5f36(%rip),%rax        # 4074a0 <stdin@GLIBC_2.2.5>
  40156a:	48 89 05 a7 5f 00 00 	mov    %rax,0x5fa7(%rip)        # 407518 <infile>
  401571:	41 bd 00 00 00 00    	mov    $0x0,%r13d
  401577:	41 be 00 00 00 00    	mov    $0x0,%r14d
  40157d:	e9 8d 00 00 00       	jmp    40160f <main+0x131>
  401582:	48 c7 c6 00 26 40 00 	mov    $0x402600,%rsi
  401589:	bf 0e 00 00 00       	mov    $0xe,%edi
  40158e:	e8 6d fb ff ff       	call   401100 <signal@plt>
  401593:	bf 02 00 00 00       	mov    $0x2,%edi
  401598:	e8 23 fb ff ff       	call   4010c0 <alarm@plt>
  40159d:	4c 8d 25 eb 2f 00 00 	lea    0x2feb(%rip),%r12        # 40458f <_IO_stdin_used+0x58f>
  4015a4:	eb bd                	jmp    401563 <main+0x85>
  4015a6:	48 8b 3b             	mov    (%rbx),%rdi
  4015a9:	e8 78 fd ff ff       	call   401326 <usage>
  4015ae:	48 8d 35 54 30 00 00 	lea    0x3054(%rip),%rsi        # 404609 <_IO_stdin_used+0x609>
  4015b5:	48 8b 3d 04 5f 00 00 	mov    0x5f04(%rip),%rdi        # 4074c0 <optarg@GLIBC_2.2.5>
  4015bc:	e8 df fb ff ff       	call   4011a0 <fopen@plt>
  4015c1:	48 89 05 50 5f 00 00 	mov    %rax,0x5f50(%rip)        # 407518 <infile>
  4015c8:	48 85 c0             	test   %rax,%rax
  4015cb:	75 42                	jne    40160f <main+0x131>
  4015cd:	48 8b 0d ec 5e 00 00 	mov    0x5eec(%rip),%rcx        # 4074c0 <optarg@GLIBC_2.2.5>
  4015d4:	48 8d 15 be 2f 00 00 	lea    0x2fbe(%rip),%rdx        # 404599 <_IO_stdin_used+0x599>
  4015db:	be 02 00 00 00       	mov    $0x2,%esi
  4015e0:	48 8b 3d f9 5e 00 00 	mov    0x5ef9(%rip),%rdi        # 4074e0 <stderr@GLIBC_2.2.5>
  4015e7:	e8 14 fc ff ff       	call   401200 <__fprintf_chk@plt>
  4015ec:	b8 01 00 00 00       	mov    $0x1,%eax
  4015f1:	e9 2b 01 00 00       	jmp    401721 <main+0x243>
  4015f6:	ba 10 00 00 00       	mov    $0x10,%edx
  4015fb:	be 00 00 00 00       	mov    $0x0,%esi
  401600:	48 8b 3d b9 5e 00 00 	mov    0x5eb9(%rip),%rdi        # 4074c0 <optarg@GLIBC_2.2.5>
  401607:	e8 b4 fb ff ff       	call   4011c0 <strtoul@plt>
  40160c:	41 89 c6             	mov    %eax,%r14d
  40160f:	4c 89 e2             	mov    %r12,%rdx
  401612:	48 89 de             	mov    %rbx,%rsi
  401615:	89 ef                	mov    %ebp,%edi
  401617:	e8 94 fb ff ff       	call   4011b0 <getopt@plt>
  40161c:	3c ff                	cmp    $0xff,%al
  40161e:	74 7a                	je     40169a <main+0x1bc>
  401620:	8d 50 9f             	lea    -0x61(%rax),%edx
  401623:	80 fa 14             	cmp    $0x14,%dl
  401626:	77 51                	ja     401679 <main+0x19b>
  401628:	0f b6 d2             	movzbl %dl,%edx
  40162b:	48 8d 0d 6e 31 00 00 	lea    0x316e(%rip),%rcx        # 4047a0 <_IO_stdin_used+0x7a0>
  401632:	48 63 14 91          	movslq (%rcx,%rdx,4),%rdx
  401636:	48 01 ca             	add    %rcx,%rdx
  401639:	3e ff e2             	notrack jmp *%rdx
  40163c:	ba 0a 00 00 00       	mov    $0xa,%edx
  401641:	be 00 00 00 00       	mov    $0x0,%esi
  401646:	48 8b 3d 73 5e 00 00 	mov    0x5e73(%rip),%rdi        # 4074c0 <optarg@GLIBC_2.2.5>
  40164d:	e8 de fa ff ff       	call   401130 <strtol@plt>
  401652:	41 89 c5             	mov    %eax,%r13d
  401655:	eb b8                	jmp    40160f <main+0x131>
  401657:	c7 05 1f 5e 00 00 00 	movl   $0x0,0x5e1f(%rip)        # 407480 <notify>
  40165e:	00 00 00 
  401661:	eb ac                	jmp    40160f <main+0x131>
  401663:	48 89 e7             	mov    %rsp,%rdi
  401666:	ba 50 00 00 00       	mov    $0x50,%edx
  40166b:	48 8b 35 4e 5e 00 00 	mov    0x5e4e(%rip),%rsi        # 4074c0 <optarg@GLIBC_2.2.5>
  401672:	e8 d9 f9 ff ff       	call   401050 <strncpy@plt>
  401677:	eb 96                	jmp    40160f <main+0x131>
  401679:	0f be d0             	movsbl %al,%edx
  40167c:	48 8d 35 33 2f 00 00 	lea    0x2f33(%rip),%rsi        # 4045b6 <_IO_stdin_used+0x5b6>
  401683:	bf 02 00 00 00       	mov    $0x2,%edi
  401688:	b8 00 00 00 00       	mov    $0x0,%eax
  40168d:	e8 fe fa ff ff       	call   401190 <__printf_chk@plt>
  401692:	48 8b 3b             	mov    (%rbx),%rdi
  401695:	e8 8c fc ff ff       	call   401326 <usage>
  40169a:	be 01 00 00 00       	mov    $0x1,%esi
  40169f:	44 89 ef             	mov    %r13d,%edi
  4016a2:	e8 1d fd ff ff       	call   4013c4 <initialize_target>
  4016a7:	83 3d 82 5e 00 00 00 	cmpl   $0x0,0x5e82(%rip)        # 407530 <is_checker>
  4016ae:	74 3f                	je     4016ef <main+0x211>
  4016b0:	44 39 35 71 5e 00 00 	cmp    %r14d,0x5e71(%rip)        # 407528 <authkey>
  4016b7:	75 13                	jne    4016cc <main+0x1ee>
  4016b9:	48 89 e7             	mov    %rsp,%rdi
  4016bc:	48 8b 35 7d 5a 00 00 	mov    0x5a7d(%rip),%rsi        # 407140 <user_id>
  4016c3:	e8 28 fa ff ff       	call   4010f0 <strcmp@plt>
  4016c8:	85 c0                	test   %eax,%eax
  4016ca:	74 23                	je     4016ef <main+0x211>
  4016cc:	44 89 f2             	mov    %r14d,%edx
  4016cf:	48 8d 35 3a 2a 00 00 	lea    0x2a3a(%rip),%rsi        # 404110 <_IO_stdin_used+0x110>
  4016d6:	bf 02 00 00 00       	mov    $0x2,%edi
  4016db:	b8 00 00 00 00       	mov    $0x0,%eax
  4016e0:	e8 ab fa ff ff       	call   401190 <__printf_chk@plt>
  4016e5:	b8 00 00 00 00       	mov    $0x0,%eax
  4016ea:	e8 41 0a 00 00       	call   402130 <check_fail>
  4016ef:	8b 15 37 5e 00 00    	mov    0x5e37(%rip),%edx        # 40752c <cookie>
  4016f5:	48 8d 35 cd 2e 00 00 	lea    0x2ecd(%rip),%rsi        # 4045c9 <_IO_stdin_used+0x5c9>
  4016fc:	bf 02 00 00 00       	mov    $0x2,%edi
  401701:	b8 00 00 00 00       	mov    $0x0,%eax
  401706:	e8 85 fa ff ff       	call   401190 <__printf_chk@plt>
  40170b:	be 01 00 00 00       	mov    $0x1,%esi
  401710:	48 8b 3d 71 5d 00 00 	mov    0x5d71(%rip),%rdi        # 407488 <buf_offset>
  401717:	e8 9b 0f 00 00       	call   4026b7 <launch>
  40171c:	b8 00 00 00 00       	mov    $0x0,%eax
  401721:	48 8b 54 24 58       	mov    0x58(%rsp),%rdx
  401726:	64 48 2b 14 25 28 00 	sub    %fs:0x28,%rdx
  40172d:	00 00 
  40172f:	75 0d                	jne    40173e <main+0x260>
  401731:	48 83 c4 60          	add    $0x60,%rsp
  401735:	5b                   	pop    %rbx
  401736:	5d                   	pop    %rbp
  401737:	41 5c                	pop    %r12
  401739:	41 5d                	pop    %r13
  40173b:	41 5e                	pop    %r14
  40173d:	c3                   	ret
  40173e:	e8 1a 0f 00 00       	call   40265d <__stack_chk_fail>

0000000000401743 <scramble>:
  401743:	f3 0f 1e fa          	endbr64
  401747:	48 83 ec 38          	sub    $0x38,%rsp
  40174b:	64 48 8b 04 25 28 00 	mov    %fs:0x28,%rax
  401752:	00 00 
  401754:	48 89 44 24 28       	mov    %rax,0x28(%rsp)
  401759:	31 c0                	xor    %eax,%eax
  40175b:	eb 10                	jmp    40176d <scramble+0x2a>
  40175d:	69 d0 bb 40 00 00    	imul   $0x40bb,%eax,%edx
  401763:	01 fa                	add    %edi,%edx
  401765:	89 c1                	mov    %eax,%ecx
  401767:	89 14 8c             	mov    %edx,(%rsp,%rcx,4)
  40176a:	83 c0 01             	add    $0x1,%eax
  40176d:	83 f8 09             	cmp    $0x9,%eax
  401770:	76 eb                	jbe    40175d <scramble+0x1a>
  401772:	8b 44 24 04          	mov    0x4(%rsp),%eax
  401776:	69 c0 fe ea 00 00    	imul   $0xeafe,%eax,%eax
  40177c:	89 44 24 04          	mov    %eax,0x4(%rsp)
  401780:	8b 44 24 10          	mov    0x10(%rsp),%eax
  401784:	69 c0 1c 10 00 00    	imul   $0x101c,%eax,%eax
  40178a:	89 44 24 10          	mov    %eax,0x10(%rsp)
  40178e:	8b 44 24 08          	mov    0x8(%rsp),%eax
  401792:	69 c0 2a 36 00 00    	imul   $0x362a,%eax,%eax
  401798:	89 44 24 08          	mov    %eax,0x8(%rsp)
  40179c:	8b 44 24 24          	mov    0x24(%rsp),%eax
  4017a0:	69 c0 32 a3 00 00    	imul   $0xa332,%eax,%eax
  4017a6:	89 44 24 24          	mov    %eax,0x24(%rsp)
  4017aa:	8b 44 24 24          	mov    0x24(%rsp),%eax
  4017ae:	69 c0 d2 35 00 00    	imul   $0x35d2,%eax,%eax
  4017b4:	89 44 24 24          	mov    %eax,0x24(%rsp)
  4017b8:	8b 44 24 10          	mov    0x10(%rsp),%eax
  4017bc:	69 c0 02 4e 00 00    	imul   $0x4e02,%eax,%eax
  4017c2:	89 44 24 10          	mov    %eax,0x10(%rsp)
  4017c6:	8b 44 24 14          	mov    0x14(%rsp),%eax
  4017ca:	69 c0 f6 4e 00 00    	imul   $0x4ef6,%eax,%eax
  4017d0:	89 44 24 14          	mov    %eax,0x14(%rsp)
  4017d4:	8b 44 24 1c          	mov    0x1c(%rsp),%eax
  4017d8:	69 c0 d9 e0 00 00    	imul   $0xe0d9,%eax,%eax
  4017de:	89 44 24 1c          	mov    %eax,0x1c(%rsp)
  4017e2:	8b 44 24 1c          	mov    0x1c(%rsp),%eax
  4017e6:	69 c0 99 ff 00 00    	imul   $0xff99,%eax,%eax
  4017ec:	89 44 24 1c          	mov    %eax,0x1c(%rsp)
  4017f0:	8b 44 24 1c          	mov    0x1c(%rsp),%eax
  4017f4:	69 c0 e7 92 00 00    	imul   $0x92e7,%eax,%eax
  4017fa:	89 44 24 1c          	mov    %eax,0x1c(%rsp)
  4017fe:	8b 44 24 24          	mov    0x24(%rsp),%eax
  401802:	69 c0 85 40 00 00    	imul   $0x4085,%eax,%eax
  401808:	89 44 24 24          	mov    %eax,0x24(%rsp)
  40180c:	8b 44 24 24          	mov    0x24(%rsp),%eax
  401810:	69 c0 99 ad 00 00    	imul   $0xad99,%eax,%eax
  401816:	89 44 24 24          	mov    %eax,0x24(%rsp)
  40181a:	8b 44 24 24          	mov    0x24(%rsp),%eax
  40181e:	69 c0 87 4a 00 00    	imul   $0x4a87,%eax,%eax
  401824:	89 44 24 24          	mov    %eax,0x24(%rsp)
  401828:	8b 44 24 10          	mov    0x10(%rsp),%eax
  40182c:	69 c0 4d 7e 00 00    	imul   $0x7e4d,%eax,%eax
  401832:	89 44 24 10          	mov    %eax,0x10(%rsp)
  401836:	8b 44 24 18          	mov    0x18(%rsp),%eax
  40183a:	69 c0 28 fc 00 00    	imul   $0xfc28,%eax,%eax
  401840:	89 44 24 18          	mov    %eax,0x18(%rsp)
  401844:	8b 44 24 24          	mov    0x24(%rsp),%eax
  401848:	69 c0 f3 89 00 00    	imul   $0x89f3,%eax,%eax
  40184e:	89 44 24 24          	mov    %eax,0x24(%rsp)
  401852:	8b 44 24 04          	mov    0x4(%rsp),%eax
  401856:	69 c0 0b 44 00 00    	imul   $0x440b,%eax,%eax
  40185c:	89 44 24 04          	mov    %eax,0x4(%rsp)
  401860:	8b 44 24 14          	mov    0x14(%rsp),%eax
  401864:	69 c0 11 b3 00 00    	imul   $0xb311,%eax,%eax
  40186a:	89 44 24 14          	mov    %eax,0x14(%rsp)
  40186e:	8b 44 24 1c          	mov    0x1c(%rsp),%eax
  401872:	69 c0 d7 88 00 00    	imul   $0x88d7,%eax,%eax
  401878:	89 44 24 1c          	mov    %eax,0x1c(%rsp)
  40187c:	8b 44 24 10          	mov    0x10(%rsp),%eax
  401880:	69 c0 e0 eb 00 00    	imul   $0xebe0,%eax,%eax
  401886:	89 44 24 10          	mov    %eax,0x10(%rsp)
  40188a:	8b 44 24 18          	mov    0x18(%rsp),%eax
  40188e:	69 c0 6a c0 00 00    	imul   $0xc06a,%eax,%eax
  401894:	89 44 24 18          	mov    %eax,0x18(%rsp)
  401898:	8b 44 24 18          	mov    0x18(%rsp),%eax
  40189c:	69 c0 c4 41 00 00    	imul   $0x41c4,%eax,%eax
  4018a2:	89 44 24 18          	mov    %eax,0x18(%rsp)
  4018a6:	8b 44 24 0c          	mov    0xc(%rsp),%eax
  4018aa:	69 c0 bc cb 00 00    	imul   $0xcbbc,%eax,%eax
  4018b0:	89 44 24 0c          	mov    %eax,0xc(%rsp)
  4018b4:	8b 44 24 0c          	mov    0xc(%rsp),%eax
  4018b8:	69 c0 17 fb 00 00    	imul   $0xfb17,%eax,%eax
  4018be:	89 44 24 0c          	mov    %eax,0xc(%rsp)
  4018c2:	8b 44 24 14          	mov    0x14(%rsp),%eax
  4018c6:	69 c0 38 59 00 00    	imul   $0x5938,%eax,%eax
  4018cc:	89 44 24 14          	mov    %eax,0x14(%rsp)
  4018d0:	8b 44 24 1c          	mov    0x1c(%rsp),%eax
  4018d4:	69 c0 e7 62 00 00    	imul   $0x62e7,%eax,%eax
  4018da:	89 44 24 1c          	mov    %eax,0x1c(%rsp)
  4018de:	8b 44 24 08          	mov    0x8(%rsp),%eax
  4018e2:	69 c0 88 19 00 00    	imul   $0x1988,%eax,%eax
  4018e8:	89 44 24 08          	mov    %eax,0x8(%rsp)
  4018ec:	8b 44 24 24          	mov    0x24(%rsp),%eax
  4018f0:	69 c0 e8 8b 00 00    	imul   $0x8be8,%eax,%eax
  4018f6:	89 44 24 24          	mov    %eax,0x24(%rsp)
  4018fa:	8b 44 24 04          	mov    0x4(%rsp),%eax
  4018fe:	69 c0 a2 06 00 00    	imul   $0x6a2,%eax,%eax
  401904:	89 44 24 04          	mov    %eax,0x4(%rsp)
  401908:	8b 04 24             	mov    (%rsp),%eax
  40190b:	69 c0 47 ad 00 00    	imul   $0xad47,%eax,%eax
  401911:	89 04 24             	mov    %eax,(%rsp)
  401914:	8b 44 24 08          	mov    0x8(%rsp),%eax
  401918:	69 c0 28 18 00 00    	imul   $0x1828,%eax,%eax
  40191e:	89 44 24 08          	mov    %eax,0x8(%rsp)
  401922:	8b 44 24 04          	mov    0x4(%rsp),%eax
  401926:	69 c0 f1 e9 00 00    	imul   $0xe9f1,%eax,%eax
  40192c:	89 44 24 04          	mov    %eax,0x4(%rsp)
  401930:	8b 44 24 10          	mov    0x10(%rsp),%eax
  401934:	69 c0 4a d1 00 00    	imul   $0xd14a,%eax,%eax
  40193a:	89 44 24 10          	mov    %eax,0x10(%rsp)
  40193e:	8b 44 24 24          	mov    0x24(%rsp),%eax
  401942:	69 c0 69 d6 00 00    	imul   $0xd669,%eax,%eax
  401948:	89 44 24 24          	mov    %eax,0x24(%rsp)
  40194c:	8b 44 24 0c          	mov    0xc(%rsp),%eax
  401950:	69 c0 46 f3 00 00    	imul   $0xf346,%eax,%eax
  401956:	89 44 24 0c          	mov    %eax,0xc(%rsp)
  40195a:	8b 44 24 08          	mov    0x8(%rsp),%eax
  40195e:	69 c0 cb 18 00 00    	imul   $0x18cb,%eax,%eax
  401964:	89 44 24 08          	mov    %eax,0x8(%rsp)
  401968:	8b 44 24 14          	mov    0x14(%rsp),%eax
  40196c:	69 c0 2c fc 00 00    	imul   $0xfc2c,%eax,%eax
  401972:	89 44 24 14          	mov    %eax,0x14(%rsp)
  401976:	8b 44 24 18          	mov    0x18(%rsp),%eax
  40197a:	69 c0 11 c3 00 00    	imul   $0xc311,%eax,%eax
  401980:	89 44 24 18          	mov    %eax,0x18(%rsp)
  401984:	8b 44 24 10          	mov    0x10(%rsp),%eax
  401988:	69 c0 2c 7d 00 00    	imul   $0x7d2c,%eax,%eax
  40198e:	89 44 24 10          	mov    %eax,0x10(%rsp)
  401992:	8b 44 24 04          	mov    0x4(%rsp),%eax
  401996:	69 c0 3d 93 00 00    	imul   $0x933d,%eax,%eax
  40199c:	89 44 24 04          	mov    %eax,0x4(%rsp)
  4019a0:	8b 44 24 08          	mov    0x8(%rsp),%eax
  4019a4:	69 c0 27 4c 00 00    	imul   $0x4c27,%eax,%eax
  4019aa:	89 44 24 08          	mov    %eax,0x8(%rsp)
  4019ae:	8b 44 24 1c          	mov    0x1c(%rsp),%eax
  4019b2:	69 c0 22 70 00 00    	imul   $0x7022,%eax,%eax
  4019b8:	89 44 24 1c          	mov    %eax,0x1c(%rsp)
  4019bc:	8b 44 24 04          	mov    0x4(%rsp),%eax
  4019c0:	69 c0 a5 06 00 00    	imul   $0x6a5,%eax,%eax
  4019c6:	89 44 24 04          	mov    %eax,0x4(%rsp)
  4019ca:	8b 44 24 1c          	mov    0x1c(%rsp),%eax
  4019ce:	69 c0 be c9 00 00    	imul   $0xc9be,%eax,%eax
  4019d4:	89 44 24 1c          	mov    %eax,0x1c(%rsp)
  4019d8:	8b 44 24 0c          	mov    0xc(%rsp),%eax
  4019dc:	69 c0 40 06 00 00    	imul   $0x640,%eax,%eax
  4019e2:	89 44 24 0c          	mov    %eax,0xc(%rsp)
  4019e6:	8b 44 24 10          	mov    0x10(%rsp),%eax
  4019ea:	69 c0 11 10 00 00    	imul   $0x1011,%eax,%eax
  4019f0:	89 44 24 10          	mov    %eax,0x10(%rsp)
  4019f4:	8b 44 24 24          	mov    0x24(%rsp),%eax
  4019f8:	69 c0 40 ae 00 00    	imul   $0xae40,%eax,%eax
  4019fe:	89 44 24 24          	mov    %eax,0x24(%rsp)
  401a02:	8b 44 24 08          	mov    0x8(%rsp),%eax
  401a06:	69 c0 9c 7a 00 00    	imul   $0x7a9c,%eax,%eax
  401a0c:	89 44 24 08          	mov    %eax,0x8(%rsp)
  401a10:	8b 44 24 14          	mov    0x14(%rsp),%eax
  401a14:	69 c0 05 97 00 00    	imul   $0x9705,%eax,%eax
  401a1a:	89 44 24 14          	mov    %eax,0x14(%rsp)
  401a1e:	8b 44 24 24          	mov    0x24(%rsp),%eax
  401a22:	69 c0 ab d9 00 00    	imul   $0xd9ab,%eax,%eax
  401a28:	89 44 24 24          	mov    %eax,0x24(%rsp)
  401a2c:	8b 44 24 1c          	mov    0x1c(%rsp),%eax
  401a30:	69 c0 4e 13 00 00    	imul   $0x134e,%eax,%eax
  401a36:	89 44 24 1c          	mov    %eax,0x1c(%rsp)
  401a3a:	8b 44 24 08          	mov    0x8(%rsp),%eax
  401a3e:	69 c0 fc 3d 00 00    	imul   $0x3dfc,%eax,%eax
  401a44:	89 44 24 08          	mov    %eax,0x8(%rsp)
  401a48:	8b 44 24 14          	mov    0x14(%rsp),%eax
  401a4c:	69 c0 06 4d 00 00    	imul   $0x4d06,%eax,%eax
  401a52:	89 44 24 14          	mov    %eax,0x14(%rsp)
  401a56:	8b 44 24 14          	mov    0x14(%rsp),%eax
  401a5a:	69 c0 62 d7 00 00    	imul   $0xd762,%eax,%eax
  401a60:	89 44 24 14          	mov    %eax,0x14(%rsp)
  401a64:	8b 44 24 20          	mov    0x20(%rsp),%eax
  401a68:	69 c0 35 bf 00 00    	imul   $0xbf35,%eax,%eax
  401a6e:	89 44 24 20          	mov    %eax,0x20(%rsp)
  401a72:	8b 44 24 0c          	mov    0xc(%rsp),%eax
  401a76:	69 c0 98 a0 00 00    	imul   $0xa098,%eax,%eax
  401a7c:	89 44 24 0c          	mov    %eax,0xc(%rsp)
  401a80:	8b 04 24             	mov    (%rsp),%eax
  401a83:	69 c0 c4 60 00 00    	imul   $0x60c4,%eax,%eax
  401a89:	89 04 24             	mov    %eax,(%rsp)
  401a8c:	8b 44 24 14          	mov    0x14(%rsp),%eax
  401a90:	69 c0 0c 71 00 00    	imul   $0x710c,%eax,%eax
  401a96:	89 44 24 14          	mov    %eax,0x14(%rsp)
  401a9a:	8b 44 24 24          	mov    0x24(%rsp),%eax
  401a9e:	69 c0 c5 0c 00 00    	imul   $0xcc5,%eax,%eax
  401aa4:	89 44 24 24          	mov    %eax,0x24(%rsp)
  401aa8:	8b 44 24 18          	mov    0x18(%rsp),%eax
  401aac:	69 c0 b0 74 00 00    	imul   $0x74b0,%eax,%eax
  401ab2:	89 44 24 18          	mov    %eax,0x18(%rsp)
  401ab6:	8b 44 24 10          	mov    0x10(%rsp),%eax
  401aba:	69 c0 d0 b1 00 00    	imul   $0xb1d0,%eax,%eax
  401ac0:	89 44 24 10          	mov    %eax,0x10(%rsp)
  401ac4:	8b 04 24             	mov    (%rsp),%eax
  401ac7:	69 c0 6e 31 00 00    	imul   $0x316e,%eax,%eax
  401acd:	89 04 24             	mov    %eax,(%rsp)
  401ad0:	8b 04 24             	mov    (%rsp),%eax
  401ad3:	69 c0 c5 7e 00 00    	imul   $0x7ec5,%eax,%eax
  401ad9:	89 04 24             	mov    %eax,(%rsp)
  401adc:	8b 04 24             	mov    (%rsp),%eax
  401adf:	69 c0 9a df 00 00    	imul   $0xdf9a,%eax,%eax
  401ae5:	89 04 24             	mov    %eax,(%rsp)
  401ae8:	8b 44 24 18          	mov    0x18(%rsp),%eax
  401aec:	69 c0 0f fd 00 00    	imul   $0xfd0f,%eax,%eax
  401af2:	89 44 24 18          	mov    %eax,0x18(%rsp)
  401af6:	8b 44 24 18          	mov    0x18(%rsp),%eax
  401afa:	69 c0 16 a0 00 00    	imul   $0xa016,%eax,%eax
  401b00:	89 44 24 18          	mov    %eax,0x18(%rsp)
  401b04:	8b 44 24 10          	mov    0x10(%rsp),%eax
  401b08:	69 c0 bd ab 00 00    	imul   $0xabbd,%eax,%eax
  401b0e:	89 44 24 10          	mov    %eax,0x10(%rsp)
  401b12:	8b 44 24 24          	mov    0x24(%rsp),%eax
  401b16:	69 c0 d8 1f 00 00    	imul   $0x1fd8,%eax,%eax
  401b1c:	89 44 24 24          	mov    %eax,0x24(%rsp)
  401b20:	8b 44 24 24          	mov    0x24(%rsp),%eax
  401b24:	69 c0 1f df 00 00    	imul   $0xdf1f,%eax,%eax
  401b2a:	89 44 24 24          	mov    %eax,0x24(%rsp)
  401b2e:	8b 44 24 08          	mov    0x8(%rsp),%eax
  401b32:	69 c0 f6 c2 00 00    	imul   $0xc2f6,%eax,%eax
  401b38:	89 44 24 08          	mov    %eax,0x8(%rsp)
  401b3c:	8b 44 24 10          	mov    0x10(%rsp),%eax
  401b40:	69 c0 db 61 00 00    	imul   $0x61db,%eax,%eax
  401b46:	89 44 24 10          	mov    %eax,0x10(%rsp)
  401b4a:	8b 44 24 24          	mov    0x24(%rsp),%eax
  401b4e:	69 c0 b1 a9 00 00    	imul   $0xa9b1,%eax,%eax
  401b54:	89 44 24 24          	mov    %eax,0x24(%rsp)
  401b58:	8b 44 24 20          	mov    0x20(%rsp),%eax
  401b5c:	69 c0 49 74 00 00    	imul   $0x7449,%eax,%eax
  401b62:	89 44 24 20          	mov    %eax,0x20(%rsp)
  401b66:	8b 44 24 18          	mov    0x18(%rsp),%eax
  401b6a:	69 c0 09 2a 00 00    	imul   $0x2a09,%eax,%eax
  401b70:	89 44 24 18          	mov    %eax,0x18(%rsp)
  401b74:	8b 44 24 04          	mov    0x4(%rsp),%eax
  401b78:	69 c0 89 55 00 00    	imul   $0x5589,%eax,%eax
  401b7e:	89 44 24 04          	mov    %eax,0x4(%rsp)
  401b82:	8b 44 24 0c          	mov    0xc(%rsp),%eax
  401b86:	69 c0 14 94 00 00    	imul   $0x9414,%eax,%eax
  401b8c:	89 44 24 0c          	mov    %eax,0xc(%rsp)
  401b90:	8b 44 24 1c          	mov    0x1c(%rsp),%eax
  401b94:	69 c0 7b 23 00 00    	imul   $0x237b,%eax,%eax
  401b9a:	89 44 24 1c          	mov    %eax,0x1c(%rsp)
  401b9e:	8b 44 24 08          	mov    0x8(%rsp),%eax
  401ba2:	69 c0 6a 67 00 00    	imul   $0x676a,%eax,%eax
  401ba8:	89 44 24 08          	mov    %eax,0x8(%rsp)
  401bac:	8b 04 24             	mov    (%rsp),%eax
  401baf:	69 c0 8d 71 00 00    	imul   $0x718d,%eax,%eax
  401bb5:	89 04 24             	mov    %eax,(%rsp)
  401bb8:	8b 44 24 14          	mov    0x14(%rsp),%eax
  401bbc:	69 c0 0b b8 00 00    	imul   $0xb80b,%eax,%eax
  401bc2:	89 44 24 14          	mov    %eax,0x14(%rsp)
  401bc6:	8b 44 24 14          	mov    0x14(%rsp),%eax
  401bca:	6b c0 4a             	imul   $0x4a,%eax,%eax
  401bcd:	89 44 24 14          	mov    %eax,0x14(%rsp)
  401bd1:	8b 44 24 0c          	mov    0xc(%rsp),%eax
  401bd5:	69 c0 fb 7e 00 00    	imul   $0x7efb,%eax,%eax
  401bdb:	89 44 24 0c          	mov    %eax,0xc(%rsp)
  401bdf:	8b 44 24 0c          	mov    0xc(%rsp),%eax
  401be3:	69 c0 33 36 00 00    	imul   $0x3633,%eax,%eax
  401be9:	89 44 24 0c          	mov    %eax,0xc(%rsp)
  401bed:	8b 44 24 08          	mov    0x8(%rsp),%eax
  401bf1:	69 c0 cb a4 00 00    	imul   $0xa4cb,%eax,%eax
  401bf7:	89 44 24 08          	mov    %eax,0x8(%rsp)
  401bfb:	b8 00 00 00 00       	mov    $0x0,%eax
  401c00:	ba 00 00 00 00       	mov    $0x0,%edx
  401c05:	eb 0a                	jmp    401c11 <scramble+0x4ce>
  401c07:	89 c1                	mov    %eax,%ecx
  401c09:	8b 0c 8c             	mov    (%rsp,%rcx,4),%ecx
  401c0c:	01 ca                	add    %ecx,%edx
  401c0e:	83 c0 01             	add    $0x1,%eax
  401c11:	83 f8 09             	cmp    $0x9,%eax
  401c14:	76 f1                	jbe    401c07 <scramble+0x4c4>
  401c16:	48 8b 44 24 28       	mov    0x28(%rsp),%rax
  401c1b:	64 48 2b 04 25 28 00 	sub    %fs:0x28,%rax
  401c22:	00 00 
  401c24:	75 07                	jne    401c2d <scramble+0x4ea>
  401c26:	89 d0                	mov    %edx,%eax
  401c28:	48 83 c4 38          	add    $0x38,%rsp
  401c2c:	c3                   	ret
  401c2d:	e8 2b 0a 00 00       	call   40265d <__stack_chk_fail>

0000000000401c32 <getbuf>:
  401c32:	f3 0f 1e fa          	endbr64
  401c36:	48 83 ec 38          	sub    $0x38,%rsp
  401c3a:	48 89 e7             	mov    %rsp,%rdi
  401c3d:	e8 2c 05 00 00       	call   40216e <Gets>
  401c42:	b8 01 00 00 00       	mov    $0x1,%eax
  401c47:	48 83 c4 38          	add    $0x38,%rsp
  401c4b:	c3                   	ret

0000000000401c4c <touch1>:
  401c4c:	f3 0f 1e fa          	endbr64
  401c50:	50                   	push   %rax
  401c51:	58                   	pop    %rax
  401c52:	48 83 ec 08          	sub    $0x8,%rsp
  401c56:	c7 05 c4 58 00 00 01 	movl   $0x1,0x58c4(%rip)        # 407524 <vlevel>
  401c5d:	00 00 00 
  401c60:	48 8d 3d a4 29 00 00 	lea    0x29a4(%rip),%rdi        # 40460b <_IO_stdin_used+0x60b>
  401c67:	e8 14 f4 ff ff       	call   401080 <puts@plt>
  401c6c:	bf 01 00 00 00       	mov    $0x1,%edi
  401c71:	e8 75 07 00 00       	call   4023eb <validate>
  401c76:	bf 00 00 00 00       	mov    $0x0,%edi
  401c7b:	e8 60 f5 ff ff       	call   4011e0 <exit@plt>

0000000000401c80 <touch2>:
  401c80:	f3 0f 1e fa          	endbr64
  401c84:	50                   	push   %rax
  401c85:	58                   	pop    %rax
  401c86:	48 83 ec 08          	sub    $0x8,%rsp
  401c8a:	89 fa                	mov    %edi,%edx
  401c8c:	c7 05 8e 58 00 00 02 	movl   $0x2,0x588e(%rip)        # 407524 <vlevel>
  401c93:	00 00 00 
  401c96:	39 3d 90 58 00 00    	cmp    %edi,0x5890(%rip)        # 40752c <cookie>
  401c9c:	74 2a                	je     401cc8 <touch2+0x48>
  401c9e:	48 8d 35 db 24 00 00 	lea    0x24db(%rip),%rsi        # 404180 <_IO_stdin_used+0x180>
  401ca5:	bf 02 00 00 00       	mov    $0x2,%edi
  401caa:	b8 00 00 00 00       	mov    $0x0,%eax
  401caf:	e8 dc f4 ff ff       	call   401190 <__printf_chk@plt>
  401cb4:	bf 02 00 00 00       	mov    $0x2,%edi
  401cb9:	e8 08 08 00 00       	call   4024c6 <fail>
  401cbe:	bf 00 00 00 00       	mov    $0x0,%edi
  401cc3:	e8 18 f5 ff ff       	call   4011e0 <exit@plt>
  401cc8:	48 8d 35 89 24 00 00 	lea    0x2489(%rip),%rsi        # 404158 <_IO_stdin_used+0x158>
  401ccf:	bf 02 00 00 00       	mov    $0x2,%edi
  401cd4:	b8 00 00 00 00       	mov    $0x0,%eax
  401cd9:	e8 b2 f4 ff ff       	call   401190 <__printf_chk@plt>
  401cde:	bf 02 00 00 00       	mov    $0x2,%edi
  401ce3:	e8 03 07 00 00       	call   4023eb <validate>
  401ce8:	eb d4                	jmp    401cbe <touch2+0x3e>

0000000000401cea <hexmatch>:
  401cea:	f3 0f 1e fa          	endbr64
  401cee:	41 54                	push   %r12
  401cf0:	55                   	push   %rbp
  401cf1:	53                   	push   %rbx
  401cf2:	48 83 c4 80          	add    $0xffffffffffffff80,%rsp
  401cf6:	89 fd                	mov    %edi,%ebp
  401cf8:	48 89 f3             	mov    %rsi,%rbx
  401cfb:	64 48 8b 04 25 28 00 	mov    %fs:0x28,%rax
  401d02:	00 00 
  401d04:	48 89 44 24 78       	mov    %rax,0x78(%rsp)
  401d09:	31 c0                	xor    %eax,%eax
  401d0b:	e8 50 f4 ff ff       	call   401160 <random@plt>
  401d10:	48 89 c6             	mov    %rax,%rsi
  401d13:	48 ba 0b d7 a3 70 3d 	movabs $0xa3d70a3d70a3d70b,%rdx
  401d1a:	0a d7 a3 
  401d1d:	48 f7 ea             	imul   %rdx
  401d20:	48 8d 0c 32          	lea    (%rdx,%rsi,1),%rcx
  401d24:	48 c1 f9 06          	sar    $0x6,%rcx
  401d28:	48 89 f0             	mov    %rsi,%rax
  401d2b:	48 c1 f8 3f          	sar    $0x3f,%rax
  401d2f:	48 29 c1             	sub    %rax,%rcx
  401d32:	48 8d 04 89          	lea    (%rcx,%rcx,4),%rax
  401d36:	48 8d 04 80          	lea    (%rax,%rax,4),%rax
  401d3a:	48 c1 e0 02          	shl    $0x2,%rax
  401d3e:	48 29 c6             	sub    %rax,%rsi
  401d41:	4c 8d 24 34          	lea    (%rsp,%rsi,1),%r12
  401d45:	ba 6e 00 00 00       	mov    $0x6e,%edx
  401d4a:	48 39 d6             	cmp    %rdx,%rsi
  401d4d:	48 0f 43 d6          	cmovae %rsi,%rdx
  401d51:	48 29 f2             	sub    %rsi,%rdx
  401d54:	41 89 e8             	mov    %ebp,%r8d
  401d57:	48 8d 0d ca 28 00 00 	lea    0x28ca(%rip),%rcx        # 404628 <_IO_stdin_used+0x628>
  401d5e:	be 02 00 00 00       	mov    $0x2,%esi
  401d63:	4c 89 e7             	mov    %r12,%rdi
  401d66:	b8 00 00 00 00       	mov    $0x0,%eax
  401d6b:	e8 b0 f4 ff ff       	call   401220 <__sprintf_chk@plt>
  401d70:	ba 09 00 00 00       	mov    $0x9,%edx
  401d75:	4c 89 e6             	mov    %r12,%rsi
  401d78:	48 89 df             	mov    %rbx,%rdi
  401d7b:	e8 e0 f2 ff ff       	call   401060 <strncmp@plt>
  401d80:	85 c0                	test   %eax,%eax
  401d82:	0f 94 c0             	sete   %al
  401d85:	48 8b 54 24 78       	mov    0x78(%rsp),%rdx
  401d8a:	64 48 2b 14 25 28 00 	sub    %fs:0x28,%rdx
  401d91:	00 00 
  401d93:	75 0c                	jne    401da1 <hexmatch+0xb7>
  401d95:	0f b6 c0             	movzbl %al,%eax
  401d98:	48 83 ec 80          	sub    $0xffffffffffffff80,%rsp
  401d9c:	5b                   	pop    %rbx
  401d9d:	5d                   	pop    %rbp
  401d9e:	41 5c                	pop    %r12
  401da0:	c3                   	ret
  401da1:	e8 b7 08 00 00       	call   40265d <__stack_chk_fail>

0000000000401da6 <touch3>:
  401da6:	f3 0f 1e fa          	endbr64
  401daa:	53                   	push   %rbx
  401dab:	48 89 fb             	mov    %rdi,%rbx
  401dae:	c7 05 6c 57 00 00 03 	movl   $0x3,0x576c(%rip)        # 407524 <vlevel>
  401db5:	00 00 00 
  401db8:	48 89 fe             	mov    %rdi,%rsi
  401dbb:	8b 3d 6b 57 00 00    	mov    0x576b(%rip),%edi        # 40752c <cookie>
  401dc1:	e8 24 ff ff ff       	call   401cea <hexmatch>
  401dc6:	85 c0                	test   %eax,%eax
  401dc8:	74 2d                	je     401df7 <touch3+0x51>
  401dca:	48 89 da             	mov    %rbx,%rdx
  401dcd:	48 8d 35 d4 23 00 00 	lea    0x23d4(%rip),%rsi        # 4041a8 <_IO_stdin_used+0x1a8>
  401dd4:	bf 02 00 00 00       	mov    $0x2,%edi
  401dd9:	b8 00 00 00 00       	mov    $0x0,%eax
  401dde:	e8 ad f3 ff ff       	call   401190 <__printf_chk@plt>
  401de3:	bf 03 00 00 00       	mov    $0x3,%edi
  401de8:	e8 fe 05 00 00       	call   4023eb <validate>
  401ded:	bf 00 00 00 00       	mov    $0x0,%edi
  401df2:	e8 e9 f3 ff ff       	call   4011e0 <exit@plt>
  401df7:	48 89 da             	mov    %rbx,%rdx
  401dfa:	48 8d 35 cf 23 00 00 	lea    0x23cf(%rip),%rsi        # 4041d0 <_IO_stdin_used+0x1d0>
  401e01:	bf 02 00 00 00       	mov    $0x2,%edi
  401e06:	b8 00 00 00 00       	mov    $0x0,%eax
  401e0b:	e8 80 f3 ff ff       	call   401190 <__printf_chk@plt>
  401e10:	bf 03 00 00 00       	mov    $0x3,%edi
  401e15:	e8 ac 06 00 00       	call   4024c6 <fail>
  401e1a:	eb d1                	jmp    401ded <touch3+0x47>

0000000000401e1c <test>:
  401e1c:	f3 0f 1e fa          	endbr64
  401e20:	48 83 ec 08          	sub    $0x8,%rsp
  401e24:	b8 00 00 00 00       	mov    $0x0,%eax
  401e29:	e8 04 fe ff ff       	call   401c32 <getbuf>
  401e2e:	89 c2                	mov    %eax,%edx
  401e30:	48 8d 35 c1 23 00 00 	lea    0x23c1(%rip),%rsi        # 4041f8 <_IO_stdin_used+0x1f8>
  401e37:	bf 02 00 00 00       	mov    $0x2,%edi
  401e3c:	b8 00 00 00 00       	mov    $0x0,%eax
  401e41:	e8 4a f3 ff ff       	call   401190 <__printf_chk@plt>
  401e46:	48 83 c4 08          	add    $0x8,%rsp
  401e4a:	c3                   	ret

0000000000401e4b <test2>:
  401e4b:	f3 0f 1e fa          	endbr64
  401e4f:	48 83 ec 08          	sub    $0x8,%rsp
  401e53:	b8 00 00 00 00       	mov    $0x0,%eax
  401e58:	e8 1d 00 00 00       	call   401e7a <getbuf_withcanary>
  401e5d:	89 c2                	mov    %eax,%edx
  401e5f:	48 8d 35 ba 23 00 00 	lea    0x23ba(%rip),%rsi        # 404220 <_IO_stdin_used+0x220>
  401e66:	bf 02 00 00 00       	mov    $0x2,%edi
  401e6b:	b8 00 00 00 00       	mov    $0x0,%eax
  401e70:	e8 1b f3 ff ff       	call   401190 <__printf_chk@plt>
  401e75:	48 83 c4 08          	add    $0x8,%rsp
  401e79:	c3                   	ret

0000000000401e7a <getbuf_withcanary>:
  401e7a:	55                   	push   %rbp
  401e7b:	48 89 e5             	mov    %rsp,%rbp
  401e7e:	48 81 ec 20 01 00 00 	sub    $0x120,%rsp
  401e85:	64 48 8b 04 25 28 00 	mov    %fs:0x28,%rax
  401e8c:	00 00 
  401e8e:	48 89 45 f8          	mov    %rax,-0x8(%rbp)
  401e92:	31 c0                	xor    %eax,%eax
  401e94:	c7 45 e4 00 00 00 00 	movl   $0x0,-0x1c(%rbp)
  401e9b:	48 8d 85 60 ff ff ff 	lea    -0xa0(%rbp),%rax
  401ea2:	48 89 c7             	mov    %rax,%rdi
  401ea5:	e8 c4 02 00 00       	call   40216e <Gets>
  401eaa:	8b 45 e4             	mov    -0x1c(%rbp),%eax
  401ead:	48 98                	cltq
  401eaf:	48 8d 95 e0 fe ff ff 	lea    -0x120(%rbp),%rdx
  401eb6:	48 8d 0c 02          	lea    (%rdx,%rax,1),%rcx
  401eba:	48 8d 85 60 ff ff ff 	lea    -0xa0(%rbp),%rax
  401ec1:	ba 80 00 00 00       	mov    $0x80,%edx
  401ec6:	48 89 c6             	mov    %rax,%rsi
  401ec9:	48 89 cf             	mov    %rcx,%rdi
  401ecc:	e8 6f f2 ff ff       	call   401140 <memcpy@plt>
  401ed1:	b8 01 00 00 00       	mov    $0x1,%eax
  401ed6:	48 8b 75 f8          	mov    -0x8(%rbp),%rsi
  401eda:	64 48 33 34 25 28 00 	xor    %fs:0x28,%rsi
  401ee1:	00 00 
  401ee3:	74 05                	je     401eea <getbuf_withcanary+0x70>
  401ee5:	e8 73 07 00 00       	call   40265d <__stack_chk_fail>
  401eea:	c9                   	leave
  401eeb:	c3                   	ret

0000000000401eec <start_farm>:
  401eec:	f3 0f 1e fa          	endbr64
  401ef0:	b8 01 00 00 00       	mov    $0x1,%eax
  401ef5:	c3                   	ret

0000000000401ef6 <addval_209>:
  401ef6:	f3 0f 1e fa          	endbr64
  401efa:	8d 87 48 89 c7 c3    	lea    -0x3c3876b8(%rdi),%eax
  401f00:	c3                   	ret

0000000000401f01 <getval_383>:
  401f01:	f3 0f 1e fa          	endbr64
  401f05:	b8 48 89 c7 91       	mov    $0x91c78948,%eax
  401f0a:	c3                   	ret

0000000000401f0b <addval_442>:
  401f0b:	f3 0f 1e fa          	endbr64
  401f0f:	8d 87 48 89 c7 92    	lea    -0x6d3876b8(%rdi),%eax
  401f15:	c3                   	ret

0000000000401f16 <getval_411>:
  401f16:	f3 0f 1e fa          	endbr64
  401f1a:	b8 d8 90 90 90       	mov    $0x909090d8,%eax
  401f1f:	c3                   	ret

0000000000401f20 <addval_363>:
  401f20:	f3 0f 1e fa          	endbr64
  401f24:	8d 87 90 15 2b 58    	lea    0x582b1590(%rdi),%eax
  401f2a:	c3                   	ret

0000000000401f2b <setval_176>:
  401f2b:	f3 0f 1e fa          	endbr64
  401f2f:	c7 07 23 3f 55 58    	movl   $0x58553f23,(%rdi)
  401f35:	c3                   	ret

0000000000401f36 <addval_308>:
  401f36:	f3 0f 1e fa          	endbr64
  401f3a:	8d 87 48 89 c7 c3    	lea    -0x3c3876b8(%rdi),%eax
  401f40:	c3                   	ret

0000000000401f41 <getval_488>:
  401f41:	f3 0f 1e fa          	endbr64
  401f45:	b8 58 90 91 c3       	mov    $0xc3919058,%eax
  401f4a:	c3                   	ret

0000000000401f4b <mid_farm>:
  401f4b:	f3 0f 1e fa          	endbr64
  401f4f:	b8 01 00 00 00       	mov    $0x1,%eax
  401f54:	c3                   	ret

0000000000401f55 <add_xy>:
  401f55:	f3 0f 1e fa          	endbr64
  401f59:	48 8d 04 37          	lea    (%rdi,%rsi,1),%rax
  401f5d:	c3                   	ret

0000000000401f5e <addval_480>:
  401f5e:	f3 0f 1e fa          	endbr64
  401f62:	8d 87 48 8b e0 90    	lea    -0x6f1f74b8(%rdi),%eax
  401f68:	c3                   	ret

0000000000401f69 <addval_427>:
  401f69:	f3 0f 1e fa          	endbr64
  401f6d:	8d 87 5e 89 ce 94    	lea    -0x6b3176a2(%rdi),%eax
  401f73:	c3                   	ret

0000000000401f74 <addval_163>:
  401f74:	f3 0f 1e fa          	endbr64
  401f78:	8d 87 48 89 e0 c3    	lea    -0x3c1f76b8(%rdi),%eax
  401f7e:	c3                   	ret

0000000000401f7f <addval_115>:
  401f7f:	f3 0f 1e fa          	endbr64
  401f83:	8d 87 89 ce 20 db    	lea    -0x24df3177(%rdi),%eax
  401f89:	c3                   	ret

0000000000401f8a <setval_119>:
  401f8a:	f3 0f 1e fa          	endbr64
  401f8e:	c7 07 89 c2 30 d2    	movl   $0xd230c289,(%rdi)
  401f94:	c3                   	ret

0000000000401f95 <getval_267>:
  401f95:	f3 0f 1e fa          	endbr64
  401f99:	b8 48 89 e0 94       	mov    $0x94e08948,%eax
  401f9e:	c3                   	ret

0000000000401f9f <addval_131>:
  401f9f:	f3 0f 1e fa          	endbr64
  401fa3:	8d 87 89 d1 28 c9    	lea    -0x36d72e77(%rdi),%eax
  401fa9:	c3                   	ret

0000000000401faa <addval_240>:
  401faa:	f3 0f 1e fa          	endbr64
  401fae:	8d 87 89 ce 92 c3    	lea    -0x3c6d3177(%rdi),%eax
  401fb4:	c3                   	ret

0000000000401fb5 <setval_191>:
  401fb5:	f3 0f 1e fa          	endbr64
  401fb9:	c7 07 89 d1 20 d2    	movl   $0xd220d189,(%rdi)
  401fbf:	c3                   	ret

0000000000401fc0 <getval_312>:
  401fc0:	f3 0f 1e fa          	endbr64
  401fc4:	b8 48 89 e0 91       	mov    $0x91e08948,%eax
  401fc9:	c3                   	ret

0000000000401fca <setval_453>:
  401fca:	f3 0f 1e fa          	endbr64
  401fce:	c7 07 99 c2 84 db    	movl   $0xdb84c299,(%rdi)
  401fd4:	c3                   	ret

0000000000401fd5 <getval_483>:
  401fd5:	f3 0f 1e fa          	endbr64
  401fd9:	b8 89 ce c4 d2       	mov    $0xd2c4ce89,%eax
  401fde:	c3                   	ret

0000000000401fdf <addval_435>:
  401fdf:	f3 0f 1e fa          	endbr64
  401fe3:	8d 87 48 89 e0 c3    	lea    -0x3c1f76b8(%rdi),%eax
  401fe9:	c3                   	ret

0000000000401fea <addval_268>:
  401fea:	f3 0f 1e fa          	endbr64
  401fee:	8d 87 81 d1 08 c9    	lea    -0x36f72e7f(%rdi),%eax
  401ff4:	c3                   	ret

0000000000401ff5 <getval_375>:
  401ff5:	f3 0f 1e fa          	endbr64
  401ff9:	b8 c9 d1 08 db       	mov    $0xdb08d1c9,%eax
  401ffe:	c3                   	ret

0000000000401fff <setval_322>:
  401fff:	f3 0f 1e fa          	endbr64
  402003:	c7 07 89 c2 90 c1    	movl   $0xc190c289,(%rdi)
  402009:	c3                   	ret

000000000040200a <addval_310>:
  40200a:	f3 0f 1e fa          	endbr64
  40200e:	8d 87 48 8d e0 c3    	lea    -0x3c1f72b8(%rdi),%eax
  402014:	c3                   	ret

0000000000402015 <setval_499>:
  402015:	f3 0f 1e fa          	endbr64
  402019:	c7 07 89 c2 20 c9    	movl   $0xc920c289,(%rdi)
  40201f:	c3                   	ret

0000000000402020 <addval_116>:
  402020:	f3 0f 1e fa          	endbr64
  402024:	8d 87 89 d1 18 db    	lea    -0x24e72e77(%rdi),%eax
  40202a:	c3                   	ret

000000000040202b <setval_356>:
  40202b:	f3 0f 1e fa          	endbr64
  40202f:	c7 07 b9 89 c2 90    	movl   $0x90c289b9,(%rdi)
  402035:	c3                   	ret

0000000000402036 <addval_105>:
  402036:	f3 0f 1e fa          	endbr64
  40203a:	8d 87 99 d1 20 db    	lea    -0x24df2e67(%rdi),%eax
  402040:	c3                   	ret

0000000000402041 <addval_137>:
  402041:	f3 0f 1e fa          	endbr64
  402045:	8d 87 48 89 e0 c7    	lea    -0x381f76b8(%rdi),%eax
  40204b:	c3                   	ret

000000000040204c <getval_223>:
  40204c:	f3 0f 1e fa          	endbr64
  402050:	b8 89 ce 90 c3       	mov    $0xc390ce89,%eax
  402055:	c3                   	ret

0000000000402056 <setval_159>:
  402056:	f3 0f 1e fa          	endbr64
  40205a:	c7 07 99 c2 08 db    	movl   $0xdb08c299,(%rdi)
  402060:	c3                   	ret

0000000000402061 <addval_243>:
  402061:	f3 0f 1e fa          	endbr64
  402065:	8d 87 88 ce 38 c0    	lea    -0x3fc73178(%rdi),%eax
  40206b:	c3                   	ret

000000000040206c <getval_392>:
  40206c:	f3 0f 1e fa          	endbr64
  402070:	b8 99 c2 84 c9       	mov    $0xc984c299,%eax
  402075:	c3                   	ret

0000000000402076 <addval_459>:
  402076:	f3 0f 1e fa          	endbr64
  40207a:	8d 87 81 ce 20 db    	lea    -0x24df317f(%rdi),%eax
  402080:	c3                   	ret

0000000000402081 <getval_325>:
  402081:	f3 0f 1e fa          	endbr64
  402085:	b8 8d ce 20 db       	mov    $0xdb20ce8d,%eax
  40208a:	c3                   	ret

000000000040208b <setval_417>:
  40208b:	f3 0f 1e fa          	endbr64
  40208f:	c7 07 8b d1 38 db    	movl   $0xdb38d18b,(%rdi)
  402095:	c3                   	ret

0000000000402096 <setval_248>:
  402096:	f3 0f 1e fa          	endbr64
  40209a:	c7 07 89 d1 84 c0    	movl   $0xc084d189,(%rdi)
  4020a0:	c3                   	ret

00000000004020a1 <addval_408>:
  4020a1:	f3 0f 1e fa          	endbr64
  4020a5:	8d 87 89 c2 00 db    	lea    -0x24ff3d77(%rdi),%eax
  4020ab:	c3                   	ret

00000000004020ac <setval_293>:
  4020ac:	f3 0f 1e fa          	endbr64
  4020b0:	c7 07 48 8b e0 90    	movl   $0x90e08b48,(%rdi)
  4020b6:	c3                   	ret

00000000004020b7 <end_farm>:
  4020b7:	f3 0f 1e fa          	endbr64
  4020bb:	b8 01 00 00 00       	mov    $0x1,%eax
  4020c0:	c3                   	ret

00000000004020c1 <save_char>:
  4020c1:	8b 05 7d 60 00 00    	mov    0x607d(%rip),%eax        # 408144 <gets_cnt>
  4020c7:	3d ff 03 00 00       	cmp    $0x3ff,%eax
  4020cc:	7f 4a                	jg     402118 <save_char+0x57>
  4020ce:	89 f9                	mov    %edi,%ecx
  4020d0:	c0 e9 04             	shr    $0x4,%cl
  4020d3:	8d 14 40             	lea    (%rax,%rax,2),%edx
  4020d6:	4c 8d 05 23 27 00 00 	lea    0x2723(%rip),%r8        # 404800 <trans_char>
  4020dd:	83 e1 0f             	and    $0xf,%ecx
  4020e0:	45 0f b6 0c 08       	movzbl (%r8,%rcx,1),%r9d
  4020e5:	48 8d 0d 54 54 00 00 	lea    0x5454(%rip),%rcx        # 407540 <gets_buf>
  4020ec:	48 63 f2             	movslq %edx,%rsi
  4020ef:	44 88 0c 31          	mov    %r9b,(%rcx,%rsi,1)
  4020f3:	8d 72 01             	lea    0x1(%rdx),%esi
  4020f6:	83 e7 0f             	and    $0xf,%edi
  4020f9:	41 0f b6 3c 38       	movzbl (%r8,%rdi,1),%edi
  4020fe:	48 63 f6             	movslq %esi,%rsi
  402101:	40 88 3c 31          	mov    %dil,(%rcx,%rsi,1)
  402105:	83 c2 02             	add    $0x2,%edx
  402108:	48 63 d2             	movslq %edx,%rdx
  40210b:	c6 04 11 20          	movb   $0x20,(%rcx,%rdx,1)
  40210f:	83 c0 01             	add    $0x1,%eax
  402112:	89 05 2c 60 00 00    	mov    %eax,0x602c(%rip)        # 408144 <gets_cnt>
  402118:	c3                   	ret

0000000000402119 <save_term>:
  402119:	8b 05 25 60 00 00    	mov    0x6025(%rip),%eax        # 408144 <gets_cnt>
  40211f:	8d 04 40             	lea    (%rax,%rax,2),%eax
  402122:	48 98                	cltq
  402124:	48 8d 15 15 54 00 00 	lea    0x5415(%rip),%rdx        # 407540 <gets_buf>
  40212b:	c6 04 02 00          	movb   $0x0,(%rdx,%rax,1)
  40212f:	c3                   	ret

0000000000402130 <check_fail>:
  402130:	f3 0f 1e fa          	endbr64
  402134:	50                   	push   %rax
  402135:	58                   	pop    %rax
  402136:	48 83 ec 08          	sub    $0x8,%rsp
  40213a:	0f be 15 07 60 00 00 	movsbl 0x6007(%rip),%edx        # 408148 <target_prefix>
  402141:	4c 8d 05 f8 53 00 00 	lea    0x53f8(%rip),%r8        # 407540 <gets_buf>
  402148:	8b 0d d2 53 00 00    	mov    0x53d2(%rip),%ecx        # 407520 <check_level>
  40214e:	48 8d 35 d8 24 00 00 	lea    0x24d8(%rip),%rsi        # 40462d <_IO_stdin_used+0x62d>
  402155:	bf 02 00 00 00       	mov    $0x2,%edi
  40215a:	b8 00 00 00 00       	mov    $0x0,%eax
  40215f:	e8 2c f0 ff ff       	call   401190 <__printf_chk@plt>
  402164:	bf 01 00 00 00       	mov    $0x1,%edi
  402169:	e8 72 f0 ff ff       	call   4011e0 <exit@plt>

000000000040216e <Gets>:
  40216e:	f3 0f 1e fa          	endbr64
  402172:	41 54                	push   %r12
  402174:	55                   	push   %rbp
  402175:	53                   	push   %rbx
  402176:	49 89 fc             	mov    %rdi,%r12
  402179:	c7 05 c1 5f 00 00 00 	movl   $0x0,0x5fc1(%rip)        # 408144 <gets_cnt>
  402180:	00 00 00 
  402183:	48 89 fb             	mov    %rdi,%rbx
  402186:	eb 11                	jmp    402199 <Gets+0x2b>
  402188:	48 8d 6b 01          	lea    0x1(%rbx),%rbp
  40218c:	88 03                	mov    %al,(%rbx)
  40218e:	0f b6 f8             	movzbl %al,%edi
  402191:	e8 2b ff ff ff       	call   4020c1 <save_char>
  402196:	48 89 eb             	mov    %rbp,%rbx
  402199:	48 8b 3d 78 53 00 00 	mov    0x5378(%rip),%rdi        # 407518 <infile>
  4021a0:	e8 6b f0 ff ff       	call   401210 <getc@plt>
  4021a5:	83 f8 ff             	cmp    $0xffffffff,%eax
  4021a8:	74 05                	je     4021af <Gets+0x41>
  4021aa:	83 f8 0a             	cmp    $0xa,%eax
  4021ad:	75 d9                	jne    402188 <Gets+0x1a>
  4021af:	c6 03 00             	movb   $0x0,(%rbx)
  4021b2:	b8 00 00 00 00       	mov    $0x0,%eax
  4021b7:	e8 5d ff ff ff       	call   402119 <save_term>
  4021bc:	4c 89 e0             	mov    %r12,%rax
  4021bf:	5b                   	pop    %rbx
  4021c0:	5d                   	pop    %rbp
  4021c1:	41 5c                	pop    %r12
  4021c3:	c3                   	ret

00000000004021c4 <notify_server>:
  4021c4:	f3 0f 1e fa          	endbr64
  4021c8:	55                   	push   %rbp
  4021c9:	53                   	push   %rbx
  4021ca:	4c 8d 9c 24 00 c0 ff 	lea    -0x4000(%rsp),%r11
  4021d1:	ff 
  4021d2:	48 81 ec 00 10 00 00 	sub    $0x1000,%rsp
  4021d9:	48 83 0c 24 00       	orq    $0x0,(%rsp)
  4021de:	4c 39 dc             	cmp    %r11,%rsp
  4021e1:	75 ef                	jne    4021d2 <notify_server+0xe>
  4021e3:	48 83 ec 18          	sub    $0x18,%rsp
  4021e7:	64 48 8b 04 25 28 00 	mov    %fs:0x28,%rax
  4021ee:	00 00 
  4021f0:	48 89 84 24 08 40 00 	mov    %rax,0x4008(%rsp)
  4021f7:	00 
  4021f8:	31 c0                	xor    %eax,%eax
  4021fa:	83 3d 2f 53 00 00 00 	cmpl   $0x0,0x532f(%rip)        # 407530 <is_checker>
  402201:	0f 85 c2 01 00 00    	jne    4023c9 <notify_server+0x205>
  402207:	89 fb                	mov    %edi,%ebx
  402209:	81 3d 31 5f 00 00 9c 	cmpl   $0x1f9c,0x5f31(%rip)        # 408144 <gets_cnt>
  402210:	1f 00 00 
  402213:	0f 8f bd 00 00 00    	jg     4022d6 <notify_server+0x112>
  402219:	0f be 05 28 5f 00 00 	movsbl 0x5f28(%rip),%eax        # 408148 <target_prefix>
  402220:	83 3d 59 52 00 00 00 	cmpl   $0x0,0x5259(%rip)        # 407480 <notify>
  402227:	0f 84 c4 00 00 00    	je     4022f1 <notify_server+0x12d>
  40222d:	8b 15 f5 52 00 00    	mov    0x52f5(%rip),%edx        # 407528 <authkey>
  402233:	85 db                	test   %ebx,%ebx
  402235:	0f 84 c0 00 00 00    	je     4022fb <notify_server+0x137>
  40223b:	48 8d 2d 01 24 00 00 	lea    0x2401(%rip),%rbp        # 404643 <_IO_stdin_used+0x643>
  402242:	48 89 e7             	mov    %rsp,%rdi
  402245:	48 8d 0d f4 52 00 00 	lea    0x52f4(%rip),%rcx        # 407540 <gets_buf>
  40224c:	51                   	push   %rcx
  40224d:	56                   	push   %rsi
  40224e:	50                   	push   %rax
  40224f:	52                   	push   %rdx
  402250:	49 89 e9             	mov    %rbp,%r9
  402253:	44 8b 05 d6 4e 00 00 	mov    0x4ed6(%rip),%r8d        # 407130 <target_id>
  40225a:	48 8d 0d ec 23 00 00 	lea    0x23ec(%rip),%rcx        # 40464d <_IO_stdin_used+0x64d>
  402261:	ba 00 20 00 00       	mov    $0x2000,%edx
  402266:	be 02 00 00 00       	mov    $0x2,%esi
  40226b:	b8 00 00 00 00       	mov    $0x0,%eax
  402270:	e8 ab ef ff ff       	call   401220 <__sprintf_chk@plt>
  402275:	48 83 c4 20          	add    $0x20,%rsp
  402279:	83 3d 00 52 00 00 00 	cmpl   $0x0,0x5200(%rip)        # 407480 <notify>
  402280:	0f 84 ba 00 00 00    	je     402340 <notify_server+0x17c>
  402286:	48 89 e1             	mov    %rsp,%rcx
  402289:	4c 8d 8c 24 00 20 00 	lea    0x2000(%rsp),%r9
  402290:	00 
  402291:	41 b8 00 00 00 00    	mov    $0x0,%r8d
  402297:	48 8b 15 aa 4e 00 00 	mov    0x4eaa(%rip),%rdx        # 407148 <lab>
  40229e:	48 8b 35 ab 4e 00 00 	mov    0x4eab(%rip),%rsi        # 407150 <course>
  4022a5:	48 8b 3d 94 4e 00 00 	mov    0x4e94(%rip),%rdi        # 407140 <user_id>
  4022ac:	e8 4e 12 00 00       	call   4034ff <driver_post>
  4022b1:	85 c0                	test   %eax,%eax
  4022b3:	78 52                	js     402307 <notify_server+0x143>
  4022b5:	85 db                	test   %ebx,%ebx
  4022b7:	74 76                	je     40232f <notify_server+0x16b>
  4022b9:	48 8d 3d c0 1f 00 00 	lea    0x1fc0(%rip),%rdi        # 404280 <_IO_stdin_used+0x280>
  4022c0:	e8 bb ed ff ff       	call   401080 <puts@plt>
  4022c5:	48 8d 3d a9 23 00 00 	lea    0x23a9(%rip),%rdi        # 404675 <_IO_stdin_used+0x675>
  4022cc:	e8 af ed ff ff       	call   401080 <puts@plt>
  4022d1:	e9 f3 00 00 00       	jmp    4023c9 <notify_server+0x205>
  4022d6:	48 8d 35 73 1f 00 00 	lea    0x1f73(%rip),%rsi        # 404250 <_IO_stdin_used+0x250>
  4022dd:	bf 02 00 00 00       	mov    $0x2,%edi
  4022e2:	e8 a9 ee ff ff       	call   401190 <__printf_chk@plt>
  4022e7:	bf 01 00 00 00       	mov    $0x1,%edi
  4022ec:	e8 ef ee ff ff       	call   4011e0 <exit@plt>
  4022f1:	ba ff ff ff ff       	mov    $0xffffffff,%edx
  4022f6:	e9 38 ff ff ff       	jmp    402233 <notify_server+0x6f>
  4022fb:	48 8d 2d 46 23 00 00 	lea    0x2346(%rip),%rbp        # 404648 <_IO_stdin_used+0x648>
  402302:	e9 3b ff ff ff       	jmp    402242 <notify_server+0x7e>
  402307:	48 8d 94 24 00 20 00 	lea    0x2000(%rsp),%rdx
  40230e:	00 
  40230f:	48 8d 35 53 23 00 00 	lea    0x2353(%rip),%rsi        # 404669 <_IO_stdin_used+0x669>
  402316:	bf 02 00 00 00       	mov    $0x2,%edi
  40231b:	b8 00 00 00 00       	mov    $0x0,%eax
  402320:	e8 6b ee ff ff       	call   401190 <__printf_chk@plt>
  402325:	bf 01 00 00 00       	mov    $0x1,%edi
  40232a:	e8 b1 ee ff ff       	call   4011e0 <exit@plt>
  40232f:	48 8d 3d 49 23 00 00 	lea    0x2349(%rip),%rdi        # 40467f <_IO_stdin_used+0x67f>
  402336:	e8 45 ed ff ff       	call   401080 <puts@plt>
  40233b:	e9 89 00 00 00       	jmp    4023c9 <notify_server+0x205>
  402340:	48 89 ea             	mov    %rbp,%rdx
  402343:	48 8d 35 6e 1f 00 00 	lea    0x1f6e(%rip),%rsi        # 4042b8 <_IO_stdin_used+0x2b8>
  40234a:	bf 02 00 00 00       	mov    $0x2,%edi
  40234f:	b8 00 00 00 00       	mov    $0x0,%eax
  402354:	e8 37 ee ff ff       	call   401190 <__printf_chk@plt>
  402359:	48 8b 15 e0 4d 00 00 	mov    0x4de0(%rip),%rdx        # 407140 <user_id>
  402360:	48 8d 35 1f 23 00 00 	lea    0x231f(%rip),%rsi        # 404686 <_IO_stdin_used+0x686>
  402367:	bf 02 00 00 00       	mov    $0x2,%edi
  40236c:	b8 00 00 00 00       	mov    $0x0,%eax
  402371:	e8 1a ee ff ff       	call   401190 <__printf_chk@plt>
  402376:	48 8b 15 d3 4d 00 00 	mov    0x4dd3(%rip),%rdx        # 407150 <course>
  40237d:	48 8d 35 0f 23 00 00 	lea    0x230f(%rip),%rsi        # 404693 <_IO_stdin_used+0x693>
  402384:	bf 02 00 00 00       	mov    $0x2,%edi
  402389:	b8 00 00 00 00       	mov    $0x0,%eax
  40238e:	e8 fd ed ff ff       	call   401190 <__printf_chk@plt>
  402393:	48 8b 15 ae 4d 00 00 	mov    0x4dae(%rip),%rdx        # 407148 <lab>
  40239a:	48 8d 35 fe 22 00 00 	lea    0x22fe(%rip),%rsi        # 40469f <_IO_stdin_used+0x69f>
  4023a1:	bf 02 00 00 00       	mov    $0x2,%edi
  4023a6:	b8 00 00 00 00       	mov    $0x0,%eax
  4023ab:	e8 e0 ed ff ff       	call   401190 <__printf_chk@plt>
  4023b0:	48 89 e2             	mov    %rsp,%rdx
  4023b3:	48 8d 35 ee 22 00 00 	lea    0x22ee(%rip),%rsi        # 4046a8 <_IO_stdin_used+0x6a8>
  4023ba:	bf 02 00 00 00       	mov    $0x2,%edi
  4023bf:	b8 00 00 00 00       	mov    $0x0,%eax
  4023c4:	e8 c7 ed ff ff       	call   401190 <__printf_chk@plt>
  4023c9:	48 8b 84 24 08 40 00 	mov    0x4008(%rsp),%rax
  4023d0:	00 
  4023d1:	64 48 2b 04 25 28 00 	sub    %fs:0x28,%rax
  4023d8:	00 00 
  4023da:	75 0a                	jne    4023e6 <notify_server+0x222>
  4023dc:	48 81 c4 18 40 00 00 	add    $0x4018,%rsp
  4023e3:	5b                   	pop    %rbx
  4023e4:	5d                   	pop    %rbp
  4023e5:	c3                   	ret
  4023e6:	e8 72 02 00 00       	call   40265d <__stack_chk_fail>

00000000004023eb <validate>:
  4023eb:	f3 0f 1e fa          	endbr64
  4023ef:	53                   	push   %rbx
  4023f0:	89 fb                	mov    %edi,%ebx
  4023f2:	83 3d 37 51 00 00 00 	cmpl   $0x0,0x5137(%rip)        # 407530 <is_checker>
  4023f9:	74 79                	je     402474 <validate+0x89>
  4023fb:	39 3d 23 51 00 00    	cmp    %edi,0x5123(%rip)        # 407524 <vlevel>
  402401:	75 39                	jne    40243c <validate+0x51>
  402403:	8b 15 17 51 00 00    	mov    0x5117(%rip),%edx        # 407520 <check_level>
  402409:	39 fa                	cmp    %edi,%edx
  40240b:	75 45                	jne    402452 <validate+0x67>
  40240d:	0f be 0d 34 5d 00 00 	movsbl 0x5d34(%rip),%ecx        # 408148 <target_prefix>
  402414:	4c 8d 0d 25 51 00 00 	lea    0x5125(%rip),%r9        # 407540 <gets_buf>
  40241b:	41 89 f8             	mov    %edi,%r8d
  40241e:	8b 15 04 51 00 00    	mov    0x5104(%rip),%edx        # 407528 <authkey>
  402424:	48 8d 35 dd 1e 00 00 	lea    0x1edd(%rip),%rsi        # 404308 <_IO_stdin_used+0x308>
  40242b:	bf 02 00 00 00       	mov    $0x2,%edi
  402430:	b8 00 00 00 00       	mov    $0x0,%eax
  402435:	e8 56 ed ff ff       	call   401190 <__printf_chk@plt>
  40243a:	5b                   	pop    %rbx
  40243b:	c3                   	ret
  40243c:	48 8d 3d 71 22 00 00 	lea    0x2271(%rip),%rdi        # 4046b4 <_IO_stdin_used+0x6b4>
  402443:	e8 38 ec ff ff       	call   401080 <puts@plt>
  402448:	b8 00 00 00 00       	mov    $0x0,%eax
  40244d:	e8 de fc ff ff       	call   402130 <check_fail>
  402452:	89 f9                	mov    %edi,%ecx
  402454:	48 8d 35 85 1e 00 00 	lea    0x1e85(%rip),%rsi        # 4042e0 <_IO_stdin_used+0x2e0>
  40245b:	bf 02 00 00 00       	mov    $0x2,%edi
  402460:	b8 00 00 00 00       	mov    $0x0,%eax
  402465:	e8 26 ed ff ff       	call   401190 <__printf_chk@plt>
  40246a:	b8 00 00 00 00       	mov    $0x0,%eax
  40246f:	e8 bc fc ff ff       	call   402130 <check_fail>
  402474:	39 3d aa 50 00 00    	cmp    %edi,0x50aa(%rip)        # 407524 <vlevel>
  40247a:	74 1a                	je     402496 <validate+0xab>
  40247c:	48 8d 3d 31 22 00 00 	lea    0x2231(%rip),%rdi        # 4046b4 <_IO_stdin_used+0x6b4>
  402483:	e8 f8 eb ff ff       	call   401080 <puts@plt>
  402488:	89 de                	mov    %ebx,%esi
  40248a:	bf 00 00 00 00       	mov    $0x0,%edi
  40248f:	e8 30 fd ff ff       	call   4021c4 <notify_server>
  402494:	eb a4                	jmp    40243a <validate+0x4f>
  402496:	0f be 0d ab 5c 00 00 	movsbl 0x5cab(%rip),%ecx        # 408148 <target_prefix>
  40249d:	89 fa                	mov    %edi,%edx
  40249f:	48 8d 35 8a 1e 00 00 	lea    0x1e8a(%rip),%rsi        # 404330 <_IO_stdin_used+0x330>
  4024a6:	bf 02 00 00 00       	mov    $0x2,%edi
  4024ab:	b8 00 00 00 00       	mov    $0x0,%eax
  4024b0:	e8 db ec ff ff       	call   401190 <__printf_chk@plt>
  4024b5:	89 de                	mov    %ebx,%esi
  4024b7:	bf 01 00 00 00       	mov    $0x1,%edi
  4024bc:	e8 03 fd ff ff       	call   4021c4 <notify_server>
  4024c1:	e9 74 ff ff ff       	jmp    40243a <validate+0x4f>

00000000004024c6 <fail>:
  4024c6:	f3 0f 1e fa          	endbr64
  4024ca:	48 83 ec 08          	sub    $0x8,%rsp
  4024ce:	83 3d 5b 50 00 00 00 	cmpl   $0x0,0x505b(%rip)        # 407530 <is_checker>
  4024d5:	75 11                	jne    4024e8 <fail+0x22>
  4024d7:	89 fe                	mov    %edi,%esi
  4024d9:	bf 00 00 00 00       	mov    $0x0,%edi
  4024de:	e8 e1 fc ff ff       	call   4021c4 <notify_server>
  4024e3:	48 83 c4 08          	add    $0x8,%rsp
  4024e7:	c3                   	ret
  4024e8:	b8 00 00 00 00       	mov    $0x0,%eax
  4024ed:	e8 3e fc ff ff       	call   402130 <check_fail>

00000000004024f2 <bushandler>:
  4024f2:	f3 0f 1e fa          	endbr64
  4024f6:	50                   	push   %rax
  4024f7:	58                   	pop    %rax
  4024f8:	48 83 ec 08          	sub    $0x8,%rsp
  4024fc:	83 3d 2d 50 00 00 00 	cmpl   $0x0,0x502d(%rip)        # 407530 <is_checker>
  402503:	74 16                	je     40251b <bushandler+0x29>
  402505:	48 8d 3d c6 21 00 00 	lea    0x21c6(%rip),%rdi        # 4046d2 <_IO_stdin_used+0x6d2>
  40250c:	e8 6f eb ff ff       	call   401080 <puts@plt>
  402511:	b8 00 00 00 00       	mov    $0x0,%eax
  402516:	e8 15 fc ff ff       	call   402130 <check_fail>
  40251b:	48 8d 3d 46 1e 00 00 	lea    0x1e46(%rip),%rdi        # 404368 <_IO_stdin_used+0x368>
  402522:	e8 59 eb ff ff       	call   401080 <puts@plt>
  402527:	48 8d 3d ae 21 00 00 	lea    0x21ae(%rip),%rdi        # 4046dc <_IO_stdin_used+0x6dc>
  40252e:	e8 4d eb ff ff       	call   401080 <puts@plt>
  402533:	be 00 00 00 00       	mov    $0x0,%esi
  402538:	bf 00 00 00 00       	mov    $0x0,%edi
  40253d:	e8 82 fc ff ff       	call   4021c4 <notify_server>
  402542:	bf 01 00 00 00       	mov    $0x1,%edi
  402547:	e8 94 ec ff ff       	call   4011e0 <exit@plt>

000000000040254c <seghandler>:
  40254c:	f3 0f 1e fa          	endbr64
  402550:	50                   	push   %rax
  402551:	58                   	pop    %rax
  402552:	48 83 ec 08          	sub    $0x8,%rsp
  402556:	83 3d d3 4f 00 00 00 	cmpl   $0x0,0x4fd3(%rip)        # 407530 <is_checker>
  40255d:	74 16                	je     402575 <seghandler+0x29>
  40255f:	48 8d 3d 8c 21 00 00 	lea    0x218c(%rip),%rdi        # 4046f2 <_IO_stdin_used+0x6f2>
  402566:	e8 15 eb ff ff       	call   401080 <puts@plt>
  40256b:	b8 00 00 00 00       	mov    $0x0,%eax
  402570:	e8 bb fb ff ff       	call   402130 <check_fail>
  402575:	48 8d 3d 0c 1e 00 00 	lea    0x1e0c(%rip),%rdi        # 404388 <_IO_stdin_used+0x388>
  40257c:	e8 ff ea ff ff       	call   401080 <puts@plt>
  402581:	48 8d 3d 54 21 00 00 	lea    0x2154(%rip),%rdi        # 4046dc <_IO_stdin_used+0x6dc>
  402588:	e8 f3 ea ff ff       	call   401080 <puts@plt>
  40258d:	be 00 00 00 00       	mov    $0x0,%esi
  402592:	bf 00 00 00 00       	mov    $0x0,%edi
  402597:	e8 28 fc ff ff       	call   4021c4 <notify_server>
  40259c:	bf 01 00 00 00       	mov    $0x1,%edi
  4025a1:	e8 3a ec ff ff       	call   4011e0 <exit@plt>

00000000004025a6 <illegalhandler>:
  4025a6:	f3 0f 1e fa          	endbr64
  4025aa:	50                   	push   %rax
  4025ab:	58                   	pop    %rax
  4025ac:	48 83 ec 08          	sub    $0x8,%rsp
  4025b0:	83 3d 79 4f 00 00 00 	cmpl   $0x0,0x4f79(%rip)        # 407530 <is_checker>
  4025b7:	74 16                	je     4025cf <illegalhandler+0x29>
  4025b9:	48 8d 3d 45 21 00 00 	lea    0x2145(%rip),%rdi        # 404705 <_IO_stdin_used+0x705>
  4025c0:	e8 bb ea ff ff       	call   401080 <puts@plt>
  4025c5:	b8 00 00 00 00       	mov    $0x0,%eax
  4025ca:	e8 61 fb ff ff       	call   402130 <check_fail>
  4025cf:	48 8d 3d da 1d 00 00 	lea    0x1dda(%rip),%rdi        # 4043b0 <_IO_stdin_used+0x3b0>
  4025d6:	e8 a5 ea ff ff       	call   401080 <puts@plt>
  4025db:	48 8d 3d fa 20 00 00 	lea    0x20fa(%rip),%rdi        # 4046dc <_IO_stdin_used+0x6dc>
  4025e2:	e8 99 ea ff ff       	call   401080 <puts@plt>
  4025e7:	be 00 00 00 00       	mov    $0x0,%esi
  4025ec:	bf 00 00 00 00       	mov    $0x0,%edi
  4025f1:	e8 ce fb ff ff       	call   4021c4 <notify_server>
  4025f6:	bf 01 00 00 00       	mov    $0x1,%edi
  4025fb:	e8 e0 eb ff ff       	call   4011e0 <exit@plt>

0000000000402600 <sigalrmhandler>:
  402600:	f3 0f 1e fa          	endbr64
  402604:	50                   	push   %rax
  402605:	58                   	pop    %rax
  402606:	48 83 ec 08          	sub    $0x8,%rsp
  40260a:	83 3d 1f 4f 00 00 00 	cmpl   $0x0,0x4f1f(%rip)        # 407530 <is_checker>
  402611:	74 16                	je     402629 <sigalrmhandler+0x29>
  402613:	48 8d 3d ff 20 00 00 	lea    0x20ff(%rip),%rdi        # 404719 <_IO_stdin_used+0x719>
  40261a:	e8 61 ea ff ff       	call   401080 <puts@plt>
  40261f:	b8 00 00 00 00       	mov    $0x0,%eax
  402624:	e8 07 fb ff ff       	call   402130 <check_fail>
  402629:	ba 02 00 00 00       	mov    $0x2,%edx
  40262e:	48 8d 35 ab 1d 00 00 	lea    0x1dab(%rip),%rsi        # 4043e0 <_IO_stdin_used+0x3e0>
  402635:	bf 02 00 00 00       	mov    $0x2,%edi
  40263a:	b8 00 00 00 00       	mov    $0x0,%eax
  40263f:	e8 4c eb ff ff       	call   401190 <__printf_chk@plt>
  402644:	be 00 00 00 00       	mov    $0x0,%esi
  402649:	bf 00 00 00 00       	mov    $0x0,%edi
  40264e:	e8 71 fb ff ff       	call   4021c4 <notify_server>
  402653:	bf 01 00 00 00       	mov    $0x1,%edi
  402658:	e8 83 eb ff ff       	call   4011e0 <exit@plt>

000000000040265d <__stack_chk_fail>:
  40265d:	f3 0f 1e fa          	endbr64
  402661:	50                   	push   %rax
  402662:	58                   	pop    %rax
  402663:	48 83 ec 08          	sub    $0x8,%rsp
  402667:	83 3d c2 4e 00 00 00 	cmpl   $0x0,0x4ec2(%rip)        # 407530 <is_checker>
  40266e:	74 16                	je     402686 <__stack_chk_fail+0x29>
  402670:	48 8d 3d aa 20 00 00 	lea    0x20aa(%rip),%rdi        # 404721 <_IO_stdin_used+0x721>
  402677:	e8 04 ea ff ff       	call   401080 <puts@plt>
  40267c:	b8 00 00 00 00       	mov    $0x0,%eax
  402681:	e8 aa fa ff ff       	call   402130 <check_fail>
  402686:	48 8d 3d 8b 1d 00 00 	lea    0x1d8b(%rip),%rdi        # 404418 <_IO_stdin_used+0x418>
  40268d:	e8 ee e9 ff ff       	call   401080 <puts@plt>
  402692:	48 8d 3d 43 20 00 00 	lea    0x2043(%rip),%rdi        # 4046dc <_IO_stdin_used+0x6dc>
  402699:	e8 e2 e9 ff ff       	call   401080 <puts@plt>
  40269e:	be 00 00 00 00       	mov    $0x0,%esi
  4026a3:	bf 00 00 00 00       	mov    $0x0,%edi
  4026a8:	e8 17 fb ff ff       	call   4021c4 <notify_server>
  4026ad:	bf 01 00 00 00       	mov    $0x1,%edi
  4026b2:	e8 29 eb ff ff       	call   4011e0 <exit@plt>

00000000004026b7 <launch>:
  4026b7:	f3 0f 1e fa          	endbr64
  4026bb:	55                   	push   %rbp
  4026bc:	48 89 e5             	mov    %rsp,%rbp
  4026bf:	53                   	push   %rbx
  4026c0:	48 83 ec 18          	sub    $0x18,%rsp
  4026c4:	48 89 fa             	mov    %rdi,%rdx
  4026c7:	89 f3                	mov    %esi,%ebx
  4026c9:	64 48 8b 04 25 28 00 	mov    %fs:0x28,%rax
  4026d0:	00 00 
  4026d2:	48 89 45 e8          	mov    %rax,-0x18(%rbp)
  4026d6:	31 c0                	xor    %eax,%eax
  4026d8:	48 8d 47 17          	lea    0x17(%rdi),%rax
  4026dc:	48 89 c6             	mov    %rax,%rsi
  4026df:	48 83 e6 f0          	and    $0xfffffffffffffff0,%rsi
  4026e3:	48 25 00 f0 ff ff    	and    $0xfffffffffffff000,%rax
  4026e9:	48 89 e1             	mov    %rsp,%rcx
  4026ec:	48 29 c1             	sub    %rax,%rcx
  4026ef:	48 39 cc             	cmp    %rcx,%rsp
  4026f2:	74 12                	je     402706 <launch+0x4f>
  4026f4:	48 81 ec 00 10 00 00 	sub    $0x1000,%rsp
  4026fb:	48 83 8c 24 f8 0f 00 	orq    $0x0,0xff8(%rsp)
  402702:	00 00 
  402704:	eb e9                	jmp    4026ef <launch+0x38>
  402706:	48 89 f0             	mov    %rsi,%rax
  402709:	25 ff 0f 00 00       	and    $0xfff,%eax
  40270e:	48 29 c4             	sub    %rax,%rsp
  402711:	48 85 c0             	test   %rax,%rax
  402714:	74 06                	je     40271c <launch+0x65>
  402716:	48 83 4c 04 f8 00    	orq    $0x0,-0x8(%rsp,%rax,1)
  40271c:	48 8d 7c 24 0f       	lea    0xf(%rsp),%rdi
  402721:	48 83 e7 f0          	and    $0xfffffffffffffff0,%rdi
  402725:	48 89 d1             	mov    %rdx,%rcx
  402728:	be f4 00 00 00       	mov    $0xf4,%esi
  40272d:	e8 9e ea ff ff       	call   4011d0 <__memset_chk@plt>
  402732:	48 8b 05 67 4d 00 00 	mov    0x4d67(%rip),%rax        # 4074a0 <stdin@GLIBC_2.2.5>
  402739:	48 39 05 d8 4d 00 00 	cmp    %rax,0x4dd8(%rip)        # 407518 <infile>
  402740:	74 42                	je     402784 <launch+0xcd>
  402742:	c7 05 d8 4d 00 00 00 	movl   $0x0,0x4dd8(%rip)        # 407524 <vlevel>
  402749:	00 00 00 
  40274c:	85 db                	test   %ebx,%ebx
  40274e:	75 4c                	jne    40279c <launch+0xe5>
  402750:	b8 00 00 00 00       	mov    $0x0,%eax
  402755:	e8 c2 f6 ff ff       	call   401e1c <test>
  40275a:	83 3d cf 4d 00 00 00 	cmpl   $0x0,0x4dcf(%rip)        # 407530 <is_checker>
  402761:	75 45                	jne    4027a8 <launch+0xf1>
  402763:	48 8d 3d de 1f 00 00 	lea    0x1fde(%rip),%rdi        # 404748 <_IO_stdin_used+0x748>
  40276a:	e8 11 e9 ff ff       	call   401080 <puts@plt>
  40276f:	48 8b 45 e8          	mov    -0x18(%rbp),%rax
  402773:	64 48 2b 04 25 28 00 	sub    %fs:0x28,%rax
  40277a:	00 00 
  40277c:	75 40                	jne    4027be <launch+0x107>
  40277e:	48 8b 5d f8          	mov    -0x8(%rbp),%rbx
  402782:	c9                   	leave
  402783:	c3                   	ret
  402784:	48 8d 35 a5 1f 00 00 	lea    0x1fa5(%rip),%rsi        # 404730 <_IO_stdin_used+0x730>
  40278b:	bf 02 00 00 00       	mov    $0x2,%edi
  402790:	b8 00 00 00 00       	mov    $0x0,%eax
  402795:	e8 f6 e9 ff ff       	call   401190 <__printf_chk@plt>
  40279a:	eb a6                	jmp    402742 <launch+0x8b>
  40279c:	b8 00 00 00 00       	mov    $0x0,%eax
  4027a1:	e8 a5 f6 ff ff       	call   401e4b <test2>
  4027a6:	eb b2                	jmp    40275a <launch+0xa3>
  4027a8:	48 8d 3d 8e 1f 00 00 	lea    0x1f8e(%rip),%rdi        # 40473d <_IO_stdin_used+0x73d>
  4027af:	e8 cc e8 ff ff       	call   401080 <puts@plt>
  4027b4:	b8 00 00 00 00       	mov    $0x0,%eax
  4027b9:	e8 72 f9 ff ff       	call   402130 <check_fail>
  4027be:	e8 9a fe ff ff       	call   40265d <__stack_chk_fail>

00000000004027c3 <stable_launch>:
  4027c3:	f3 0f 1e fa          	endbr64
  4027c7:	55                   	push   %rbp
  4027c8:	53                   	push   %rbx
  4027c9:	48 83 ec 08          	sub    $0x8,%rsp
  4027cd:	89 f5                	mov    %esi,%ebp
  4027cf:	48 89 3d 3a 4d 00 00 	mov    %rdi,0x4d3a(%rip)        # 407510 <global_offset>
  4027d6:	41 b9 00 00 00 00    	mov    $0x0,%r9d
  4027dc:	41 b8 00 00 00 00    	mov    $0x0,%r8d
  4027e2:	b9 32 01 00 00       	mov    $0x132,%ecx
  4027e7:	ba 07 00 00 00       	mov    $0x7,%edx
  4027ec:	be 00 00 10 00       	mov    $0x100000,%esi
  4027f1:	bf 00 60 58 55       	mov    $0x55586000,%edi
  4027f6:	e8 b5 e8 ff ff       	call   4010b0 <mmap@plt>
  4027fb:	48 89 c3             	mov    %rax,%rbx
  4027fe:	48 3d 00 60 58 55    	cmp    $0x55586000,%rax
  402804:	75 4a                	jne    402850 <stable_launch+0x8d>
  402806:	48 8d 90 f8 ff 0f 00 	lea    0xffff8(%rax),%rdx
  40280d:	48 89 15 f4 4c 00 00 	mov    %rdx,0x4cf4(%rip)        # 407508 <stack_top>
  402814:	48 89 e0             	mov    %rsp,%rax
  402817:	48 89 d4             	mov    %rdx,%rsp
  40281a:	48 89 c2             	mov    %rax,%rdx
  40281d:	48 89 15 dc 4c 00 00 	mov    %rdx,0x4cdc(%rip)        # 407500 <global_save_stack>
  402824:	89 ee                	mov    %ebp,%esi
  402826:	48 8b 3d e3 4c 00 00 	mov    0x4ce3(%rip),%rdi        # 407510 <global_offset>
  40282d:	e8 85 fe ff ff       	call   4026b7 <launch>
  402832:	48 8b 05 c7 4c 00 00 	mov    0x4cc7(%rip),%rax        # 407500 <global_save_stack>
  402839:	48 89 c4             	mov    %rax,%rsp
  40283c:	be 00 00 10 00       	mov    $0x100000,%esi
  402841:	48 89 df             	mov    %rbx,%rdi
  402844:	e8 37 e9 ff ff       	call   401180 <munmap@plt>
  402849:	48 83 c4 08          	add    $0x8,%rsp
  40284d:	5b                   	pop    %rbx
  40284e:	5d                   	pop    %rbp
  40284f:	c3                   	ret
  402850:	be 00 00 10 00       	mov    $0x100000,%esi
  402855:	48 89 c7             	mov    %rax,%rdi
  402858:	e8 23 e9 ff ff       	call   401180 <munmap@plt>
  40285d:	b9 00 60 58 55       	mov    $0x55586000,%ecx
  402862:	48 8d 15 d7 1b 00 00 	lea    0x1bd7(%rip),%rdx        # 404440 <_IO_stdin_used+0x440>
  402869:	be 02 00 00 00       	mov    $0x2,%esi
  40286e:	48 8b 3d 6b 4c 00 00 	mov    0x4c6b(%rip),%rdi        # 4074e0 <stderr@GLIBC_2.2.5>
  402875:	b8 00 00 00 00       	mov    $0x0,%eax
  40287a:	e8 81 e9 ff ff       	call   401200 <__fprintf_chk@plt>
  40287f:	bf 01 00 00 00       	mov    $0x1,%edi
  402884:	e8 57 e9 ff ff       	call   4011e0 <exit@plt>

0000000000402889 <rio_readinitb>:
  402889:	89 37                	mov    %esi,(%rdi)
  40288b:	c7 47 04 00 00 00 00 	movl   $0x0,0x4(%rdi)
  402892:	48 8d 47 10          	lea    0x10(%rdi),%rax
  402896:	48 89 47 08          	mov    %rax,0x8(%rdi)
  40289a:	c3                   	ret

000000000040289b <sigalrm_handler>:
  40289b:	f3 0f 1e fa          	endbr64
  40289f:	50                   	push   %rax
  4028a0:	58                   	pop    %rax
  4028a1:	48 83 ec 08          	sub    $0x8,%rsp
  4028a5:	b9 00 00 00 00       	mov    $0x0,%ecx
  4028aa:	48 8d 15 b7 1b 00 00 	lea    0x1bb7(%rip),%rdx        # 404468 <_IO_stdin_used+0x468>
  4028b1:	be 02 00 00 00       	mov    $0x2,%esi
  4028b6:	48 8b 3d 23 4c 00 00 	mov    0x4c23(%rip),%rdi        # 4074e0 <stderr@GLIBC_2.2.5>
  4028bd:	b8 00 00 00 00       	mov    $0x0,%eax
  4028c2:	e8 39 e9 ff ff       	call   401200 <__fprintf_chk@plt>
  4028c7:	bf 01 00 00 00       	mov    $0x1,%edi
  4028cc:	e8 0f e9 ff ff       	call   4011e0 <exit@plt>

00000000004028d1 <rio_writen>:
  4028d1:	41 55                	push   %r13
  4028d3:	41 54                	push   %r12
  4028d5:	55                   	push   %rbp
  4028d6:	53                   	push   %rbx
  4028d7:	48 83 ec 08          	sub    $0x8,%rsp
  4028db:	41 89 fc             	mov    %edi,%r12d
  4028de:	48 89 f5             	mov    %rsi,%rbp
  4028e1:	49 89 d5             	mov    %rdx,%r13
  4028e4:	48 89 d3             	mov    %rdx,%rbx
  4028e7:	eb 06                	jmp    4028ef <rio_writen+0x1e>
  4028e9:	48 29 c3             	sub    %rax,%rbx
  4028ec:	48 01 c5             	add    %rax,%rbp
  4028ef:	48 85 db             	test   %rbx,%rbx
  4028f2:	74 24                	je     402918 <rio_writen+0x47>
  4028f4:	48 89 da             	mov    %rbx,%rdx
  4028f7:	48 89 ee             	mov    %rbp,%rsi
  4028fa:	44 89 e7             	mov    %r12d,%edi
  4028fd:	e8 8e e7 ff ff       	call   401090 <write@plt>
  402902:	48 85 c0             	test   %rax,%rax
  402905:	7f e2                	jg     4028e9 <rio_writen+0x18>
  402907:	e8 24 e7 ff ff       	call   401030 <__errno_location@plt>
  40290c:	83 38 04             	cmpl   $0x4,(%rax)
  40290f:	75 15                	jne    402926 <rio_writen+0x55>
  402911:	b8 00 00 00 00       	mov    $0x0,%eax
  402916:	eb d1                	jmp    4028e9 <rio_writen+0x18>
  402918:	4c 89 e8             	mov    %r13,%rax
  40291b:	48 83 c4 08          	add    $0x8,%rsp
  40291f:	5b                   	pop    %rbx
  402920:	5d                   	pop    %rbp
  402921:	41 5c                	pop    %r12
  402923:	41 5d                	pop    %r13
  402925:	c3                   	ret
  402926:	48 c7 c0 ff ff ff ff 	mov    $0xffffffffffffffff,%rax
  40292d:	eb ec                	jmp    40291b <rio_writen+0x4a>

000000000040292f <rio_read>:
  40292f:	41 55                	push   %r13
  402931:	41 54                	push   %r12
  402933:	55                   	push   %rbp
  402934:	53                   	push   %rbx
  402935:	48 83 ec 08          	sub    $0x8,%rsp
  402939:	48 89 fb             	mov    %rdi,%rbx
  40293c:	49 89 f5             	mov    %rsi,%r13
  40293f:	49 89 d4             	mov    %rdx,%r12
  402942:	eb 0a                	jmp    40294e <rio_read+0x1f>
  402944:	e8 e7 e6 ff ff       	call   401030 <__errno_location@plt>
  402949:	83 38 04             	cmpl   $0x4,(%rax)
  40294c:	75 5f                	jne    4029ad <rio_read+0x7e>
  40294e:	8b 6b 04             	mov    0x4(%rbx),%ebp
  402951:	85 ed                	test   %ebp,%ebp
  402953:	7f 22                	jg     402977 <rio_read+0x48>
  402955:	48 8d 6b 10          	lea    0x10(%rbx),%rbp
  402959:	8b 3b                	mov    (%rbx),%edi
  40295b:	ba 00 20 00 00       	mov    $0x2000,%edx
  402960:	48 89 ee             	mov    %rbp,%rsi
  402963:	e8 78 e7 ff ff       	call   4010e0 <read@plt>
  402968:	89 43 04             	mov    %eax,0x4(%rbx)
  40296b:	85 c0                	test   %eax,%eax
  40296d:	78 d5                	js     402944 <rio_read+0x15>
  40296f:	74 45                	je     4029b6 <rio_read+0x87>
  402971:	48 89 6b 08          	mov    %rbp,0x8(%rbx)
  402975:	eb d7                	jmp    40294e <rio_read+0x1f>
  402977:	89 e8                	mov    %ebp,%eax
  402979:	4c 39 e0             	cmp    %r12,%rax
  40297c:	72 03                	jb     402981 <rio_read+0x52>
  40297e:	44 89 e5             	mov    %r12d,%ebp
  402981:	4c 63 e5             	movslq %ebp,%r12
  402984:	48 8b 73 08          	mov    0x8(%rbx),%rsi
  402988:	4c 89 e2             	mov    %r12,%rdx
  40298b:	4c 89 ef             	mov    %r13,%rdi
  40298e:	e8 ad e7 ff ff       	call   401140 <memcpy@plt>
  402993:	4c 01 63 08          	add    %r12,0x8(%rbx)
  402997:	8b 43 04             	mov    0x4(%rbx),%eax
  40299a:	29 e8                	sub    %ebp,%eax
  40299c:	89 43 04             	mov    %eax,0x4(%rbx)
  40299f:	4c 89 e0             	mov    %r12,%rax
  4029a2:	48 83 c4 08          	add    $0x8,%rsp
  4029a6:	5b                   	pop    %rbx
  4029a7:	5d                   	pop    %rbp
  4029a8:	41 5c                	pop    %r12
  4029aa:	41 5d                	pop    %r13
  4029ac:	c3                   	ret
  4029ad:	48 c7 c0 ff ff ff ff 	mov    $0xffffffffffffffff,%rax
  4029b4:	eb ec                	jmp    4029a2 <rio_read+0x73>
  4029b6:	b8 00 00 00 00       	mov    $0x0,%eax
  4029bb:	eb e5                	jmp    4029a2 <rio_read+0x73>

00000000004029bd <rio_readlineb>:
  4029bd:	41 55                	push   %r13
  4029bf:	41 54                	push   %r12
  4029c1:	55                   	push   %rbp
  4029c2:	53                   	push   %rbx
  4029c3:	48 83 ec 18          	sub    $0x18,%rsp
  4029c7:	49 89 fd             	mov    %rdi,%r13
  4029ca:	48 89 f5             	mov    %rsi,%rbp
  4029cd:	49 89 d4             	mov    %rdx,%r12
  4029d0:	64 48 8b 04 25 28 00 	mov    %fs:0x28,%rax
  4029d7:	00 00 
  4029d9:	48 89 44 24 08       	mov    %rax,0x8(%rsp)
  4029de:	31 c0                	xor    %eax,%eax
  4029e0:	bb 01 00 00 00       	mov    $0x1,%ebx
  4029e5:	eb 18                	jmp    4029ff <rio_readlineb+0x42>
  4029e7:	85 c0                	test   %eax,%eax
  4029e9:	75 65                	jne    402a50 <rio_readlineb+0x93>
  4029eb:	48 83 fb 01          	cmp    $0x1,%rbx
  4029ef:	75 3d                	jne    402a2e <rio_readlineb+0x71>
  4029f1:	b8 00 00 00 00       	mov    $0x0,%eax
  4029f6:	eb 3d                	jmp    402a35 <rio_readlineb+0x78>
  4029f8:	48 83 c3 01          	add    $0x1,%rbx
  4029fc:	48 89 d5             	mov    %rdx,%rbp
  4029ff:	4c 39 e3             	cmp    %r12,%rbx
  402a02:	73 2a                	jae    402a2e <rio_readlineb+0x71>
  402a04:	48 8d 74 24 07       	lea    0x7(%rsp),%rsi
  402a09:	ba 01 00 00 00       	mov    $0x1,%edx
  402a0e:	4c 89 ef             	mov    %r13,%rdi
  402a11:	e8 19 ff ff ff       	call   40292f <rio_read>
  402a16:	83 f8 01             	cmp    $0x1,%eax
  402a19:	75 cc                	jne    4029e7 <rio_readlineb+0x2a>
  402a1b:	48 8d 55 01          	lea    0x1(%rbp),%rdx
  402a1f:	0f b6 44 24 07       	movzbl 0x7(%rsp),%eax
  402a24:	88 45 00             	mov    %al,0x0(%rbp)
  402a27:	3c 0a                	cmp    $0xa,%al
  402a29:	75 cd                	jne    4029f8 <rio_readlineb+0x3b>
  402a2b:	48 89 d5             	mov    %rdx,%rbp
  402a2e:	c6 45 00 00          	movb   $0x0,0x0(%rbp)
  402a32:	48 89 d8             	mov    %rbx,%rax
  402a35:	48 8b 54 24 08       	mov    0x8(%rsp),%rdx
  402a3a:	64 48 2b 14 25 28 00 	sub    %fs:0x28,%rdx
  402a41:	00 00 
  402a43:	75 14                	jne    402a59 <rio_readlineb+0x9c>
  402a45:	48 83 c4 18          	add    $0x18,%rsp
  402a49:	5b                   	pop    %rbx
  402a4a:	5d                   	pop    %rbp
  402a4b:	41 5c                	pop    %r12
  402a4d:	41 5d                	pop    %r13
  402a4f:	c3                   	ret
  402a50:	48 c7 c0 ff ff ff ff 	mov    $0xffffffffffffffff,%rax
  402a57:	eb dc                	jmp    402a35 <rio_readlineb+0x78>
  402a59:	e8 ff fb ff ff       	call   40265d <__stack_chk_fail>

0000000000402a5e <urlencode>:
  402a5e:	41 54                	push   %r12
  402a60:	55                   	push   %rbp
  402a61:	53                   	push   %rbx
  402a62:	48 83 ec 10          	sub    $0x10,%rsp
  402a66:	48 89 fb             	mov    %rdi,%rbx
  402a69:	48 89 f5             	mov    %rsi,%rbp
  402a6c:	64 48 8b 04 25 28 00 	mov    %fs:0x28,%rax
  402a73:	00 00 
  402a75:	48 89 44 24 08       	mov    %rax,0x8(%rsp)
  402a7a:	31 c0                	xor    %eax,%eax
  402a7c:	e8 1f e6 ff ff       	call   4010a0 <strlen@plt>
  402a81:	eb 0f                	jmp    402a92 <urlencode+0x34>
  402a83:	44 88 45 00          	mov    %r8b,0x0(%rbp)
  402a87:	48 8d 6d 01          	lea    0x1(%rbp),%rbp
  402a8b:	48 83 c3 01          	add    $0x1,%rbx
  402a8f:	44 89 e0             	mov    %r12d,%eax
  402a92:	44 8d 60 ff          	lea    -0x1(%rax),%r12d
  402a96:	85 c0                	test   %eax,%eax
  402a98:	0f 84 a8 00 00 00    	je     402b46 <urlencode+0xe8>
  402a9e:	44 0f b6 03          	movzbl (%rbx),%r8d
  402aa2:	41 80 f8 2a          	cmp    $0x2a,%r8b
  402aa6:	0f 94 c0             	sete   %al
  402aa9:	41 80 f8 2d          	cmp    $0x2d,%r8b
  402aad:	0f 94 c2             	sete   %dl
  402ab0:	08 d0                	or     %dl,%al
  402ab2:	75 cf                	jne    402a83 <urlencode+0x25>
  402ab4:	41 80 f8 2e          	cmp    $0x2e,%r8b
  402ab8:	74 c9                	je     402a83 <urlencode+0x25>
  402aba:	41 80 f8 5f          	cmp    $0x5f,%r8b
  402abe:	74 c3                	je     402a83 <urlencode+0x25>
  402ac0:	41 8d 40 d0          	lea    -0x30(%r8),%eax
  402ac4:	3c 09                	cmp    $0x9,%al
  402ac6:	76 bb                	jbe    402a83 <urlencode+0x25>
  402ac8:	41 8d 40 bf          	lea    -0x41(%r8),%eax
  402acc:	3c 19                	cmp    $0x19,%al
  402ace:	76 b3                	jbe    402a83 <urlencode+0x25>
  402ad0:	41 8d 40 9f          	lea    -0x61(%r8),%eax
  402ad4:	3c 19                	cmp    $0x19,%al
  402ad6:	76 ab                	jbe    402a83 <urlencode+0x25>
  402ad8:	41 80 f8 20          	cmp    $0x20,%r8b
  402adc:	74 56                	je     402b34 <urlencode+0xd6>
  402ade:	41 8d 40 e0          	lea    -0x20(%r8),%eax
  402ae2:	3c 5f                	cmp    $0x5f,%al
  402ae4:	0f 96 c0             	setbe  %al
  402ae7:	41 80 f8 09          	cmp    $0x9,%r8b
  402aeb:	0f 94 c2             	sete   %dl
  402aee:	08 d0                	or     %dl,%al
  402af0:	74 4f                	je     402b41 <urlencode+0xe3>
  402af2:	48 89 e7             	mov    %rsp,%rdi
  402af5:	45 0f b6 c0          	movzbl %r8b,%r8d
  402af9:	48 8d 0d 56 1c 00 00 	lea    0x1c56(%rip),%rcx        # 404756 <_IO_stdin_used+0x756>
  402b00:	ba 08 00 00 00       	mov    $0x8,%edx
  402b05:	be 02 00 00 00       	mov    $0x2,%esi
  402b0a:	b8 00 00 00 00       	mov    $0x0,%eax
  402b0f:	e8 0c e7 ff ff       	call   401220 <__sprintf_chk@plt>
  402b14:	0f b6 04 24          	movzbl (%rsp),%eax
  402b18:	88 45 00             	mov    %al,0x0(%rbp)
  402b1b:	0f b6 44 24 01       	movzbl 0x1(%rsp),%eax
  402b20:	88 45 01             	mov    %al,0x1(%rbp)
  402b23:	0f b6 44 24 02       	movzbl 0x2(%rsp),%eax
  402b28:	88 45 02             	mov    %al,0x2(%rbp)
  402b2b:	48 8d 6d 03          	lea    0x3(%rbp),%rbp
  402b2f:	e9 57 ff ff ff       	jmp    402a8b <urlencode+0x2d>
  402b34:	c6 45 00 2b          	movb   $0x2b,0x0(%rbp)
  402b38:	48 8d 6d 01          	lea    0x1(%rbp),%rbp
  402b3c:	e9 4a ff ff ff       	jmp    402a8b <urlencode+0x2d>
  402b41:	b8 ff ff ff ff       	mov    $0xffffffff,%eax
  402b46:	48 8b 54 24 08       	mov    0x8(%rsp),%rdx
  402b4b:	64 48 2b 14 25 28 00 	sub    %fs:0x28,%rdx
  402b52:	00 00 
  402b54:	75 09                	jne    402b5f <urlencode+0x101>
  402b56:	48 83 c4 10          	add    $0x10,%rsp
  402b5a:	5b                   	pop    %rbx
  402b5b:	5d                   	pop    %rbp
  402b5c:	41 5c                	pop    %r12
  402b5e:	c3                   	ret
  402b5f:	e8 f9 fa ff ff       	call   40265d <__stack_chk_fail>

0000000000402b64 <submitr>:
  402b64:	f3 0f 1e fa          	endbr64
  402b68:	41 57                	push   %r15
  402b6a:	41 56                	push   %r14
  402b6c:	41 55                	push   %r13
  402b6e:	41 54                	push   %r12
  402b70:	55                   	push   %rbp
  402b71:	53                   	push   %rbx
  402b72:	4c 8d 9c 24 00 60 ff 	lea    -0xa000(%rsp),%r11
  402b79:	ff 
  402b7a:	48 81 ec 00 10 00 00 	sub    $0x1000,%rsp
  402b81:	48 83 0c 24 00       	orq    $0x0,(%rsp)
  402b86:	4c 39 dc             	cmp    %r11,%rsp
  402b89:	75 ef                	jne    402b7a <submitr+0x16>
  402b8b:	48 83 ec 68          	sub    $0x68,%rsp
  402b8f:	49 89 fd             	mov    %rdi,%r13
  402b92:	41 89 f6             	mov    %esi,%r14d
  402b95:	48 89 54 24 10       	mov    %rdx,0x10(%rsp)
  402b9a:	49 89 cc             	mov    %rcx,%r12
  402b9d:	4c 89 44 24 18       	mov    %r8,0x18(%rsp)
  402ba2:	4c 89 4c 24 08       	mov    %r9,0x8(%rsp)
  402ba7:	4c 8b bc 24 a0 a0 00 	mov    0xa0a0(%rsp),%r15
  402bae:	00 
  402baf:	64 48 8b 04 25 28 00 	mov    %fs:0x28,%rax
  402bb6:	00 00 
  402bb8:	48 89 84 24 58 a0 00 	mov    %rax,0xa058(%rsp)
  402bbf:	00 
  402bc0:	31 c0                	xor    %eax,%eax
  402bc2:	c7 44 24 2c 00 00 00 	movl   $0x0,0x2c(%rsp)
  402bc9:	00 
  402bca:	ba 00 00 00 00       	mov    $0x0,%edx
  402bcf:	be 01 00 00 00       	mov    $0x1,%esi
  402bd4:	bf 02 00 00 00       	mov    $0x2,%edi
  402bd9:	e8 52 e6 ff ff       	call   401230 <socket@plt>
  402bde:	85 c0                	test   %eax,%eax
  402be0:	0f 88 72 02 00 00    	js     402e58 <submitr+0x2f4>
  402be6:	89 c3                	mov    %eax,%ebx
  402be8:	4c 89 ef             	mov    %r13,%rdi
  402beb:	e8 20 e5 ff ff       	call   401110 <gethostbyname@plt>
  402bf0:	48 85 c0             	test   %rax,%rax
  402bf3:	0f 84 ab 02 00 00    	je     402ea4 <submitr+0x340>
  402bf9:	48 8d 6c 24 30       	lea    0x30(%rsp),%rbp
  402bfe:	66 0f ef c0          	pxor   %xmm0,%xmm0
  402c02:	0f 29 44 24 30       	movaps %xmm0,0x30(%rsp)
  402c07:	66 c7 44 24 30 02 00 	movw   $0x2,0x30(%rsp)
  402c0e:	48 63 50 14          	movslq 0x14(%rax),%rdx
  402c12:	48 8b 40 18          	mov    0x18(%rax),%rax
  402c16:	48 8b 30             	mov    (%rax),%rsi
  402c19:	48 8d 7c 24 34       	lea    0x34(%rsp),%rdi
  402c1e:	b9 0c 00 00 00       	mov    $0xc,%ecx
  402c23:	e8 f8 e4 ff ff       	call   401120 <__memmove_chk@plt>
  402c28:	66 41 c1 c6 08       	rol    $0x8,%r14w
  402c2d:	66 44 89 74 24 32    	mov    %r14w,0x32(%rsp)
  402c33:	ba 10 00 00 00       	mov    $0x10,%edx
  402c38:	48 89 ee             	mov    %rbp,%rsi
  402c3b:	89 df                	mov    %ebx,%edi
  402c3d:	e8 ae e5 ff ff       	call   4011f0 <connect@plt>
  402c42:	85 c0                	test   %eax,%eax
  402c44:	0f 88 cc 02 00 00    	js     402f16 <submitr+0x3b2>
  402c4a:	48 8b 7c 24 08       	mov    0x8(%rsp),%rdi
  402c4f:	e8 4c e4 ff ff       	call   4010a0 <strlen@plt>
  402c54:	49 89 c6             	mov    %rax,%r14
  402c57:	48 8b 7c 24 10       	mov    0x10(%rsp),%rdi
  402c5c:	e8 3f e4 ff ff       	call   4010a0 <strlen@plt>
  402c61:	48 89 c5             	mov    %rax,%rbp
  402c64:	4c 89 e7             	mov    %r12,%rdi
  402c67:	e8 34 e4 ff ff       	call   4010a0 <strlen@plt>
  402c6c:	48 01 c5             	add    %rax,%rbp
  402c6f:	48 8b 7c 24 18       	mov    0x18(%rsp),%rdi
  402c74:	e8 27 e4 ff ff       	call   4010a0 <strlen@plt>
  402c79:	48 01 c5             	add    %rax,%rbp
  402c7c:	4b 8d 04 76          	lea    (%r14,%r14,2),%rax
  402c80:	48 8d 84 05 80 00 00 	lea    0x80(%rbp,%rax,1),%rax
  402c87:	00 
  402c88:	48 3d 00 20 00 00    	cmp    $0x2000,%rax
  402c8e:	0f 87 e6 02 00 00    	ja     402f7a <submitr+0x416>
  402c94:	48 8d b4 24 50 40 00 	lea    0x4050(%rsp),%rsi
  402c9b:	00 
  402c9c:	b9 00 04 00 00       	mov    $0x400,%ecx
  402ca1:	b8 00 00 00 00       	mov    $0x0,%eax
  402ca6:	48 89 f7             	mov    %rsi,%rdi
  402ca9:	f3 48 ab             	rep stos %rax,%es:(%rdi)
  402cac:	48 8b 7c 24 08       	mov    0x8(%rsp),%rdi
  402cb1:	e8 a8 fd ff ff       	call   402a5e <urlencode>
  402cb6:	85 c0                	test   %eax,%eax
  402cb8:	0f 88 2e 03 00 00    	js     402fec <submitr+0x488>
  402cbe:	48 8d ac 24 50 20 00 	lea    0x2050(%rsp),%rbp
  402cc5:	00 
  402cc6:	48 83 ec 08          	sub    $0x8,%rsp
  402cca:	41 55                	push   %r13
  402ccc:	48 8d 84 24 60 40 00 	lea    0x4060(%rsp),%rax
  402cd3:	00 
  402cd4:	50                   	push   %rax
  402cd5:	41 54                	push   %r12
  402cd7:	4c 8b 4c 24 38       	mov    0x38(%rsp),%r9
  402cdc:	4c 8b 44 24 30       	mov    0x30(%rsp),%r8
  402ce1:	48 8d 0d a8 17 00 00 	lea    0x17a8(%rip),%rcx        # 404490 <_IO_stdin_used+0x490>
  402ce8:	ba 00 20 00 00       	mov    $0x2000,%edx
  402ced:	be 02 00 00 00       	mov    $0x2,%esi
  402cf2:	48 89 ef             	mov    %rbp,%rdi
  402cf5:	b8 00 00 00 00       	mov    $0x0,%eax
  402cfa:	e8 21 e5 ff ff       	call   401220 <__sprintf_chk@plt>
  402cff:	48 83 c4 20          	add    $0x20,%rsp
  402d03:	48 89 ef             	mov    %rbp,%rdi
  402d06:	e8 95 e3 ff ff       	call   4010a0 <strlen@plt>
  402d0b:	48 89 c2             	mov    %rax,%rdx
  402d0e:	48 89 ee             	mov    %rbp,%rsi
  402d11:	89 df                	mov    %ebx,%edi
  402d13:	e8 b9 fb ff ff       	call   4028d1 <rio_writen>
  402d18:	48 85 c0             	test   %rax,%rax
  402d1b:	0f 88 53 03 00 00    	js     403074 <submitr+0x510>
  402d21:	48 8d 6c 24 40       	lea    0x40(%rsp),%rbp
  402d26:	89 de                	mov    %ebx,%esi
  402d28:	48 89 ef             	mov    %rbp,%rdi
  402d2b:	e8 59 fb ff ff       	call   402889 <rio_readinitb>
  402d30:	48 8d b4 24 50 20 00 	lea    0x2050(%rsp),%rsi
  402d37:	00 
  402d38:	ba 00 20 00 00       	mov    $0x2000,%edx
  402d3d:	48 89 ef             	mov    %rbp,%rdi
  402d40:	e8 78 fc ff ff       	call   4029bd <rio_readlineb>
  402d45:	48 85 c0             	test   %rax,%rax
  402d48:	0f 8e 92 03 00 00    	jle    4030e0 <submitr+0x57c>
  402d4e:	48 8d 4c 24 2c       	lea    0x2c(%rsp),%rcx
  402d53:	48 8d 94 24 50 60 00 	lea    0x6050(%rsp),%rdx
  402d5a:	00 
  402d5b:	48 8d bc 24 50 20 00 	lea    0x2050(%rsp),%rdi
  402d62:	00 
  402d63:	4c 8d 84 24 50 80 00 	lea    0x8050(%rsp),%r8
  402d6a:	00 
  402d6b:	48 8d 35 eb 19 00 00 	lea    0x19eb(%rip),%rsi        # 40475d <_IO_stdin_used+0x75d>
  402d72:	b8 00 00 00 00       	mov    $0x0,%eax
  402d77:	e8 f4 e3 ff ff       	call   401170 <__isoc99_sscanf@plt>
  402d7c:	48 8d bc 24 50 20 00 	lea    0x2050(%rsp),%rdi
  402d83:	00 
  402d84:	48 8d 35 e9 19 00 00 	lea    0x19e9(%rip),%rsi        # 404774 <_IO_stdin_used+0x774>
  402d8b:	e8 60 e3 ff ff       	call   4010f0 <strcmp@plt>
  402d90:	85 c0                	test   %eax,%eax
  402d92:	0f 84 c8 03 00 00    	je     403160 <submitr+0x5fc>
  402d98:	48 8d b4 24 50 20 00 	lea    0x2050(%rsp),%rsi
  402d9f:	00 
  402da0:	48 8d 7c 24 40       	lea    0x40(%rsp),%rdi
  402da5:	ba 00 20 00 00       	mov    $0x2000,%edx
  402daa:	e8 0e fc ff ff       	call   4029bd <rio_readlineb>
  402daf:	48 85 c0             	test   %rax,%rax
  402db2:	7f c8                	jg     402d7c <submitr+0x218>
  402db4:	48 b8 45 72 72 6f 72 	movabs $0x43203a726f727245,%rax
  402dbb:	3a 20 43 
  402dbe:	48 ba 6c 69 65 6e 74 	movabs $0x6e7520746e65696c,%rdx
  402dc5:	20 75 6e 
  402dc8:	49 89 07             	mov    %rax,(%r15)
  402dcb:	49 89 57 08          	mov    %rdx,0x8(%r15)
  402dcf:	48 b8 61 62 6c 65 20 	movabs $0x206f7420656c6261,%rax
  402dd6:	74 6f 20 
  402dd9:	48 ba 72 65 61 64 20 	movabs $0x6165682064616572,%rdx
  402de0:	68 65 61 
  402de3:	49 89 47 10          	mov    %rax,0x10(%r15)
  402de7:	49 89 57 18          	mov    %rdx,0x18(%r15)
  402deb:	48 b8 64 65 72 73 20 	movabs $0x6f72662073726564,%rax
  402df2:	66 72 6f 
  402df5:	48 ba 6d 20 41 75 74 	movabs $0x616c6f747541206d,%rdx
  402dfc:	6f 6c 61 
  402dff:	49 89 47 20          	mov    %rax,0x20(%r15)
  402e03:	49 89 57 28          	mov    %rdx,0x28(%r15)
  402e07:	48 b8 20 41 75 74 6f 	movabs $0x62616c6f74754120,%rax
  402e0e:	6c 61 62 
  402e11:	48 ba 20 73 65 72 76 	movabs $0x72657672657320,%rdx
  402e18:	65 72 00 
  402e1b:	49 89 47 29          	mov    %rax,0x29(%r15)
  402e1f:	49 89 57 31          	mov    %rdx,0x31(%r15)
  402e23:	89 df                	mov    %ebx,%edi
  402e25:	e8 a6 e2 ff ff       	call   4010d0 <close@plt>
  402e2a:	b8 ff ff ff ff       	mov    $0xffffffff,%eax
  402e2f:	48 8b 94 24 58 a0 00 	mov    0xa058(%rsp),%rdx
  402e36:	00 
  402e37:	64 48 2b 14 25 28 00 	sub    %fs:0x28,%rdx
  402e3e:	00 00 
  402e40:	0f 85 67 04 00 00    	jne    4032ad <submitr+0x749>
  402e46:	48 81 c4 68 a0 00 00 	add    $0xa068,%rsp
  402e4d:	5b                   	pop    %rbx
  402e4e:	5d                   	pop    %rbp
  402e4f:	41 5c                	pop    %r12
  402e51:	41 5d                	pop    %r13
  402e53:	41 5e                	pop    %r14
  402e55:	41 5f                	pop    %r15
  402e57:	c3                   	ret
  402e58:	48 b8 45 72 72 6f 72 	movabs $0x43203a726f727245,%rax
  402e5f:	3a 20 43 
  402e62:	48 ba 6c 69 65 6e 74 	movabs $0x6e7520746e65696c,%rdx
  402e69:	20 75 6e 
  402e6c:	49 89 07             	mov    %rax,(%r15)
  402e6f:	49 89 57 08          	mov    %rdx,0x8(%r15)
  402e73:	48 b8 61 62 6c 65 20 	movabs $0x206f7420656c6261,%rax
  402e7a:	74 6f 20 
  402e7d:	48 ba 63 72 65 61 74 	movabs $0x7320657461657263,%rdx
  402e84:	65 20 73 
  402e87:	49 89 47 10          	mov    %rax,0x10(%r15)
  402e8b:	49 89 57 18          	mov    %rdx,0x18(%r15)
  402e8f:	48 b8 20 73 6f 63 6b 	movabs $0x74656b636f7320,%rax
  402e96:	65 74 00 
  402e99:	49 89 47 1e          	mov    %rax,0x1e(%r15)
  402e9d:	b8 ff ff ff ff       	mov    $0xffffffff,%eax
  402ea2:	eb 8b                	jmp    402e2f <submitr+0x2cb>
  402ea4:	48 b8 45 72 72 6f 72 	movabs $0x44203a726f727245,%rax
  402eab:	3a 20 44 
  402eae:	48 ba 4e 53 20 69 73 	movabs $0x6e7520736920534e,%rdx
  402eb5:	20 75 6e 
  402eb8:	49 89 07             	mov    %rax,(%r15)
  402ebb:	49 89 57 08          	mov    %rdx,0x8(%r15)
  402ebf:	48 b8 61 62 6c 65 20 	movabs $0x206f7420656c6261,%rax
  402ec6:	74 6f 20 
  402ec9:	48 ba 72 65 73 6f 6c 	movabs $0x2065766c6f736572,%rdx
  402ed0:	76 65 20 
  402ed3:	49 89 47 10          	mov    %rax,0x10(%r15)
  402ed7:	49 89 57 18          	mov    %rdx,0x18(%r15)
  402edb:	48 b8 41 75 74 6f 6c 	movabs $0x2062616c6f747541,%rax
  402ee2:	61 62 20 
  402ee5:	48 ba 73 65 72 76 65 	movabs $0x6120726576726573,%rdx
  402eec:	72 20 61 
  402eef:	49 89 47 20          	mov    %rax,0x20(%r15)
  402ef3:	49 89 57 28          	mov    %rdx,0x28(%r15)
  402ef7:	48 b8 61 64 64 72 65 	movabs $0x73736572646461,%rax
  402efe:	73 73 00 
  402f01:	49 89 47 2f          	mov    %rax,0x2f(%r15)
  402f05:	89 df                	mov    %ebx,%edi
  402f07:	e8 c4 e1 ff ff       	call   4010d0 <close@plt>
  402f0c:	b8 ff ff ff ff       	mov    $0xffffffff,%eax
  402f11:	e9 19 ff ff ff       	jmp    402e2f <submitr+0x2cb>
  402f16:	48 b8 45 72 72 6f 72 	movabs $0x55203a726f727245,%rax
  402f1d:	3a 20 55 
  402f20:	48 ba 6e 61 62 6c 65 	movabs $0x6f7420656c62616e,%rdx
  402f27:	20 74 6f 
  402f2a:	49 89 07             	mov    %rax,(%r15)
  402f2d:	49 89 57 08          	mov    %rdx,0x8(%r15)
  402f31:	48 b8 20 63 6f 6e 6e 	movabs $0x7463656e6e6f6320,%rax
  402f38:	65 63 74 
  402f3b:	48 ba 20 74 6f 20 74 	movabs $0x20656874206f7420,%rdx
  402f42:	68 65 20 
  402f45:	49 89 47 10          	mov    %rax,0x10(%r15)
  402f49:	49 89 57 18          	mov    %rdx,0x18(%r15)
  402f4d:	48 b8 20 41 75 74 6f 	movabs $0x62616c6f74754120,%rax
  402f54:	6c 61 62 
  402f57:	48 ba 20 73 65 72 76 	movabs $0x72657672657320,%rdx
  402f5e:	65 72 00 
  402f61:	49 89 47 1f          	mov    %rax,0x1f(%r15)
  402f65:	49 89 57 27          	mov    %rdx,0x27(%r15)
  402f69:	89 df                	mov    %ebx,%edi
  402f6b:	e8 60 e1 ff ff       	call   4010d0 <close@plt>
  402f70:	b8 ff ff ff ff       	mov    $0xffffffff,%eax
  402f75:	e9 b5 fe ff ff       	jmp    402e2f <submitr+0x2cb>
  402f7a:	48 b8 45 72 72 6f 72 	movabs $0x52203a726f727245,%rax
  402f81:	3a 20 52 
  402f84:	48 ba 65 73 75 6c 74 	movabs $0x747320746c757365,%rdx
  402f8b:	20 73 74 
  402f8e:	49 89 07             	mov    %rax,(%r15)
  402f91:	49 89 57 08          	mov    %rdx,0x8(%r15)
  402f95:	48 b8 72 69 6e 67 20 	movabs $0x6f6f7420676e6972,%rax
  402f9c:	74 6f 6f 
  402f9f:	48 ba 20 6c 61 72 67 	movabs $0x202e656772616c20,%rdx
  402fa6:	65 2e 20 
  402fa9:	49 89 47 10          	mov    %rax,0x10(%r15)
  402fad:	49 89 57 18          	mov    %rdx,0x18(%r15)
  402fb1:	48 b8 49 6e 63 72 65 	movabs $0x6573616572636e49,%rax
  402fb8:	61 73 65 
  402fbb:	48 ba 20 53 55 42 4d 	movabs $0x5254494d42555320,%rdx
  402fc2:	49 54 52 
  402fc5:	49 89 47 20          	mov    %rax,0x20(%r15)
  402fc9:	49 89 57 28          	mov    %rdx,0x28(%r15)
  402fcd:	48 b8 5f 4d 41 58 42 	movabs $0x46554258414d5f,%rax
  402fd4:	55 46 00 
  402fd7:	49 89 47 30          	mov    %rax,0x30(%r15)
  402fdb:	89 df                	mov    %ebx,%edi
  402fdd:	e8 ee e0 ff ff       	call   4010d0 <close@plt>
  402fe2:	b8 ff ff ff ff       	mov    $0xffffffff,%eax
  402fe7:	e9 43 fe ff ff       	jmp    402e2f <submitr+0x2cb>
  402fec:	48 b8 45 72 72 6f 72 	movabs $0x55203a726f727245,%rax
  402ff3:	3a 20 55 
  402ff6:	48 ba 73 65 72 69 64 	movabs $0x7473206469726573,%rdx
  402ffd:	20 73 74 
  403000:	49 89 07             	mov    %rax,(%r15)
  403003:	49 89 57 08          	mov    %rdx,0x8(%r15)
  403007:	48 b8 72 69 6e 67 20 	movabs $0x6e6f6320676e6972,%rax
  40300e:	63 6f 6e 
  403011:	48 ba 74 61 69 6e 73 	movabs $0x6e6120736e696174,%rdx
  403018:	20 61 6e 
  40301b:	49 89 47 10          	mov    %rax,0x10(%r15)
  40301f:	49 89 57 18          	mov    %rdx,0x18(%r15)
  403023:	48 b8 20 69 6c 6c 65 	movabs $0x6c6167656c6c6920,%rax
  40302a:	67 61 6c 
  40302d:	48 ba 20 6f 72 20 75 	movabs $0x72706e7520726f20,%rdx
  403034:	6e 70 72 
  403037:	49 89 47 20          	mov    %rax,0x20(%r15)
  40303b:	49 89 57 28          	mov    %rdx,0x28(%r15)
  40303f:	48 b8 69 6e 74 61 62 	movabs $0x20656c6261746e69,%rax
  403046:	6c 65 20 
  403049:	48 ba 63 68 61 72 61 	movabs $0x6574636172616863,%rdx
  403050:	63 74 65 
  403053:	49 89 47 30          	mov    %rax,0x30(%r15)
  403057:	49 89 57 38          	mov    %rdx,0x38(%r15)
  40305b:	41 c7 47 3f 65 72 2e 	movl   $0x2e7265,0x3f(%r15)
  403062:	00 
  403063:	89 df                	mov    %ebx,%edi
  403065:	e8 66 e0 ff ff       	call   4010d0 <close@plt>
  40306a:	b8 ff ff ff ff       	mov    $0xffffffff,%eax
  40306f:	e9 bb fd ff ff       	jmp    402e2f <submitr+0x2cb>
  403074:	48 b8 45 72 72 6f 72 	movabs $0x43203a726f727245,%rax
  40307b:	3a 20 43 
  40307e:	48 ba 6c 69 65 6e 74 	movabs $0x6e7520746e65696c,%rdx
  403085:	20 75 6e 
  403088:	49 89 07             	mov    %rax,(%r15)
  40308b:	49 89 57 08          	mov    %rdx,0x8(%r15)
  40308f:	48 b8 61 62 6c 65 20 	movabs $0x206f7420656c6261,%rax
  403096:	74 6f 20 
  403099:	48 ba 77 72 69 74 65 	movabs $0x6f74206574697277,%rdx
  4030a0:	20 74 6f 
  4030a3:	49 89 47 10          	mov    %rax,0x10(%r15)
  4030a7:	49 89 57 18          	mov    %rdx,0x18(%r15)
  4030ab:	48 b8 20 74 68 65 20 	movabs $0x7475412065687420,%rax
  4030b2:	41 75 74 
  4030b5:	48 ba 6f 6c 61 62 20 	movabs $0x7265732062616c6f,%rdx
  4030bc:	73 65 72 
  4030bf:	49 89 47 20          	mov    %rax,0x20(%r15)
  4030c3:	49 89 57 28          	mov    %rdx,0x28(%r15)
  4030c7:	41 c7 47 30 76 65 72 	movl   $0x726576,0x30(%r15)
  4030ce:	00 
  4030cf:	89 df                	mov    %ebx,%edi
  4030d1:	e8 fa df ff ff       	call   4010d0 <close@plt>
  4030d6:	b8 ff ff ff ff       	mov    $0xffffffff,%eax
  4030db:	e9 4f fd ff ff       	jmp    402e2f <submitr+0x2cb>
  4030e0:	48 b8 45 72 72 6f 72 	movabs $0x43203a726f727245,%rax
  4030e7:	3a 20 43 
  4030ea:	48 ba 6c 69 65 6e 74 	movabs $0x6e7520746e65696c,%rdx
  4030f1:	20 75 6e 
  4030f4:	49 89 07             	mov    %rax,(%r15)
  4030f7:	49 89 57 08          	mov    %rdx,0x8(%r15)
  4030fb:	48 b8 61 62 6c 65 20 	movabs $0x206f7420656c6261,%rax
  403102:	74 6f 20 
  403105:	48 ba 72 65 61 64 20 	movabs $0x7269662064616572,%rdx
  40310c:	66 69 72 
  40310f:	49 89 47 10          	mov    %rax,0x10(%r15)
  403113:	49 89 57 18          	mov    %rdx,0x18(%r15)
  403117:	48 b8 73 74 20 68 65 	movabs $0x6564616568207473,%rax
  40311e:	61 64 65 
  403121:	48 ba 72 20 66 72 6f 	movabs $0x41206d6f72662072,%rdx
  403128:	6d 20 41 
  40312b:	49 89 47 20          	mov    %rax,0x20(%r15)
  40312f:	49 89 57 28          	mov    %rdx,0x28(%r15)
  403133:	48 b8 20 41 75 74 6f 	movabs $0x62616c6f74754120,%rax
  40313a:	6c 61 62 
  40313d:	48 ba 20 73 65 72 76 	movabs $0x72657672657320,%rdx
  403144:	65 72 00 
  403147:	49 89 47 2e          	mov    %rax,0x2e(%r15)
  40314b:	49 89 57 36          	mov    %rdx,0x36(%r15)
  40314f:	89 df                	mov    %ebx,%edi
  403151:	e8 7a df ff ff       	call   4010d0 <close@plt>
  403156:	b8 ff ff ff ff       	mov    $0xffffffff,%eax
  40315b:	e9 cf fc ff ff       	jmp    402e2f <submitr+0x2cb>
  403160:	48 8d b4 24 50 20 00 	lea    0x2050(%rsp),%rsi
  403167:	00 
  403168:	48 8d 7c 24 40       	lea    0x40(%rsp),%rdi
  40316d:	ba 00 20 00 00       	mov    $0x2000,%edx
  403172:	e8 46 f8 ff ff       	call   4029bd <rio_readlineb>
  403177:	48 85 c0             	test   %rax,%rax
  40317a:	7e 78                	jle    4031f4 <submitr+0x690>
  40317c:	44 8b 44 24 2c       	mov    0x2c(%rsp),%r8d
  403181:	41 81 f8 c8 00 00 00 	cmp    $0xc8,%r8d
  403188:	0f 85 e6 00 00 00    	jne    403274 <submitr+0x710>
  40318e:	48 8d b4 24 50 20 00 	lea    0x2050(%rsp),%rsi
  403195:	00 
  403196:	4c 89 ff             	mov    %r15,%rdi
  403199:	e8 d2 de ff ff       	call   401070 <strcpy@plt>
  40319e:	89 df                	mov    %ebx,%edi
  4031a0:	e8 2b df ff ff       	call   4010d0 <close@plt>
  4031a5:	48 8d 35 c2 15 00 00 	lea    0x15c2(%rip),%rsi        # 40476e <_IO_stdin_used+0x76e>
  4031ac:	4c 89 ff             	mov    %r15,%rdi
  4031af:	e8 3c df ff ff       	call   4010f0 <strcmp@plt>
  4031b4:	85 c0                	test   %eax,%eax
  4031b6:	0f 84 73 fc ff ff    	je     402e2f <submitr+0x2cb>
  4031bc:	48 8d 35 af 15 00 00 	lea    0x15af(%rip),%rsi        # 404772 <_IO_stdin_used+0x772>
  4031c3:	4c 89 ff             	mov    %r15,%rdi
  4031c6:	e8 25 df ff ff       	call   4010f0 <strcmp@plt>
  4031cb:	85 c0                	test   %eax,%eax
  4031cd:	0f 84 5c fc ff ff    	je     402e2f <submitr+0x2cb>
  4031d3:	48 8d 35 9d 15 00 00 	lea    0x159d(%rip),%rsi        # 404777 <_IO_stdin_used+0x777>
  4031da:	4c 89 ff             	mov    %r15,%rdi
  4031dd:	e8 0e df ff ff       	call   4010f0 <strcmp@plt>
  4031e2:	85 c0                	test   %eax,%eax
  4031e4:	0f 84 45 fc ff ff    	je     402e2f <submitr+0x2cb>
  4031ea:	b8 ff ff ff ff       	mov    $0xffffffff,%eax
  4031ef:	e9 3b fc ff ff       	jmp    402e2f <submitr+0x2cb>
  4031f4:	48 b8 45 72 72 6f 72 	movabs $0x43203a726f727245,%rax
  4031fb:	3a 20 43 
  4031fe:	48 ba 6c 69 65 6e 74 	movabs $0x6e7520746e65696c,%rdx
  403205:	20 75 6e 
  403208:	49 89 07             	mov    %rax,(%r15)
  40320b:	49 89 57 08          	mov    %rdx,0x8(%r15)
  40320f:	48 b8 61 62 6c 65 20 	movabs $0x206f7420656c6261,%rax
  403216:	74 6f 20 
  403219:	48 ba 72 65 61 64 20 	movabs $0x6174732064616572,%rdx
  403220:	73 74 61 
  403223:	49 89 47 10          	mov    %rax,0x10(%r15)
  403227:	49 89 57 18          	mov    %rdx,0x18(%r15)
  40322b:	48 b8 74 75 73 20 6d 	movabs $0x7373656d20737574,%rax
  403232:	65 73 73 
  403235:	48 ba 61 67 65 20 66 	movabs $0x6d6f726620656761,%rdx
  40323c:	72 6f 6d 
  40323f:	49 89 47 20          	mov    %rax,0x20(%r15)
  403243:	49 89 57 28          	mov    %rdx,0x28(%r15)
  403247:	48 b8 20 41 75 74 6f 	movabs $0x62616c6f74754120,%rax
  40324e:	6c 61 62 
  403251:	48 ba 20 73 65 72 76 	movabs $0x72657672657320,%rdx
  403258:	65 72 00 
  40325b:	49 89 47 30          	mov    %rax,0x30(%r15)
  40325f:	49 89 57 38          	mov    %rdx,0x38(%r15)
  403263:	89 df                	mov    %ebx,%edi
  403265:	e8 66 de ff ff       	call   4010d0 <close@plt>
  40326a:	b8 ff ff ff ff       	mov    $0xffffffff,%eax
  40326f:	e9 bb fb ff ff       	jmp    402e2f <submitr+0x2cb>
  403274:	4c 8d 8c 24 50 80 00 	lea    0x8050(%rsp),%r9
  40327b:	00 
  40327c:	48 8d 0d 6d 12 00 00 	lea    0x126d(%rip),%rcx        # 4044f0 <_IO_stdin_used+0x4f0>
  403283:	48 c7 c2 ff ff ff ff 	mov    $0xffffffffffffffff,%rdx
  40328a:	be 02 00 00 00       	mov    $0x2,%esi
  40328f:	4c 89 ff             	mov    %r15,%rdi
  403292:	b8 00 00 00 00       	mov    $0x0,%eax
  403297:	e8 84 df ff ff       	call   401220 <__sprintf_chk@plt>
  40329c:	89 df                	mov    %ebx,%edi
  40329e:	e8 2d de ff ff       	call   4010d0 <close@plt>
  4032a3:	b8 ff ff ff ff       	mov    $0xffffffff,%eax
  4032a8:	e9 82 fb ff ff       	jmp    402e2f <submitr+0x2cb>
  4032ad:	e8 ab f3 ff ff       	call   40265d <__stack_chk_fail>

00000000004032b2 <init_timeout>:
  4032b2:	f3 0f 1e fa          	endbr64
  4032b6:	85 ff                	test   %edi,%edi
  4032b8:	74 26                	je     4032e0 <init_timeout+0x2e>
  4032ba:	53                   	push   %rbx
  4032bb:	89 fb                	mov    %edi,%ebx
  4032bd:	78 1a                	js     4032d9 <init_timeout+0x27>
  4032bf:	48 8d 35 d5 f5 ff ff 	lea    -0xa2b(%rip),%rsi        # 40289b <sigalrm_handler>
  4032c6:	bf 0e 00 00 00       	mov    $0xe,%edi
  4032cb:	e8 30 de ff ff       	call   401100 <signal@plt>
  4032d0:	89 df                	mov    %ebx,%edi
  4032d2:	e8 e9 dd ff ff       	call   4010c0 <alarm@plt>
  4032d7:	5b                   	pop    %rbx
  4032d8:	c3                   	ret
  4032d9:	bb 00 00 00 00       	mov    $0x0,%ebx
  4032de:	eb df                	jmp    4032bf <init_timeout+0xd>
  4032e0:	c3                   	ret

00000000004032e1 <init_driver>:
  4032e1:	f3 0f 1e fa          	endbr64
  4032e5:	41 54                	push   %r12
  4032e7:	55                   	push   %rbp
  4032e8:	53                   	push   %rbx
  4032e9:	48 83 ec 20          	sub    $0x20,%rsp
  4032ed:	48 89 fd             	mov    %rdi,%rbp
  4032f0:	64 48 8b 04 25 28 00 	mov    %fs:0x28,%rax
  4032f7:	00 00 
  4032f9:	48 89 44 24 18       	mov    %rax,0x18(%rsp)
  4032fe:	31 c0                	xor    %eax,%eax
  403300:	be 01 00 00 00       	mov    $0x1,%esi
  403305:	bf 0d 00 00 00       	mov    $0xd,%edi
  40330a:	e8 f1 dd ff ff       	call   401100 <signal@plt>
  40330f:	be 01 00 00 00       	mov    $0x1,%esi
  403314:	bf 1d 00 00 00       	mov    $0x1d,%edi
  403319:	e8 e2 dd ff ff       	call   401100 <signal@plt>
  40331e:	be 01 00 00 00       	mov    $0x1,%esi
  403323:	bf 1d 00 00 00       	mov    $0x1d,%edi
  403328:	e8 d3 dd ff ff       	call   401100 <signal@plt>
  40332d:	ba 00 00 00 00       	mov    $0x0,%edx
  403332:	be 01 00 00 00       	mov    $0x1,%esi
  403337:	bf 02 00 00 00       	mov    $0x2,%edi
  40333c:	e8 ef de ff ff       	call   401230 <socket@plt>
  403341:	85 c0                	test   %eax,%eax
  403343:	0f 88 93 00 00 00    	js     4033dc <init_driver+0xfb>
  403349:	89 c3                	mov    %eax,%ebx
  40334b:	48 8d 3d 28 14 00 00 	lea    0x1428(%rip),%rdi        # 40477a <_IO_stdin_used+0x77a>
  403352:	e8 b9 dd ff ff       	call   401110 <gethostbyname@plt>
  403357:	48 85 c0             	test   %rax,%rax
  40335a:	0f 84 c9 00 00 00    	je     403429 <init_driver+0x148>
  403360:	49 89 e4             	mov    %rsp,%r12
  403363:	66 0f ef c0          	pxor   %xmm0,%xmm0
  403367:	0f 29 04 24          	movaps %xmm0,(%rsp)
  40336b:	66 c7 04 24 02 00    	movw   $0x2,(%rsp)
  403371:	48 63 50 14          	movslq 0x14(%rax),%rdx
  403375:	48 8b 40 18          	mov    0x18(%rax),%rax
  403379:	48 8b 30             	mov    (%rax),%rsi
  40337c:	48 8d 7c 24 04       	lea    0x4(%rsp),%rdi
  403381:	b9 0c 00 00 00       	mov    $0xc,%ecx
  403386:	e8 95 dd ff ff       	call   401120 <__memmove_chk@plt>
  40338b:	66 c7 44 24 02 00 50 	movw   $0x5000,0x2(%rsp)
  403392:	ba 10 00 00 00       	mov    $0x10,%edx
  403397:	4c 89 e6             	mov    %r12,%rsi
  40339a:	89 df                	mov    %ebx,%edi
  40339c:	e8 4f de ff ff       	call   4011f0 <connect@plt>
  4033a1:	85 c0                	test   %eax,%eax
  4033a3:	0f 88 e5 00 00 00    	js     40348e <init_driver+0x1ad>
  4033a9:	89 df                	mov    %ebx,%edi
  4033ab:	e8 20 dd ff ff       	call   4010d0 <close@plt>
  4033b0:	66 c7 45 00 4f 4b    	movw   $0x4b4f,0x0(%rbp)
  4033b6:	c6 45 02 00          	movb   $0x0,0x2(%rbp)
  4033ba:	b8 00 00 00 00       	mov    $0x0,%eax
  4033bf:	48 8b 54 24 18       	mov    0x18(%rsp),%rdx
  4033c4:	64 48 2b 14 25 28 00 	sub    %fs:0x28,%rdx
  4033cb:	00 00 
  4033cd:	0f 85 27 01 00 00    	jne    4034fa <init_driver+0x219>
  4033d3:	48 83 c4 20          	add    $0x20,%rsp
  4033d7:	5b                   	pop    %rbx
  4033d8:	5d                   	pop    %rbp
  4033d9:	41 5c                	pop    %r12
  4033db:	c3                   	ret
  4033dc:	48 b8 45 72 72 6f 72 	movabs $0x43203a726f727245,%rax
  4033e3:	3a 20 43 
  4033e6:	48 ba 6c 69 65 6e 74 	movabs $0x6e7520746e65696c,%rdx
  4033ed:	20 75 6e 
  4033f0:	48 89 45 00          	mov    %rax,0x0(%rbp)
  4033f4:	48 89 55 08          	mov    %rdx,0x8(%rbp)
  4033f8:	48 b8 61 62 6c 65 20 	movabs $0x206f7420656c6261,%rax
  4033ff:	74 6f 20 
  403402:	48 ba 63 72 65 61 74 	movabs $0x7320657461657263,%rdx
  403409:	65 20 73 
  40340c:	48 89 45 10          	mov    %rax,0x10(%rbp)
  403410:	48 89 55 18          	mov    %rdx,0x18(%rbp)
  403414:	48 b8 20 73 6f 63 6b 	movabs $0x74656b636f7320,%rax
  40341b:	65 74 00 
  40341e:	48 89 45 1e          	mov    %rax,0x1e(%rbp)
  403422:	b8 ff ff ff ff       	mov    $0xffffffff,%eax
  403427:	eb 96                	jmp    4033bf <init_driver+0xde>
  403429:	48 b8 45 72 72 6f 72 	movabs $0x44203a726f727245,%rax
  403430:	3a 20 44 
  403433:	48 ba 4e 53 20 69 73 	movabs $0x6e7520736920534e,%rdx
  40343a:	20 75 6e 
  40343d:	48 89 45 00          	mov    %rax,0x0(%rbp)
  403441:	48 89 55 08          	mov    %rdx,0x8(%rbp)
  403445:	48 b8 61 62 6c 65 20 	movabs $0x206f7420656c6261,%rax
  40344c:	74 6f 20 
  40344f:	48 ba 72 65 73 6f 6c 	movabs $0x2065766c6f736572,%rdx
  403456:	76 65 20 
  403459:	48 89 45 10          	mov    %rax,0x10(%rbp)
  40345d:	48 89 55 18          	mov    %rdx,0x18(%rbp)
  403461:	48 b8 20 73 65 72 76 	movabs $0x2072657672657320,%rax
  403468:	65 72 20 
  40346b:	48 ba 61 64 64 72 65 	movabs $0x73736572646461,%rdx
  403472:	73 73 00 
  403475:	48 89 45 1f          	mov    %rax,0x1f(%rbp)
  403479:	48 89 55 27          	mov    %rdx,0x27(%rbp)
  40347d:	89 df                	mov    %ebx,%edi
  40347f:	e8 4c dc ff ff       	call   4010d0 <close@plt>
  403484:	b8 ff ff ff ff       	mov    $0xffffffff,%eax
  403489:	e9 31 ff ff ff       	jmp    4033bf <init_driver+0xde>
  40348e:	48 b8 31 36 32 2e 31 	movabs $0x2e3530312e323631,%rax
  403495:	30 35 2e 
  403498:	48 89 45 00          	mov    %rax,0x0(%rbp)
  40349c:	48 b8 2e 33 31 2e 32 	movabs $0x3233322e31332e,%rax
  4034a3:	33 32 00 
  4034a6:	48 89 45 07          	mov    %rax,0x7(%rbp)
  4034aa:	48 b8 45 72 72 6f 72 	movabs $0x55203a726f727245,%rax
  4034b1:	3a 20 55 
  4034b4:	48 ba 6e 61 62 6c 65 	movabs $0x6f7420656c62616e,%rdx
  4034bb:	20 74 6f 
  4034be:	48 89 45 00          	mov    %rax,0x0(%rbp)
  4034c2:	48 89 55 08          	mov    %rdx,0x8(%rbp)
  4034c6:	48 b8 20 63 6f 6e 6e 	movabs $0x7463656e6e6f6320,%rax
  4034cd:	65 63 74 
  4034d0:	48 ba 20 74 6f 20 73 	movabs $0x76726573206f7420,%rdx
  4034d7:	65 72 76 
  4034da:	48 89 45 10          	mov    %rax,0x10(%rbp)
  4034de:	48 89 55 18          	mov    %rdx,0x18(%rbp)
  4034e2:	c7 45 1f 76 65 72 00 	movl   $0x726576,0x1f(%rbp)
  4034e9:	89 df                	mov    %ebx,%edi
  4034eb:	e8 e0 db ff ff       	call   4010d0 <close@plt>
  4034f0:	b8 ff ff ff ff       	mov    $0xffffffff,%eax
  4034f5:	e9 c5 fe ff ff       	jmp    4033bf <init_driver+0xde>
  4034fa:	e8 5e f1 ff ff       	call   40265d <__stack_chk_fail>

00000000004034ff <driver_post>:
  4034ff:	f3 0f 1e fa          	endbr64
  403503:	53                   	push   %rbx
  403504:	4c 89 cb             	mov    %r9,%rbx
  403507:	45 85 c0             	test   %r8d,%r8d
  40350a:	75 18                	jne    403524 <driver_post+0x25>
  40350c:	48 85 ff             	test   %rdi,%rdi
  40350f:	74 05                	je     403516 <driver_post+0x17>
  403511:	80 3f 00             	cmpb   $0x0,(%rdi)
  403514:	75 37                	jne    40354d <driver_post+0x4e>
  403516:	66 c7 03 4f 4b       	movw   $0x4b4f,(%rbx)
  40351b:	c6 43 02 00          	movb   $0x0,0x2(%rbx)
  40351f:	44 89 c0             	mov    %r8d,%eax
  403522:	5b                   	pop    %rbx
  403523:	c3                   	ret
  403524:	48 89 ca             	mov    %rcx,%rdx
  403527:	48 8d 35 5b 12 00 00 	lea    0x125b(%rip),%rsi        # 404789 <_IO_stdin_used+0x789>
  40352e:	bf 02 00 00 00       	mov    $0x2,%edi
  403533:	b8 00 00 00 00       	mov    $0x0,%eax
  403538:	e8 53 dc ff ff       	call   401190 <__printf_chk@plt>
  40353d:	66 c7 03 4f 4b       	movw   $0x4b4f,(%rbx)
  403542:	c6 43 02 00          	movb   $0x0,0x2(%rbx)
  403546:	b8 00 00 00 00       	mov    $0x0,%eax
  40354b:	eb d5                	jmp    403522 <driver_post+0x23>
  40354d:	48 83 ec 08          	sub    $0x8,%rsp
  403551:	41 51                	push   %r9
  403553:	49 89 c9             	mov    %rcx,%r9
  403556:	49 89 d0             	mov    %rdx,%r8
  403559:	48 89 f9             	mov    %rdi,%rcx
  40355c:	48 89 f2             	mov    %rsi,%rdx
  40355f:	be 50 00 00 00       	mov    $0x50,%esi
  403564:	48 8d 3d 0f 12 00 00 	lea    0x120f(%rip),%rdi        # 40477a <_IO_stdin_used+0x77a>
  40356b:	e8 f4 f5 ff ff       	call   402b64 <submitr>
  403570:	48 83 c4 10          	add    $0x10,%rsp
  403574:	eb ac                	jmp    403522 <driver_post+0x23>

0000000000403576 <check>:
  403576:	f3 0f 1e fa          	endbr64
  40357a:	89 f8                	mov    %edi,%eax
  40357c:	c1 e8 1c             	shr    $0x1c,%eax
  40357f:	74 1d                	je     40359e <check+0x28>
  403581:	b9 00 00 00 00       	mov    $0x0,%ecx
  403586:	83 f9 1f             	cmp    $0x1f,%ecx
  403589:	7f 0d                	jg     403598 <check+0x22>
  40358b:	89 f8                	mov    %edi,%eax
  40358d:	d3 e8                	shr    %cl,%eax
  40358f:	3c 0a                	cmp    $0xa,%al
  403591:	74 11                	je     4035a4 <check+0x2e>
  403593:	83 c1 08             	add    $0x8,%ecx
  403596:	eb ee                	jmp    403586 <check+0x10>
  403598:	b8 01 00 00 00       	mov    $0x1,%eax
  40359d:	c3                   	ret
  40359e:	b8 00 00 00 00       	mov    $0x0,%eax
  4035a3:	c3                   	ret
  4035a4:	b8 00 00 00 00       	mov    $0x0,%eax
  4035a9:	c3                   	ret

00000000004035aa <gencookie>:
  4035aa:	f3 0f 1e fa          	endbr64
  4035ae:	53                   	push   %rbx
  4035af:	83 c7 01             	add    $0x1,%edi
  4035b2:	e8 89 da ff ff       	call   401040 <srandom@plt>
  4035b7:	e8 a4 db ff ff       	call   401160 <random@plt>
  4035bc:	89 c3                	mov    %eax,%ebx
  4035be:	89 c7                	mov    %eax,%edi
  4035c0:	e8 b1 ff ff ff       	call   403576 <check>
  4035c5:	85 c0                	test   %eax,%eax
  4035c7:	74 ee                	je     4035b7 <gencookie+0xd>
  4035c9:	89 d8                	mov    %ebx,%eax
  4035cb:	5b                   	pop    %rbx
  4035cc:	c3                   	ret

Disassembly of section .fini:

00000000004035d0 <_fini>:
  4035d0:	f3 0f 1e fa          	endbr64
  4035d4:	48 83 ec 08          	sub    $0x8,%rsp
  4035d8:	48 83 c4 08          	add    $0x8,%rsp
  4035dc:	c3                   	ret
