
bomb:     file format elf64-x86-64


Disassembly of section .init:

0000000000001000 <_init>:
    1000:	f3 0f 1e fa          	endbr64 
    1004:	48 83 ec 08          	sub    $0x8,%rsp
    1008:	48 8b 05 d9 5f 00 00 	mov    0x5fd9(%rip),%rax        # 6fe8 <__gmon_start__@Base>
    100f:	48 85 c0             	test   %rax,%rax
    1012:	74 02                	je     1016 <_init+0x16>
    1014:	ff d0                	call   *%rax
    1016:	48 83 c4 08          	add    $0x8,%rsp
    101a:	c3                   	ret    

Disassembly of section .plt:

0000000000001020 <.plt>:
    1020:	ff 35 b2 5e 00 00    	push   0x5eb2(%rip)        # 6ed8 <_GLOBAL_OFFSET_TABLE_+0x8>
    1026:	f2 ff 25 b3 5e 00 00 	bnd jmp *0x5eb3(%rip)        # 6ee0 <_GLOBAL_OFFSET_TABLE_+0x10>
    102d:	0f 1f 00             	nopl   (%rax)
    1030:	f3 0f 1e fa          	endbr64 
    1034:	68 00 00 00 00       	push   $0x0
    1039:	f2 e9 e1 ff ff ff    	bnd jmp 1020 <_init+0x20>
    103f:	90                   	nop
    1040:	f3 0f 1e fa          	endbr64 
    1044:	68 01 00 00 00       	push   $0x1
    1049:	f2 e9 d1 ff ff ff    	bnd jmp 1020 <_init+0x20>
    104f:	90                   	nop
    1050:	f3 0f 1e fa          	endbr64 
    1054:	68 02 00 00 00       	push   $0x2
    1059:	f2 e9 c1 ff ff ff    	bnd jmp 1020 <_init+0x20>
    105f:	90                   	nop
    1060:	f3 0f 1e fa          	endbr64 
    1064:	68 03 00 00 00       	push   $0x3
    1069:	f2 e9 b1 ff ff ff    	bnd jmp 1020 <_init+0x20>
    106f:	90                   	nop
    1070:	f3 0f 1e fa          	endbr64 
    1074:	68 04 00 00 00       	push   $0x4
    1079:	f2 e9 a1 ff ff ff    	bnd jmp 1020 <_init+0x20>
    107f:	90                   	nop
    1080:	f3 0f 1e fa          	endbr64 
    1084:	68 05 00 00 00       	push   $0x5
    1089:	f2 e9 91 ff ff ff    	bnd jmp 1020 <_init+0x20>
    108f:	90                   	nop
    1090:	f3 0f 1e fa          	endbr64 
    1094:	68 06 00 00 00       	push   $0x6
    1099:	f2 e9 81 ff ff ff    	bnd jmp 1020 <_init+0x20>
    109f:	90                   	nop
    10a0:	f3 0f 1e fa          	endbr64 
    10a4:	68 07 00 00 00       	push   $0x7
    10a9:	f2 e9 71 ff ff ff    	bnd jmp 1020 <_init+0x20>
    10af:	90                   	nop
    10b0:	f3 0f 1e fa          	endbr64 
    10b4:	68 08 00 00 00       	push   $0x8
    10b9:	f2 e9 61 ff ff ff    	bnd jmp 1020 <_init+0x20>
    10bf:	90                   	nop
    10c0:	f3 0f 1e fa          	endbr64 
    10c4:	68 09 00 00 00       	push   $0x9
    10c9:	f2 e9 51 ff ff ff    	bnd jmp 1020 <_init+0x20>
    10cf:	90                   	nop
    10d0:	f3 0f 1e fa          	endbr64 
    10d4:	68 0a 00 00 00       	push   $0xa
    10d9:	f2 e9 41 ff ff ff    	bnd jmp 1020 <_init+0x20>
    10df:	90                   	nop
    10e0:	f3 0f 1e fa          	endbr64 
    10e4:	68 0b 00 00 00       	push   $0xb
    10e9:	f2 e9 31 ff ff ff    	bnd jmp 1020 <_init+0x20>
    10ef:	90                   	nop
    10f0:	f3 0f 1e fa          	endbr64 
    10f4:	68 0c 00 00 00       	push   $0xc
    10f9:	f2 e9 21 ff ff ff    	bnd jmp 1020 <_init+0x20>
    10ff:	90                   	nop
    1100:	f3 0f 1e fa          	endbr64 
    1104:	68 0d 00 00 00       	push   $0xd
    1109:	f2 e9 11 ff ff ff    	bnd jmp 1020 <_init+0x20>
    110f:	90                   	nop
    1110:	f3 0f 1e fa          	endbr64 
    1114:	68 0e 00 00 00       	push   $0xe
    1119:	f2 e9 01 ff ff ff    	bnd jmp 1020 <_init+0x20>
    111f:	90                   	nop
    1120:	f3 0f 1e fa          	endbr64 
    1124:	68 0f 00 00 00       	push   $0xf
    1129:	f2 e9 f1 fe ff ff    	bnd jmp 1020 <_init+0x20>
    112f:	90                   	nop
    1130:	f3 0f 1e fa          	endbr64 
    1134:	68 10 00 00 00       	push   $0x10
    1139:	f2 e9 e1 fe ff ff    	bnd jmp 1020 <_init+0x20>
    113f:	90                   	nop
    1140:	f3 0f 1e fa          	endbr64 
    1144:	68 11 00 00 00       	push   $0x11
    1149:	f2 e9 d1 fe ff ff    	bnd jmp 1020 <_init+0x20>
    114f:	90                   	nop
    1150:	f3 0f 1e fa          	endbr64 
    1154:	68 12 00 00 00       	push   $0x12
    1159:	f2 e9 c1 fe ff ff    	bnd jmp 1020 <_init+0x20>
    115f:	90                   	nop
    1160:	f3 0f 1e fa          	endbr64 
    1164:	68 13 00 00 00       	push   $0x13
    1169:	f2 e9 b1 fe ff ff    	bnd jmp 1020 <_init+0x20>
    116f:	90                   	nop
    1170:	f3 0f 1e fa          	endbr64 
    1174:	68 14 00 00 00       	push   $0x14
    1179:	f2 e9 a1 fe ff ff    	bnd jmp 1020 <_init+0x20>
    117f:	90                   	nop
    1180:	f3 0f 1e fa          	endbr64 
    1184:	68 15 00 00 00       	push   $0x15
    1189:	f2 e9 91 fe ff ff    	bnd jmp 1020 <_init+0x20>
    118f:	90                   	nop
    1190:	f3 0f 1e fa          	endbr64 
    1194:	68 16 00 00 00       	push   $0x16
    1199:	f2 e9 81 fe ff ff    	bnd jmp 1020 <_init+0x20>
    119f:	90                   	nop
    11a0:	f3 0f 1e fa          	endbr64 
    11a4:	68 17 00 00 00       	push   $0x17
    11a9:	f2 e9 71 fe ff ff    	bnd jmp 1020 <_init+0x20>
    11af:	90                   	nop
    11b0:	f3 0f 1e fa          	endbr64 
    11b4:	68 18 00 00 00       	push   $0x18
    11b9:	f2 e9 61 fe ff ff    	bnd jmp 1020 <_init+0x20>
    11bf:	90                   	nop
    11c0:	f3 0f 1e fa          	endbr64 
    11c4:	68 19 00 00 00       	push   $0x19
    11c9:	f2 e9 51 fe ff ff    	bnd jmp 1020 <_init+0x20>
    11cf:	90                   	nop
    11d0:	f3 0f 1e fa          	endbr64 
    11d4:	68 1a 00 00 00       	push   $0x1a
    11d9:	f2 e9 41 fe ff ff    	bnd jmp 1020 <_init+0x20>
    11df:	90                   	nop
    11e0:	f3 0f 1e fa          	endbr64 
    11e4:	68 1b 00 00 00       	push   $0x1b
    11e9:	f2 e9 31 fe ff ff    	bnd jmp 1020 <_init+0x20>
    11ef:	90                   	nop
    11f0:	f3 0f 1e fa          	endbr64 
    11f4:	68 1c 00 00 00       	push   $0x1c
    11f9:	f2 e9 21 fe ff ff    	bnd jmp 1020 <_init+0x20>
    11ff:	90                   	nop
    1200:	f3 0f 1e fa          	endbr64 
    1204:	68 1d 00 00 00       	push   $0x1d
    1209:	f2 e9 11 fe ff ff    	bnd jmp 1020 <_init+0x20>
    120f:	90                   	nop

Disassembly of section .plt.got:

0000000000001210 <__cxa_finalize@plt>:
    1210:	f3 0f 1e fa          	endbr64 
    1214:	f2 ff 25 dd 5d 00 00 	bnd jmp *0x5ddd(%rip)        # 6ff8 <__cxa_finalize@GLIBC_2.2.5>
    121b:	0f 1f 44 00 00       	nopl   0x0(%rax,%rax,1)

Disassembly of section .plt.sec:

0000000000001220 <getenv@plt>:
    1220:	f3 0f 1e fa          	endbr64 
    1224:	f2 ff 25 bd 5c 00 00 	bnd jmp *0x5cbd(%rip)        # 6ee8 <getenv@GLIBC_2.2.5>
    122b:	0f 1f 44 00 00       	nopl   0x0(%rax,%rax,1)

0000000000001230 <free@plt>:
    1230:	f3 0f 1e fa          	endbr64 
    1234:	f2 ff 25 b5 5c 00 00 	bnd jmp *0x5cb5(%rip)        # 6ef0 <free@GLIBC_2.2.5>
    123b:	0f 1f 44 00 00       	nopl   0x0(%rax,%rax,1)

0000000000001240 <__errno_location@plt>:
    1240:	f3 0f 1e fa          	endbr64 
    1244:	f2 ff 25 ad 5c 00 00 	bnd jmp *0x5cad(%rip)        # 6ef8 <__errno_location@GLIBC_2.2.5>
    124b:	0f 1f 44 00 00       	nopl   0x0(%rax,%rax,1)

0000000000001250 <strcpy@plt>:
    1250:	f3 0f 1e fa          	endbr64 
    1254:	f2 ff 25 a5 5c 00 00 	bnd jmp *0x5ca5(%rip)        # 6f00 <strcpy@GLIBC_2.2.5>
    125b:	0f 1f 44 00 00       	nopl   0x0(%rax,%rax,1)

0000000000001260 <__read_chk@plt>:
    1260:	f3 0f 1e fa          	endbr64 
    1264:	f2 ff 25 9d 5c 00 00 	bnd jmp *0x5c9d(%rip)        # 6f08 <__read_chk@GLIBC_2.4>
    126b:	0f 1f 44 00 00       	nopl   0x0(%rax,%rax,1)

0000000000001270 <puts@plt>:
    1270:	f3 0f 1e fa          	endbr64 
    1274:	f2 ff 25 95 5c 00 00 	bnd jmp *0x5c95(%rip)        # 6f10 <puts@GLIBC_2.2.5>
    127b:	0f 1f 44 00 00       	nopl   0x0(%rax,%rax,1)

0000000000001280 <write@plt>:
    1280:	f3 0f 1e fa          	endbr64 
    1284:	f2 ff 25 8d 5c 00 00 	bnd jmp *0x5c8d(%rip)        # 6f18 <write@GLIBC_2.2.5>
    128b:	0f 1f 44 00 00       	nopl   0x0(%rax,%rax,1)

0000000000001290 <strlen@plt>:
    1290:	f3 0f 1e fa          	endbr64 
    1294:	f2 ff 25 85 5c 00 00 	bnd jmp *0x5c85(%rip)        # 6f20 <strlen@GLIBC_2.2.5>
    129b:	0f 1f 44 00 00       	nopl   0x0(%rax,%rax,1)

00000000000012a0 <__stack_chk_fail@plt>:
    12a0:	f3 0f 1e fa          	endbr64 
    12a4:	f2 ff 25 7d 5c 00 00 	bnd jmp *0x5c7d(%rip)        # 6f28 <__stack_chk_fail@GLIBC_2.4>
    12ab:	0f 1f 44 00 00       	nopl   0x0(%rax,%rax,1)

00000000000012b0 <alarm@plt>:
    12b0:	f3 0f 1e fa          	endbr64 
    12b4:	f2 ff 25 75 5c 00 00 	bnd jmp *0x5c75(%rip)        # 6f30 <alarm@GLIBC_2.2.5>
    12bb:	0f 1f 44 00 00       	nopl   0x0(%rax,%rax,1)

00000000000012c0 <close@plt>:
    12c0:	f3 0f 1e fa          	endbr64 
    12c4:	f2 ff 25 6d 5c 00 00 	bnd jmp *0x5c6d(%rip)        # 6f38 <close@GLIBC_2.2.5>
    12cb:	0f 1f 44 00 00       	nopl   0x0(%rax,%rax,1)

00000000000012d0 <strcmp@plt>:
    12d0:	f3 0f 1e fa          	endbr64 
    12d4:	f2 ff 25 65 5c 00 00 	bnd jmp *0x5c65(%rip)        # 6f40 <strcmp@GLIBC_2.2.5>
    12db:	0f 1f 44 00 00       	nopl   0x0(%rax,%rax,1)

00000000000012e0 <signal@plt>:
    12e0:	f3 0f 1e fa          	endbr64 
    12e4:	f2 ff 25 5d 5c 00 00 	bnd jmp *0x5c5d(%rip)        # 6f48 <signal@GLIBC_2.2.5>
    12eb:	0f 1f 44 00 00       	nopl   0x0(%rax,%rax,1)

00000000000012f0 <gethostbyname@plt>:
    12f0:	f3 0f 1e fa          	endbr64 
    12f4:	f2 ff 25 55 5c 00 00 	bnd jmp *0x5c55(%rip)        # 6f50 <gethostbyname@GLIBC_2.2.5>
    12fb:	0f 1f 44 00 00       	nopl   0x0(%rax,%rax,1)

0000000000001300 <__memmove_chk@plt>:
    1300:	f3 0f 1e fa          	endbr64 
    1304:	f2 ff 25 4d 5c 00 00 	bnd jmp *0x5c4d(%rip)        # 6f58 <__memmove_chk@GLIBC_2.3.4>
    130b:	0f 1f 44 00 00       	nopl   0x0(%rax,%rax,1)

0000000000001310 <memcpy@plt>:
    1310:	f3 0f 1e fa          	endbr64 
    1314:	f2 ff 25 45 5c 00 00 	bnd jmp *0x5c45(%rip)        # 6f60 <memcpy@GLIBC_2.14>
    131b:	0f 1f 44 00 00       	nopl   0x0(%rax,%rax,1)

0000000000001320 <malloc@plt>:
    1320:	f3 0f 1e fa          	endbr64 
    1324:	f2 ff 25 3d 5c 00 00 	bnd jmp *0x5c3d(%rip)        # 6f68 <malloc@GLIBC_2.2.5>
    132b:	0f 1f 44 00 00       	nopl   0x0(%rax,%rax,1)

0000000000001330 <fflush@plt>:
    1330:	f3 0f 1e fa          	endbr64 
    1334:	f2 ff 25 35 5c 00 00 	bnd jmp *0x5c35(%rip)        # 6f70 <fflush@GLIBC_2.2.5>
    133b:	0f 1f 44 00 00       	nopl   0x0(%rax,%rax,1)

0000000000001340 <__isoc99_sscanf@plt>:
    1340:	f3 0f 1e fa          	endbr64 
    1344:	f2 ff 25 2d 5c 00 00 	bnd jmp *0x5c2d(%rip)        # 6f78 <__isoc99_sscanf@GLIBC_2.7>
    134b:	0f 1f 44 00 00       	nopl   0x0(%rax,%rax,1)

0000000000001350 <__fgets_chk@plt>:
    1350:	f3 0f 1e fa          	endbr64 
    1354:	f2 ff 25 25 5c 00 00 	bnd jmp *0x5c25(%rip)        # 6f80 <__fgets_chk@GLIBC_2.4>
    135b:	0f 1f 44 00 00       	nopl   0x0(%rax,%rax,1)

0000000000001360 <__printf_chk@plt>:
    1360:	f3 0f 1e fa          	endbr64 
    1364:	f2 ff 25 1d 5c 00 00 	bnd jmp *0x5c1d(%rip)        # 6f88 <__printf_chk@GLIBC_2.3.4>
    136b:	0f 1f 44 00 00       	nopl   0x0(%rax,%rax,1)

0000000000001370 <fopen@plt>:
    1370:	f3 0f 1e fa          	endbr64 
    1374:	f2 ff 25 15 5c 00 00 	bnd jmp *0x5c15(%rip)        # 6f90 <fopen@GLIBC_2.2.5>
    137b:	0f 1f 44 00 00       	nopl   0x0(%rax,%rax,1)

0000000000001380 <gethostname@plt>:
    1380:	f3 0f 1e fa          	endbr64 
    1384:	f2 ff 25 0d 5c 00 00 	bnd jmp *0x5c0d(%rip)        # 6f98 <gethostname@GLIBC_2.2.5>
    138b:	0f 1f 44 00 00       	nopl   0x0(%rax,%rax,1)

0000000000001390 <exit@plt>:
    1390:	f3 0f 1e fa          	endbr64 
    1394:	f2 ff 25 05 5c 00 00 	bnd jmp *0x5c05(%rip)        # 6fa0 <exit@GLIBC_2.2.5>
    139b:	0f 1f 44 00 00       	nopl   0x0(%rax,%rax,1)

00000000000013a0 <connect@plt>:
    13a0:	f3 0f 1e fa          	endbr64 
    13a4:	f2 ff 25 fd 5b 00 00 	bnd jmp *0x5bfd(%rip)        # 6fa8 <connect@GLIBC_2.2.5>
    13ab:	0f 1f 44 00 00       	nopl   0x0(%rax,%rax,1)

00000000000013b0 <__fprintf_chk@plt>:
    13b0:	f3 0f 1e fa          	endbr64 
    13b4:	f2 ff 25 f5 5b 00 00 	bnd jmp *0x5bf5(%rip)        # 6fb0 <__fprintf_chk@GLIBC_2.3.4>
    13bb:	0f 1f 44 00 00       	nopl   0x0(%rax,%rax,1)

00000000000013c0 <sleep@plt>:
    13c0:	f3 0f 1e fa          	endbr64 
    13c4:	f2 ff 25 ed 5b 00 00 	bnd jmp *0x5bed(%rip)        # 6fb8 <sleep@GLIBC_2.2.5>
    13cb:	0f 1f 44 00 00       	nopl   0x0(%rax,%rax,1)

00000000000013d0 <__ctype_b_loc@plt>:
    13d0:	f3 0f 1e fa          	endbr64 
    13d4:	f2 ff 25 e5 5b 00 00 	bnd jmp *0x5be5(%rip)        # 6fc0 <__ctype_b_loc@GLIBC_2.3>
    13db:	0f 1f 44 00 00       	nopl   0x0(%rax,%rax,1)

00000000000013e0 <__sprintf_chk@plt>:
    13e0:	f3 0f 1e fa          	endbr64 
    13e4:	f2 ff 25 dd 5b 00 00 	bnd jmp *0x5bdd(%rip)        # 6fc8 <__sprintf_chk@GLIBC_2.3.4>
    13eb:	0f 1f 44 00 00       	nopl   0x0(%rax,%rax,1)

00000000000013f0 <socket@plt>:
    13f0:	f3 0f 1e fa          	endbr64 
    13f4:	f2 ff 25 d5 5b 00 00 	bnd jmp *0x5bd5(%rip)        # 6fd0 <socket@GLIBC_2.2.5>
    13fb:	0f 1f 44 00 00       	nopl   0x0(%rax,%rax,1)

Disassembly of section .text:

0000000000001400 <_start>:
    1400:	f3 0f 1e fa          	endbr64 
    1404:	31 ed                	xor    %ebp,%ebp
    1406:	49 89 d1             	mov    %rdx,%r9
    1409:	5e                   	pop    %rsi
    140a:	48 89 e2             	mov    %rsp,%rdx
    140d:	48 83 e4 f0          	and    $0xfffffffffffffff0,%rsp
    1411:	50                   	push   %rax
    1412:	54                   	push   %rsp
    1413:	45 31 c0             	xor    %r8d,%r8d
    1416:	31 c9                	xor    %ecx,%ecx
    1418:	48 8d 3d ca 00 00 00 	lea    0xca(%rip),%rdi        # 14e9 <main>
    141f:	ff 15 b3 5b 00 00    	call   *0x5bb3(%rip)        # 6fd8 <__libc_start_main@GLIBC_2.34>
    1425:	f4                   	hlt    
    1426:	66 2e 0f 1f 84 00 00 	cs nopw 0x0(%rax,%rax,1)
    142d:	00 00 00 

0000000000001430 <deregister_tm_clones>:
    1430:	48 8d 3d 29 70 00 00 	lea    0x7029(%rip),%rdi        # 8460 <stdout@GLIBC_2.2.5>
    1437:	48 8d 05 22 70 00 00 	lea    0x7022(%rip),%rax        # 8460 <stdout@GLIBC_2.2.5>
    143e:	48 39 f8             	cmp    %rdi,%rax
    1441:	74 15                	je     1458 <deregister_tm_clones+0x28>
    1443:	48 8b 05 96 5b 00 00 	mov    0x5b96(%rip),%rax        # 6fe0 <_ITM_deregisterTMCloneTable@Base>
    144a:	48 85 c0             	test   %rax,%rax
    144d:	74 09                	je     1458 <deregister_tm_clones+0x28>
    144f:	ff e0                	jmp    *%rax
    1451:	0f 1f 80 00 00 00 00 	nopl   0x0(%rax)
    1458:	c3                   	ret    
    1459:	0f 1f 80 00 00 00 00 	nopl   0x0(%rax)

0000000000001460 <register_tm_clones>:
    1460:	48 8d 3d f9 6f 00 00 	lea    0x6ff9(%rip),%rdi        # 8460 <stdout@GLIBC_2.2.5>
    1467:	48 8d 35 f2 6f 00 00 	lea    0x6ff2(%rip),%rsi        # 8460 <stdout@GLIBC_2.2.5>
    146e:	48 29 fe             	sub    %rdi,%rsi
    1471:	48 89 f0             	mov    %rsi,%rax
    1474:	48 c1 ee 3f          	shr    $0x3f,%rsi
    1478:	48 c1 f8 03          	sar    $0x3,%rax
    147c:	48 01 c6             	add    %rax,%rsi
    147f:	48 d1 fe             	sar    %rsi
    1482:	74 14                	je     1498 <register_tm_clones+0x38>
    1484:	48 8b 05 65 5b 00 00 	mov    0x5b65(%rip),%rax        # 6ff0 <_ITM_registerTMCloneTable@Base>
    148b:	48 85 c0             	test   %rax,%rax
    148e:	74 08                	je     1498 <register_tm_clones+0x38>
    1490:	ff e0                	jmp    *%rax
    1492:	66 0f 1f 44 00 00    	nopw   0x0(%rax,%rax,1)
    1498:	c3                   	ret    
    1499:	0f 1f 80 00 00 00 00 	nopl   0x0(%rax)

00000000000014a0 <__do_global_dtors_aux>:
    14a0:	f3 0f 1e fa          	endbr64 
    14a4:	80 3d dd 6f 00 00 00 	cmpb   $0x0,0x6fdd(%rip)        # 8488 <completed.0>
    14ab:	75 2b                	jne    14d8 <__do_global_dtors_aux+0x38>
    14ad:	55                   	push   %rbp
    14ae:	48 83 3d 42 5b 00 00 	cmpq   $0x0,0x5b42(%rip)        # 6ff8 <__cxa_finalize@GLIBC_2.2.5>
    14b5:	00 
    14b6:	48 89 e5             	mov    %rsp,%rbp
    14b9:	74 0c                	je     14c7 <__do_global_dtors_aux+0x27>
    14bb:	48 8b 3d 46 5b 00 00 	mov    0x5b46(%rip),%rdi        # 7008 <__dso_handle>
    14c2:	e8 49 fd ff ff       	call   1210 <__cxa_finalize@plt>
    14c7:	e8 64 ff ff ff       	call   1430 <deregister_tm_clones>
    14cc:	c6 05 b5 6f 00 00 01 	movb   $0x1,0x6fb5(%rip)        # 8488 <completed.0>
    14d3:	5d                   	pop    %rbp
    14d4:	c3                   	ret    
    14d5:	0f 1f 00             	nopl   (%rax)
    14d8:	c3                   	ret    
    14d9:	0f 1f 80 00 00 00 00 	nopl   0x0(%rax)

00000000000014e0 <frame_dummy>:
    14e0:	f3 0f 1e fa          	endbr64 
    14e4:	e9 77 ff ff ff       	jmp    1460 <register_tm_clones>

00000000000014e9 <main>:
    14e9:	f3 0f 1e fa          	endbr64 
    14ed:	53                   	push   %rbx
    14ee:	83 ff 01             	cmp    $0x1,%edi
    14f1:	0f 84 15 01 00 00    	je     160c <main+0x123>
    14f7:	48 89 f3             	mov    %rsi,%rbx
    14fa:	83 ff 02             	cmp    $0x2,%edi
    14fd:	0f 85 3e 01 00 00    	jne    1641 <main+0x158>
    1503:	48 8b 7e 08          	mov    0x8(%rsi),%rdi
    1507:	48 8d 35 d0 31 00 00 	lea    0x31d0(%rip),%rsi        # 46de <transition_table+0x3de>
    150e:	e8 5d fe ff ff       	call   1370 <fopen@plt>
    1513:	48 89 05 76 6f 00 00 	mov    %rax,0x6f76(%rip)        # 8490 <infile>
    151a:	48 85 c0             	test   %rax,%rax
    151d:	0f 84 fc 00 00 00    	je     161f <main+0x136>
    1523:	e8 38 08 00 00       	call   1d60 <initialize_bomb>
    1528:	48 89 c3             	mov    %rax,%rbx
    152b:	48 8d 3d 5e 2b 00 00 	lea    0x2b5e(%rip),%rdi        # 4090 <_IO_stdin_used+0x90>
    1532:	e8 39 fd ff ff       	call   1270 <puts@plt>
    1537:	48 8d 3d 8a 2b 00 00 	lea    0x2b8a(%rip),%rdi        # 40c8 <_IO_stdin_used+0xc8>
    153e:	e8 2d fd ff ff       	call   1270 <puts@plt>
    1543:	e8 a9 0b 00 00       	call   20f1 <read_line>
    1548:	48 89 c7             	mov    %rax,%rdi
    154b:	e8 34 02 00 00       	call   1784 <phase_1>
    1550:	48 89 df             	mov    %rbx,%rdi
    1553:	e8 d7 0c 00 00       	call   222f <phase_defused>
    1558:	48 8d 3d a9 2b 00 00 	lea    0x2ba9(%rip),%rdi        # 4108 <_IO_stdin_used+0x108>
    155f:	e8 0c fd ff ff       	call   1270 <puts@plt>
    1564:	e8 88 0b 00 00       	call   20f1 <read_line>
    1569:	48 89 c7             	mov    %rax,%rdi
    156c:	e8 37 02 00 00       	call   17a8 <phase_2>
    1571:	48 89 df             	mov    %rbx,%rdi
    1574:	e8 b6 0c 00 00       	call   222f <phase_defused>
    1579:	48 8d 3d bb 2a 00 00 	lea    0x2abb(%rip),%rdi        # 403b <_IO_stdin_used+0x3b>
    1580:	e8 eb fc ff ff       	call   1270 <puts@plt>
    1585:	e8 67 0b 00 00       	call   20f1 <read_line>
    158a:	48 89 c7             	mov    %rax,%rdi
    158d:	e8 93 02 00 00       	call   1825 <phase_3>
    1592:	48 89 df             	mov    %rbx,%rdi
    1595:	e8 95 0c 00 00       	call   222f <phase_defused>
    159a:	48 8d 3d b7 2a 00 00 	lea    0x2ab7(%rip),%rdi        # 4058 <_IO_stdin_used+0x58>
    15a1:	e8 ca fc ff ff       	call   1270 <puts@plt>
    15a6:	e8 46 0b 00 00       	call   20f1 <read_line>
    15ab:	48 89 c7             	mov    %rax,%rdi
    15ae:	e8 96 03 00 00       	call   1949 <phase_4>
    15b3:	48 89 df             	mov    %rbx,%rdi
    15b6:	e8 74 0c 00 00       	call   222f <phase_defused>
    15bb:	48 8d 3d 76 2b 00 00 	lea    0x2b76(%rip),%rdi        # 4138 <_IO_stdin_used+0x138>
    15c2:	e8 a9 fc ff ff       	call   1270 <puts@plt>
    15c7:	e8 25 0b 00 00       	call   20f1 <read_line>
    15cc:	48 89 c7             	mov    %rax,%rdi
    15cf:	e8 f4 03 00 00       	call   19c8 <phase_5>
    15d4:	48 89 df             	mov    %rbx,%rdi
    15d7:	e8 53 0c 00 00       	call   222f <phase_defused>
    15dc:	48 8d 3d 8e 2a 00 00 	lea    0x2a8e(%rip),%rdi        # 4071 <_IO_stdin_used+0x71>
    15e3:	e8 88 fc ff ff       	call   1270 <puts@plt>
    15e8:	e8 04 0b 00 00       	call   20f1 <read_line>
    15ed:	48 89 c7             	mov    %rax,%rdi
    15f0:	e8 26 04 00 00       	call   1a1b <phase_6>
    15f5:	48 89 df             	mov    %rbx,%rdi
    15f8:	e8 32 0c 00 00       	call   222f <phase_defused>
    15fd:	48 89 df             	mov    %rbx,%rdi
    1600:	e8 2b fc ff ff       	call   1230 <free@plt>
    1605:	b8 00 00 00 00       	mov    $0x0,%eax
    160a:	5b                   	pop    %rbx
    160b:	c3                   	ret    
    160c:	48 8b 05 5d 6e 00 00 	mov    0x6e5d(%rip),%rax        # 8470 <stdin@GLIBC_2.2.5>
    1613:	48 89 05 76 6e 00 00 	mov    %rax,0x6e76(%rip)        # 8490 <infile>
    161a:	e9 04 ff ff ff       	jmp    1523 <main+0x3a>
    161f:	48 8b 4b 08          	mov    0x8(%rbx),%rcx
    1623:	48 8b 13             	mov    (%rbx),%rdx
    1626:	48 8d 35 d7 29 00 00 	lea    0x29d7(%rip),%rsi        # 4004 <_IO_stdin_used+0x4>
    162d:	bf 01 00 00 00       	mov    $0x1,%edi
    1632:	e8 29 fd ff ff       	call   1360 <__printf_chk@plt>
    1637:	bf 08 00 00 00       	mov    $0x8,%edi
    163c:	e8 4f fd ff ff       	call   1390 <exit@plt>
    1641:	48 8b 16             	mov    (%rsi),%rdx
    1644:	48 8d 35 d6 29 00 00 	lea    0x29d6(%rip),%rsi        # 4021 <_IO_stdin_used+0x21>
    164b:	bf 01 00 00 00       	mov    $0x1,%edi
    1650:	b8 00 00 00 00       	mov    $0x0,%eax
    1655:	e8 06 fd ff ff       	call   1360 <__printf_chk@plt>
    165a:	bf 08 00 00 00       	mov    $0x8,%edi
    165f:	e8 2c fd ff ff       	call   1390 <exit@plt>

0000000000001664 <abracadabra>:
    1664:	f3 0f 1e fa          	endbr64 
    1668:	48 81 ec 98 00 00 00 	sub    $0x98,%rsp
    166f:	64 48 8b 04 25 28 00 	mov    %fs:0x28,%rax
    1676:	00 00 
    1678:	48 89 84 24 88 00 00 	mov    %rax,0x88(%rsp)
    167f:	00 
    1680:	31 c0                	xor    %eax,%eax
    1682:	48 8d 4c 24 0c       	lea    0xc(%rsp),%rcx
    1687:	48 8d 54 24 08       	lea    0x8(%rsp),%rdx
    168c:	4c 8d 44 24 10       	lea    0x10(%rsp),%r8
    1691:	48 8d 35 c3 2a 00 00 	lea    0x2ac3(%rip),%rsi        # 415b <_IO_stdin_used+0x15b>
    1698:	48 8d 3d e9 6f 00 00 	lea    0x6fe9(%rip),%rdi        # 8688 <input_strings+0x168>
    169f:	e8 9c fc ff ff       	call   1340 <__isoc99_sscanf@plt>
    16a4:	83 f8 03             	cmp    $0x3,%eax
    16a7:	74 20                	je     16c9 <abracadabra+0x65>
    16a9:	b8 00 00 00 00       	mov    $0x0,%eax
    16ae:	48 8b 94 24 88 00 00 	mov    0x88(%rsp),%rdx
    16b5:	00 
    16b6:	64 48 2b 14 25 28 00 	sub    %fs:0x28,%rdx
    16bd:	00 00 
    16bf:	75 2b                	jne    16ec <abracadabra+0x88>
    16c1:	48 81 c4 98 00 00 00 	add    $0x98,%rsp
    16c8:	c3                   	ret    
    16c9:	48 8d 7c 24 10       	lea    0x10(%rsp),%rdi
    16ce:	48 8d 35 93 2a 00 00 	lea    0x2a93(%rip),%rsi        # 4168 <_IO_stdin_used+0x168>
    16d5:	e8 37 06 00 00       	call   1d11 <strings_not_equal>
    16da:	85 c0                	test   %eax,%eax
    16dc:	74 07                	je     16e5 <abracadabra+0x81>
    16de:	b8 00 00 00 00       	mov    $0x0,%eax
    16e3:	eb c9                	jmp    16ae <abracadabra+0x4a>
    16e5:	b8 01 00 00 00       	mov    $0x1,%eax
    16ea:	eb c2                	jmp    16ae <abracadabra+0x4a>
    16ec:	e8 af fb ff ff       	call   12a0 <__stack_chk_fail@plt>

00000000000016f1 <alohomora>:
    16f1:	f3 0f 1e fa          	endbr64 
    16f5:	48 81 ec 88 00 00 00 	sub    $0x88,%rsp
    16fc:	64 48 8b 04 25 28 00 	mov    %fs:0x28,%rax
    1703:	00 00 
    1705:	48 89 44 24 78       	mov    %rax,0x78(%rsp)
    170a:	31 c0                	xor    %eax,%eax
    170c:	48 8d 05 85 6e 00 00 	lea    0x6e85(%rip),%rax        # 8598 <input_strings+0x78>
    1713:	eb 04                	jmp    1719 <alohomora+0x28>
    1715:	48 83 c0 01          	add    $0x1,%rax
    1719:	80 38 00             	cmpb   $0x0,(%rax)
    171c:	75 f7                	jne    1715 <alohomora+0x24>
    171e:	48 83 e8 01          	sub    $0x1,%rax
    1722:	48 89 e2             	mov    %rsp,%rdx
    1725:	eb 0a                	jmp    1731 <alohomora+0x40>
    1727:	88 0a                	mov    %cl,(%rdx)
    1729:	48 83 c2 01          	add    $0x1,%rdx
    172d:	48 83 e8 01          	sub    $0x1,%rax
    1731:	0f b6 08             	movzbl (%rax),%ecx
    1734:	80 f9 20             	cmp    $0x20,%cl
    1737:	74 0c                	je     1745 <alohomora+0x54>
    1739:	48 8d 35 58 6e 00 00 	lea    0x6e58(%rip),%rsi        # 8598 <input_strings+0x78>
    1740:	48 39 f0             	cmp    %rsi,%rax
    1743:	75 e2                	jne    1727 <alohomora+0x36>
    1745:	c6 02 00             	movb   $0x0,(%rdx)
    1748:	48 89 e7             	mov    %rsp,%rdi
    174b:	48 8d 35 3e 2a 00 00 	lea    0x2a3e(%rip),%rsi        # 4190 <_IO_stdin_used+0x190>
    1752:	e8 ba 05 00 00       	call   1d11 <strings_not_equal>
    1757:	85 c0                	test   %eax,%eax
    1759:	74 1d                	je     1778 <alohomora+0x87>
    175b:	b8 00 00 00 00       	mov    $0x0,%eax
    1760:	48 8b 54 24 78       	mov    0x78(%rsp),%rdx
    1765:	64 48 2b 14 25 28 00 	sub    %fs:0x28,%rdx
    176c:	00 00 
    176e:	75 0f                	jne    177f <alohomora+0x8e>
    1770:	48 81 c4 88 00 00 00 	add    $0x88,%rsp
    1777:	c3                   	ret    
    1778:	b8 01 00 00 00       	mov    $0x1,%eax
    177d:	eb e1                	jmp    1760 <alohomora+0x6f>
    177f:	e8 1c fb ff ff       	call   12a0 <__stack_chk_fail@plt>

0000000000001784 <phase_1>:
    1784:	f3 0f 1e fa          	endbr64 
    1788:	48 83 ec 08          	sub    $0x8,%rsp
    178c:	48 8d 35 25 2a 00 00 	lea    0x2a25(%rip),%rsi        # 41b8 <_IO_stdin_used+0x1b8>
    1793:	e8 79 05 00 00       	call   1d11 <strings_not_equal>
    1798:	85 c0                	test   %eax,%eax
    179a:	75 05                	jne    17a1 <phase_1+0x1d>
    179c:	48 83 c4 08          	add    $0x8,%rsp
    17a0:	c3                   	ret    
    17a1:	e8 80 08 00 00       	call   2026 <explode_bomb>
    17a6:	eb f4                	jmp    179c <phase_1+0x18>

00000000000017a8 <phase_2>:
    17a8:	f3 0f 1e fa          	endbr64 
    17ac:	53                   	push   %rbx
    17ad:	48 83 ec 20          	sub    $0x20,%rsp
    17b1:	64 48 8b 04 25 28 00 	mov    %fs:0x28,%rax
    17b8:	00 00 
    17ba:	48 89 44 24 18       	mov    %rax,0x18(%rsp)
    17bf:	31 c0                	xor    %eax,%eax
    17c1:	48 89 e6             	mov    %rsp,%rsi
    17c4:	e8 e3 08 00 00       	call   20ac <read_six_numbers>
    17c9:	83 3c 24 00          	cmpl   $0x0,(%rsp)
    17cd:	75 07                	jne    17d6 <phase_2+0x2e>
    17cf:	83 7c 24 04 01       	cmpl   $0x1,0x4(%rsp)
    17d4:	74 05                	je     17db <phase_2+0x33>
    17d6:	e8 4b 08 00 00       	call   2026 <explode_bomb>
    17db:	bb 02 00 00 00       	mov    $0x2,%ebx
    17e0:	eb 03                	jmp    17e5 <phase_2+0x3d>
    17e2:	83 c3 01             	add    $0x1,%ebx
    17e5:	83 fb 05             	cmp    $0x5,%ebx
    17e8:	7f 20                	jg     180a <phase_2+0x62>
    17ea:	48 63 d3             	movslq %ebx,%rdx
    17ed:	8d 4b fe             	lea    -0x2(%rbx),%ecx
    17f0:	48 63 c9             	movslq %ecx,%rcx
    17f3:	8d 43 ff             	lea    -0x1(%rbx),%eax
    17f6:	48 98                	cltq   
    17f8:	8b 04 84             	mov    (%rsp,%rax,4),%eax
    17fb:	03 04 8c             	add    (%rsp,%rcx,4),%eax
    17fe:	39 04 94             	cmp    %eax,(%rsp,%rdx,4)
    1801:	74 df                	je     17e2 <phase_2+0x3a>
    1803:	e8 1e 08 00 00       	call   2026 <explode_bomb>
    1808:	eb d8                	jmp    17e2 <phase_2+0x3a>
    180a:	48 8b 44 24 18       	mov    0x18(%rsp),%rax
    180f:	64 48 2b 04 25 28 00 	sub    %fs:0x28,%rax
    1816:	00 00 
    1818:	75 06                	jne    1820 <phase_2+0x78>
    181a:	48 83 c4 20          	add    $0x20,%rsp
    181e:	5b                   	pop    %rbx
    181f:	c3                   	ret    
    1820:	e8 7b fa ff ff       	call   12a0 <__stack_chk_fail@plt>

0000000000001825 <phase_3>:
    1825:	f3 0f 1e fa          	endbr64 
    1829:	48 83 ec 18          	sub    $0x18,%rsp
    182d:	64 48 8b 04 25 28 00 	mov    %fs:0x28,%rax
    1834:	00 00 
    1836:	48 89 44 24 08       	mov    %rax,0x8(%rsp)
    183b:	31 c0                	xor    %eax,%eax
    183d:	48 8d 4c 24 04       	lea    0x4(%rsp),%rcx
    1842:	48 89 e2             	mov    %rsp,%rdx
    1845:	48 8d 35 f4 2d 00 00 	lea    0x2df4(%rip),%rsi        # 4640 <transition_table+0x340>
    184c:	e8 ef fa ff ff       	call   1340 <__isoc99_sscanf@plt>
    1851:	83 f8 01             	cmp    $0x1,%eax
    1854:	7e 1e                	jle    1874 <phase_3+0x4f>
    1856:	83 3c 24 07          	cmpl   $0x7,(%rsp)
    185a:	0f 87 8d 00 00 00    	ja     18ed <phase_3+0xc8>
    1860:	8b 04 24             	mov    (%rsp),%eax
    1863:	48 8d 15 56 2a 00 00 	lea    0x2a56(%rip),%rdx        # 42c0 <_IO_stdin_used+0x2c0>
    186a:	48 63 04 82          	movslq (%rdx,%rax,4),%rax
    186e:	48 01 d0             	add    %rdx,%rax
    1871:	3e ff e0             	notrack jmp *%rax
    1874:	e8 ad 07 00 00       	call   2026 <explode_bomb>
    1879:	eb db                	jmp    1856 <phase_3+0x31>
    187b:	8b 44 24 04          	mov    0x4(%rsp),%eax
    187f:	05 82 03 00 00       	add    $0x382,%eax
    1884:	3d f2 04 00 00       	cmp    $0x4f2,%eax
    1889:	75 71                	jne    18fc <phase_3+0xd7>
    188b:	48 8b 44 24 08       	mov    0x8(%rsp),%rax
    1890:	64 48 2b 04 25 28 00 	sub    %fs:0x28,%rax
    1897:	00 00 
    1899:	75 68                	jne    1903 <phase_3+0xde>
    189b:	48 83 c4 18          	add    $0x18,%rsp
    189f:	c3                   	ret    
    18a0:	8b 44 24 04          	mov    0x4(%rsp),%eax
    18a4:	05 17 02 00 00       	add    $0x217,%eax
    18a9:	eb d9                	jmp    1884 <phase_3+0x5f>
    18ab:	8b 44 24 04          	mov    0x4(%rsp),%eax
    18af:	05 c6 01 00 00       	add    $0x1c6,%eax
    18b4:	eb ce                	jmp    1884 <phase_3+0x5f>
    18b6:	8b 44 24 04          	mov    0x4(%rsp),%eax
    18ba:	05 e4 00 00 00       	add    $0xe4,%eax
    18bf:	eb c3                	jmp    1884 <phase_3+0x5f>
    18c1:	8b 44 24 04          	mov    0x4(%rsp),%eax
    18c5:	05 ca 00 00 00       	add    $0xca,%eax
    18ca:	eb b8                	jmp    1884 <phase_3+0x5f>
    18cc:	8b 44 24 04          	mov    0x4(%rsp),%eax
    18d0:	05 cb 00 00 00       	add    $0xcb,%eax
    18d5:	eb ad                	jmp    1884 <phase_3+0x5f>
    18d7:	8b 44 24 04          	mov    0x4(%rsp),%eax
    18db:	05 79 02 00 00       	add    $0x279,%eax
    18e0:	eb a2                	jmp    1884 <phase_3+0x5f>
    18e2:	8b 44 24 04          	mov    0x4(%rsp),%eax
    18e6:	05 9b 01 00 00       	add    $0x19b,%eax
    18eb:	eb 97                	jmp    1884 <phase_3+0x5f>
    18ed:	e8 34 07 00 00       	call   2026 <explode_bomb>
    18f2:	bf ff ff ff ff       	mov    $0xffffffff,%edi
    18f7:	e8 94 fa ff ff       	call   1390 <exit@plt>
    18fc:	e8 25 07 00 00       	call   2026 <explode_bomb>
    1901:	eb 88                	jmp    188b <phase_3+0x66>
    1903:	e8 98 f9 ff ff       	call   12a0 <__stack_chk_fail@plt>

0000000000001908 <func4>:
    1908:	f3 0f 1e fa          	endbr64 
    190c:	48 83 ec 08          	sub    $0x8,%rsp
    1910:	89 d1                	mov    %edx,%ecx
    1912:	29 f1                	sub    %esi,%ecx
    1914:	89 c8                	mov    %ecx,%eax
    1916:	c1 e8 1f             	shr    $0x1f,%eax
    1919:	01 c8                	add    %ecx,%eax
    191b:	d1 f8                	sar    %eax
    191d:	01 f0                	add    %esi,%eax
    191f:	39 f8                	cmp    %edi,%eax
    1921:	7f 0c                	jg     192f <func4+0x27>
    1923:	7c 16                	jl     193b <func4+0x33>
    1925:	b8 00 00 00 00       	mov    $0x0,%eax
    192a:	48 83 c4 08          	add    $0x8,%rsp
    192e:	c3                   	ret    
    192f:	8d 50 ff             	lea    -0x1(%rax),%edx
    1932:	e8 d1 ff ff ff       	call   1908 <func4>
    1937:	01 c0                	add    %eax,%eax
    1939:	eb ef                	jmp    192a <func4+0x22>
    193b:	8d 70 01             	lea    0x1(%rax),%esi
    193e:	e8 c5 ff ff ff       	call   1908 <func4>
    1943:	8d 44 00 01          	lea    0x1(%rax,%rax,1),%eax
    1947:	eb e1                	jmp    192a <func4+0x22>

0000000000001949 <phase_4>:
    1949:	f3 0f 1e fa          	endbr64 
    194d:	48 83 ec 18          	sub    $0x18,%rsp
    1951:	64 48 8b 04 25 28 00 	mov    %fs:0x28,%rax
    1958:	00 00 
    195a:	48 89 44 24 08       	mov    %rax,0x8(%rsp)
    195f:	31 c0                	xor    %eax,%eax
    1961:	48 8d 4c 24 04       	lea    0x4(%rsp),%rcx
    1966:	48 89 e2             	mov    %rsp,%rdx
    1969:	48 8d 35 d0 2c 00 00 	lea    0x2cd0(%rip),%rsi        # 4640 <transition_table+0x340>
    1970:	e8 cb f9 ff ff       	call   1340 <__isoc99_sscanf@plt>
    1975:	83 f8 02             	cmp    $0x2,%eax
    1978:	75 0c                	jne    1986 <phase_4+0x3d>
    197a:	8b 04 24             	mov    (%rsp),%eax
    197d:	85 c0                	test   %eax,%eax
    197f:	78 05                	js     1986 <phase_4+0x3d>
    1981:	83 f8 0e             	cmp    $0xe,%eax
    1984:	7e 05                	jle    198b <phase_4+0x42>
    1986:	e8 9b 06 00 00       	call   2026 <explode_bomb>
    198b:	ba 0e 00 00 00       	mov    $0xe,%edx
    1990:	be 00 00 00 00       	mov    $0x0,%esi
    1995:	8b 3c 24             	mov    (%rsp),%edi
    1998:	e8 6b ff ff ff       	call   1908 <func4>
    199d:	83 f8 02             	cmp    $0x2,%eax
    19a0:	75 07                	jne    19a9 <phase_4+0x60>
    19a2:	83 7c 24 04 02       	cmpl   $0x2,0x4(%rsp)
    19a7:	74 05                	je     19ae <phase_4+0x65>
    19a9:	e8 78 06 00 00       	call   2026 <explode_bomb>
    19ae:	48 8b 44 24 08       	mov    0x8(%rsp),%rax
    19b3:	64 48 2b 04 25 28 00 	sub    %fs:0x28,%rax
    19ba:	00 00 
    19bc:	75 05                	jne    19c3 <phase_4+0x7a>
    19be:	48 83 c4 18          	add    $0x18,%rsp
    19c2:	c3                   	ret    
    19c3:	e8 d8 f8 ff ff       	call   12a0 <__stack_chk_fail@plt>

00000000000019c8 <phase_5>:
    19c8:	f3 0f 1e fa          	endbr64 
    19cc:	53                   	push   %rbx
    19cd:	48 89 fb             	mov    %rdi,%rbx
    19d0:	e8 24 03 00 00       	call   1cf9 <string_length>
    19d5:	83 f8 04             	cmp    $0x4,%eax
    19d8:	75 0c                	jne    19e6 <phase_5+0x1e>
    19da:	b9 01 00 00 00       	mov    $0x1,%ecx
    19df:	b8 00 00 00 00       	mov    $0x0,%eax
    19e4:	eb 1f                	jmp    1a05 <phase_5+0x3d>
    19e6:	e8 3b 06 00 00       	call   2026 <explode_bomb>
    19eb:	eb ed                	jmp    19da <phase_5+0x12>
    19ed:	48 63 d0             	movslq %eax,%rdx
    19f0:	0f b6 14 13          	movzbl (%rbx,%rdx,1),%edx
    19f4:	83 e2 07             	and    $0x7,%edx
    19f7:	48 8d 35 e2 28 00 00 	lea    0x28e2(%rip),%rsi        # 42e0 <array.0>
    19fe:	0f af 0c 96          	imul   (%rsi,%rdx,4),%ecx
    1a02:	83 c0 01             	add    $0x1,%eax
    1a05:	83 f8 03             	cmp    $0x3,%eax
    1a08:	7e e3                	jle    19ed <phase_5+0x25>
    1a0a:	81 f9 98 04 00 00    	cmp    $0x498,%ecx
    1a10:	75 02                	jne    1a14 <phase_5+0x4c>
    1a12:	5b                   	pop    %rbx
    1a13:	c3                   	ret    
    1a14:	e8 0d 06 00 00       	call   2026 <explode_bomb>
    1a19:	eb f7                	jmp    1a12 <phase_5+0x4a>

0000000000001a1b <phase_6>:
    1a1b:	f3 0f 1e fa          	endbr64 
    1a1f:	41 54                	push   %r12
    1a21:	55                   	push   %rbp
    1a22:	53                   	push   %rbx
    1a23:	48 83 ec 60          	sub    $0x60,%rsp
    1a27:	64 48 8b 04 25 28 00 	mov    %fs:0x28,%rax
    1a2e:	00 00 
    1a30:	48 89 44 24 58       	mov    %rax,0x58(%rsp)
    1a35:	31 c0                	xor    %eax,%eax
    1a37:	48 89 e6             	mov    %rsp,%rsi
    1a3a:	e8 6d 06 00 00       	call   20ac <read_six_numbers>
# ------------------------------------------------------------------
    1a3f:	bd 00 00 00 00       	mov    $0x0,%ebp
    1a44:	eb 27                	jmp    1a6d <phase_6+0x52>
    1a46:	e8 db 05 00 00       	call   2026 <explode_bomb>
    1a4b:	eb 33                	jmp    1a80 <phase_6+0x65>
    1a4d:	83 c3 01             	add    $0x1,%ebx
    1a50:	83 fb 05             	cmp    $0x5,%ebx
    1a53:	7f 15                	jg     1a6a <phase_6+0x4f>
    1a55:	48 63 c5             	movslq %ebp,%rax
    1a58:	48 63 d3             	movslq %ebx,%rdx
    1a5b:	8b 3c 94             	mov    (%rsp,%rdx,4),%edi
    1a5e:	39 3c 84             	cmp    %edi,(%rsp,%rax,4)
    1a61:	75 ea                	jne    1a4d <phase_6+0x32>
    1a63:	e8 be 05 00 00       	call   2026 <explode_bomb>
    1a68:	eb e3                	jmp    1a4d <phase_6+0x32>
    1a6a:	44 89 e5             	mov    %r12d,%ebp
    1a6d:	83 fd 05             	cmp    $0x5,%ebp
    1a70:	7f 17                	jg     1a89 <phase_6+0x6e>
    1a72:	48 63 c5             	movslq %ebp,%rax
    1a75:	8b 04 84             	mov    (%rsp,%rax,4),%eax
    1a78:	83 e8 01             	sub    $0x1,%eax
    1a7b:	83 f8 05             	cmp    $0x5,%eax
    1a7e:	77 c6                	ja     1a46 <phase_6+0x2b>
    1a80:	44 8d 65 01          	lea    0x1(%rbp),%r12d
    1a84:	44 89 e3             	mov    %r12d,%ebx
    1a87:	eb c7                	jmp    1a50 <phase_6+0x35>
# ------------------------------------------------------------------
    1a89:	be 00 00 00 00       	mov    $0x0,%esi
    1a8e:	eb 17                	jmp    1aa7 <phase_6+0x8c>
    1a90:	48 8b 52 08          	mov    0x8(%rdx),%rdx
    1a94:	83 c0 01             	add    $0x1,%eax
    1a97:	48 63 ce             	movslq %esi,%rcx
    1a9a:	39 04 8c             	cmp    %eax,(%rsp,%rcx,4)
    1a9d:	7f f1                	jg     1a90 <phase_6+0x75>
    1a9f:	48 89 54 cc 20       	mov    %rdx,0x20(%rsp,%rcx,8)
    1aa4:	83 c6 01             	add    $0x1,%esi
    1aa7:	83 fe 05             	cmp    $0x5,%esi
    1aaa:	7f 0e                	jg     1aba <phase_6+0x9f>
    1aac:	b8 01 00 00 00       	mov    $0x1,%eax
    1ab1:	48 8d 15 98 65 00 00 	lea    0x6598(%rip),%rdx        # 8050 <node1>
    1ab8:	eb dd                	jmp    1a97 <phase_6+0x7c>
# ------------------------------------------------------------------
    1aba:	48 8b 5c 24 20       	mov    0x20(%rsp),%rbx
    1abf:	48 89 d9             	mov    %rbx,%rcx
    1ac2:	b8 01 00 00 00       	mov    $0x1,%eax
# ------------------------------------------------------------------
    1ac7:	eb 12                	jmp    1adb <phase_6+0xc0>
    1ac9:	48 63 d0             	movslq %eax,%rdx
    1acc:	48 8b 54 d4 20       	mov    0x20(%rsp,%rdx,8),%rdx
    1ad1:	48 89 51 08          	mov    %rdx,0x8(%rcx)
    1ad5:	83 c0 01             	add    $0x1,%eax
    1ad8:	48 89 d1             	mov    %rdx,%rcx
    1adb:	83 f8 05             	cmp    $0x5,%eax
    1ade:	7e e9                	jle    1ac9 <phase_6+0xae>
# ------------------------------------------------------------------
    1ae0:	48 c7 41 08 00 00 00 	movq   $0x0,0x8(%rcx)
    1ae7:	00 
    1ae8:	bd 00 00 00 00       	mov    $0x0,%ebp
# ------------------------------------------------------------------
    1aed:	eb 07                	jmp    1af6 <phase_6+0xdb>
    1aef:	48 8b 5b 08          	mov    0x8(%rbx),%rbx
    1af3:	83 c5 01             	add    $0x1,%ebp
    1af6:	83 fd 04             	cmp    $0x4,%ebp
    1af9:	7f 11                	jg     1b0c <phase_6+0xf1>
    1afb:	48 8b 43 08          	mov    0x8(%rbx),%rax
    1aff:	8b 00                	mov    (%rax),%eax
    1b01:	39 03                	cmp    %eax,(%rbx)
    1b03:	7d ea                	jge    1aef <phase_6+0xd4>
    1b05:	e8 1c 05 00 00       	call   2026 <explode_bomb>
    1b0a:	eb e3                	jmp    1aef <phase_6+0xd4>
# ------------------------------------------------------------------
    1b0c:	48 8b 44 24 58       	mov    0x58(%rsp),%rax
    1b11:	64 48 2b 04 25 28 00 	sub    %fs:0x28,%rax
    1b18:	00 00 
    1b1a:	75 09                	jne    1b25 <phase_6+0x10a>
    1b1c:	48 83 c4 60          	add    $0x60,%rsp
    1b20:	5b                   	pop    %rbx
    1b21:	5d                   	pop    %rbp
    1b22:	41 5c                	pop    %r12
    1b24:	c3                   	ret    
    1b25:	e8 76 f7 ff ff       	call   12a0 <__stack_chk_fail@plt>

0000000000001b2a <emulate_fsm>:
    1b2a:	f3 0f 1e fa          	endbr64 
    1b2e:	55                   	push   %rbp
    1b2f:	53                   	push   %rbx
    1b30:	48 83 ec 08          	sub    $0x8,%rsp
    1b34:	89 fd                	mov    %edi,%ebp
    1b36:	48 89 f3             	mov    %rsi,%rbx
    1b39:	eb 28                	jmp    1b63 <emulate_fsm+0x39>
    1b3b:	0f be 03             	movsbl (%rbx),%eax
    1b3e:	83 e8 30             	sub    $0x30,%eax
    1b41:	48 63 ed             	movslq %ebp,%rbp
    1b44:	48 98                	cltq   
    1b46:	48 8d 14 c5 00 00 00 	lea    0x0(,%rax,8),%rdx
    1b4d:	00 
    1b4e:	48 29 c2             	sub    %rax,%rdx
    1b51:	48 8d 04 2a          	lea    (%rdx,%rbp,1),%rax
    1b55:	48 8d 15 a4 27 00 00 	lea    0x27a4(%rip),%rdx        # 4300 <transition_table>
    1b5c:	8b 2c 82             	mov    (%rdx,%rax,4),%ebp
    1b5f:	48 83 c3 01          	add    $0x1,%rbx
    1b63:	0f b6 03             	movzbl (%rbx),%eax
    1b66:	84 c0                	test   %al,%al
    1b68:	74 0e                	je     1b78 <emulate_fsm+0x4e>
    1b6a:	83 e8 30             	sub    $0x30,%eax
    1b6d:	3c 01                	cmp    $0x1,%al
    1b6f:	76 ca                	jbe    1b3b <emulate_fsm+0x11>
    1b71:	e8 b0 04 00 00       	call   2026 <explode_bomb>
    1b76:	eb c3                	jmp    1b3b <emulate_fsm+0x11>
    1b78:	89 e8                	mov    %ebp,%eax
    1b7a:	48 83 c4 08          	add    $0x8,%rsp
    1b7e:	5b                   	pop    %rbx
    1b7f:	5d                   	pop    %rbp
    1b80:	c3                   	ret    

0000000000001b81 <check_synchronizing_sequence>:
    1b81:	f3 0f 1e fa          	endbr64 
    1b85:	41 54                	push   %r12
    1b87:	55                   	push   %rbp
    1b88:	53                   	push   %rbx
    1b89:	48 89 fd             	mov    %rdi,%rbp
    1b8c:	48 89 fe             	mov    %rdi,%rsi
    1b8f:	bf 00 00 00 00       	mov    $0x0,%edi
    1b94:	e8 91 ff ff ff       	call   1b2a <emulate_fsm>
    1b99:	41 89 c4             	mov    %eax,%r12d
    1b9c:	bb 01 00 00 00       	mov    $0x1,%ebx
    1ba1:	83 fb 06             	cmp    $0x6,%ebx
    1ba4:	7f 14                	jg     1bba <check_synchronizing_sequence+0x39>
    1ba6:	48 89 ee             	mov    %rbp,%rsi
    1ba9:	89 df                	mov    %ebx,%edi
    1bab:	e8 7a ff ff ff       	call   1b2a <emulate_fsm>
    1bb0:	44 39 e0             	cmp    %r12d,%eax
    1bb3:	75 0f                	jne    1bc4 <check_synchronizing_sequence+0x43>
    1bb5:	83 c3 01             	add    $0x1,%ebx
    1bb8:	eb e7                	jmp    1ba1 <check_synchronizing_sequence+0x20>
    1bba:	b8 00 00 00 00       	mov    $0x0,%eax
    1bbf:	5b                   	pop    %rbx
    1bc0:	5d                   	pop    %rbp
    1bc1:	41 5c                	pop    %r12
    1bc3:	c3                   	ret    
    1bc4:	b8 ff ff ff ff       	mov    $0xffffffff,%eax
    1bc9:	eb f4                	jmp    1bbf <check_synchronizing_sequence+0x3e>

0000000000001bcb <secret_phase>:
    1bcb:	f3 0f 1e fa          	endbr64 
    1bcf:	55                   	push   %rbp
    1bd0:	53                   	push   %rbx
    1bd1:	48 83 ec 18          	sub    $0x18,%rsp
    1bd5:	64 48 8b 04 25 28 00 	mov    %fs:0x28,%rax
    1bdc:	00 00 
    1bde:	48 89 44 24 08       	mov    %rax,0x8(%rsp)
    1be3:	31 c0                	xor    %eax,%eax
    1be5:	e8 07 05 00 00       	call   20f1 <read_line>
    1bea:	48 89 c5             	mov    %rax,%rbp
    1bed:	bb 00 00 00 00       	mov    $0x0,%ebx
    1bf2:	eb 03                	jmp    1bf7 <secret_phase+0x2c>
    1bf4:	83 c3 01             	add    $0x1,%ebx
    1bf7:	48 63 c3             	movslq %ebx,%rax
    1bfa:	80 7c 05 00 00       	cmpb   $0x0,0x0(%rbp,%rax,1)
    1bff:	74 0c                	je     1c0d <secret_phase+0x42>
    1c01:	83 fb 10             	cmp    $0x10,%ebx
    1c04:	7e ee                	jle    1bf4 <secret_phase+0x29>
    1c06:	e8 1b 04 00 00       	call   2026 <explode_bomb>
    1c0b:	eb e7                	jmp    1bf4 <secret_phase+0x29>
    1c0d:	48 89 ef             	mov    %rbp,%rdi
    1c10:	e8 6c ff ff ff       	call   1b81 <check_synchronizing_sequence>
    1c15:	85 c0                	test   %eax,%eax
    1c17:	75 45                	jne    1c5e <secret_phase+0x93>
    1c19:	48 8d 3d d8 25 00 00 	lea    0x25d8(%rip),%rdi        # 41f8 <_IO_stdin_used+0x1f8>
    1c20:	e8 4b f6 ff ff       	call   1270 <puts@plt>
    1c25:	48 8d 3d fc 25 00 00 	lea    0x25fc(%rip),%rdi        # 4228 <_IO_stdin_used+0x228>
    1c2c:	e8 3f f6 ff ff       	call   1270 <puts@plt>
    1c31:	48 8d 3d 48 26 00 00 	lea    0x2648(%rip),%rdi        # 4280 <_IO_stdin_used+0x280>
    1c38:	e8 33 f6 ff ff       	call   1270 <puts@plt>
    1c3d:	48 8d 7c 24 04       	lea    0x4(%rsp),%rdi
    1c42:	e8 e8 05 00 00       	call   222f <phase_defused>
    1c47:	48 8b 44 24 08       	mov    0x8(%rsp),%rax
    1c4c:	64 48 2b 04 25 28 00 	sub    %fs:0x28,%rax
    1c53:	00 00 
    1c55:	75 0e                	jne    1c65 <secret_phase+0x9a>
    1c57:	48 83 c4 18          	add    $0x18,%rsp
    1c5b:	5b                   	pop    %rbx
    1c5c:	5d                   	pop    %rbp
    1c5d:	c3                   	ret    
    1c5e:	e8 c3 03 00 00       	call   2026 <explode_bomb>
    1c63:	eb b4                	jmp    1c19 <secret_phase+0x4e>
    1c65:	e8 36 f6 ff ff       	call   12a0 <__stack_chk_fail@plt>

0000000000001c6a <sig_handler>:
    1c6a:	f3 0f 1e fa          	endbr64 
    1c6e:	50                   	push   %rax
    1c6f:	58                   	pop    %rax
    1c70:	48 83 ec 08          	sub    $0x8,%rsp
    1c74:	48 8d 3d bd 26 00 00 	lea    0x26bd(%rip),%rdi        # 4338 <transition_table+0x38>
    1c7b:	e8 f0 f5 ff ff       	call   1270 <puts@plt>
    1c80:	bf 03 00 00 00       	mov    $0x3,%edi
    1c85:	e8 36 f7 ff ff       	call   13c0 <sleep@plt>
    1c8a:	48 8d 35 28 29 00 00 	lea    0x2928(%rip),%rsi        # 45b9 <transition_table+0x2b9>
    1c91:	bf 01 00 00 00       	mov    $0x1,%edi
    1c96:	b8 00 00 00 00       	mov    $0x0,%eax
    1c9b:	e8 c0 f6 ff ff       	call   1360 <__printf_chk@plt>
    1ca0:	48 8b 3d b9 67 00 00 	mov    0x67b9(%rip),%rdi        # 8460 <stdout@GLIBC_2.2.5>
    1ca7:	e8 84 f6 ff ff       	call   1330 <fflush@plt>
    1cac:	bf 01 00 00 00       	mov    $0x1,%edi
    1cb1:	e8 0a f7 ff ff       	call   13c0 <sleep@plt>
    1cb6:	48 8d 3d 04 29 00 00 	lea    0x2904(%rip),%rdi        # 45c1 <transition_table+0x2c1>
    1cbd:	e8 ae f5 ff ff       	call   1270 <puts@plt>
    1cc2:	bf 10 00 00 00       	mov    $0x10,%edi
    1cc7:	e8 c4 f6 ff ff       	call   1390 <exit@plt>

0000000000001ccc <invalid_phase>:
    1ccc:	f3 0f 1e fa          	endbr64 
    1cd0:	50                   	push   %rax
    1cd1:	58                   	pop    %rax
    1cd2:	48 83 ec 08          	sub    $0x8,%rsp
    1cd6:	48 89 fa             	mov    %rdi,%rdx
    1cd9:	48 8d 35 e9 28 00 00 	lea    0x28e9(%rip),%rsi        # 45c9 <transition_table+0x2c9>
    1ce0:	bf 01 00 00 00       	mov    $0x1,%edi
    1ce5:	b8 00 00 00 00       	mov    $0x0,%eax
    1cea:	e8 71 f6 ff ff       	call   1360 <__printf_chk@plt>
    1cef:	bf 08 00 00 00       	mov    $0x8,%edi
    1cf4:	e8 97 f6 ff ff       	call   1390 <exit@plt>

0000000000001cf9 <string_length>:
    1cf9:	f3 0f 1e fa          	endbr64 
    1cfd:	b8 00 00 00 00       	mov    $0x0,%eax
    1d02:	eb 07                	jmp    1d0b <string_length+0x12>
    1d04:	48 83 c7 01          	add    $0x1,%rdi
    1d08:	83 c0 01             	add    $0x1,%eax
    1d0b:	80 3f 00             	cmpb   $0x0,(%rdi)
    1d0e:	75 f4                	jne    1d04 <string_length+0xb>
    1d10:	c3                   	ret    

0000000000001d11 <strings_not_equal>:
    1d11:	f3 0f 1e fa          	endbr64 
    1d15:	41 54                	push   %r12
    1d17:	55                   	push   %rbp
    1d18:	53                   	push   %rbx
    1d19:	48 89 fb             	mov    %rdi,%rbx
    1d1c:	48 89 f5             	mov    %rsi,%rbp
    1d1f:	e8 d5 ff ff ff       	call   1cf9 <string_length>
    1d24:	41 89 c4             	mov    %eax,%r12d
    1d27:	48 89 ef             	mov    %rbp,%rdi
    1d2a:	e8 ca ff ff ff       	call   1cf9 <string_length>
    1d2f:	41 39 c4             	cmp    %eax,%r12d
    1d32:	74 12                	je     1d46 <strings_not_equal+0x35>
    1d34:	b8 01 00 00 00       	mov    $0x1,%eax
    1d39:	5b                   	pop    %rbx
    1d3a:	5d                   	pop    %rbp
    1d3b:	41 5c                	pop    %r12
    1d3d:	c3                   	ret    
    1d3e:	48 83 c3 01          	add    $0x1,%rbx
    1d42:	48 83 c5 01          	add    $0x1,%rbp
    1d46:	0f b6 03             	movzbl (%rbx),%eax
    1d49:	84 c0                	test   %al,%al
    1d4b:	74 0c                	je     1d59 <strings_not_equal+0x48>
    1d4d:	38 45 00             	cmp    %al,0x0(%rbp)
    1d50:	74 ec                	je     1d3e <strings_not_equal+0x2d>
    1d52:	b8 01 00 00 00       	mov    $0x1,%eax
    1d57:	eb e0                	jmp    1d39 <strings_not_equal+0x28>
    1d59:	b8 00 00 00 00       	mov    $0x0,%eax
    1d5e:	eb d9                	jmp    1d39 <strings_not_equal+0x28>

0000000000001d60 <initialize_bomb>:
    1d60:	f3 0f 1e fa          	endbr64 
    1d64:	48 81 ec 00 10 00 00 	sub    $0x1000,%rsp
    1d6b:	48 83 0c 24 00       	orq    $0x0,(%rsp)
    1d70:	48 81 ec 00 10 00 00 	sub    $0x1000,%rsp
    1d77:	48 83 0c 24 00       	orq    $0x0,(%rsp)
    1d7c:	48 83 ec 58          	sub    $0x58,%rsp
    1d80:	64 48 8b 04 25 28 00 	mov    %fs:0x28,%rax
    1d87:	00 00 
    1d89:	48 89 84 24 48 20 00 	mov    %rax,0x2048(%rsp)
    1d90:	00 
    1d91:	31 c0                	xor    %eax,%eax
    1d93:	48 8d 35 d0 fe ff ff 	lea    -0x130(%rip),%rsi        # 1c6a <sig_handler>
    1d9a:	bf 02 00 00 00       	mov    $0x2,%edi
    1d9f:	e8 3c f5 ff ff       	call   12e0 <signal@plt>
    1da4:	48 89 e7             	mov    %rsp,%rdi
    1da7:	be 40 00 00 00       	mov    $0x40,%esi
    1dac:	e8 cf f5 ff ff       	call   1380 <gethostname@plt>
    1db1:	85 c0                	test   %eax,%eax
    1db3:	75 39                	jne    1dee <initialize_bomb+0x8e>
    1db5:	48 8d 7c 24 40       	lea    0x40(%rsp),%rdi
    1dba:	e8 5b 10 00 00       	call   2e1a <init_driver>
    1dbf:	85 c0                	test   %eax,%eax
    1dc1:	78 41                	js     1e04 <initialize_bomb+0xa4>
    1dc3:	bf 04 00 00 00       	mov    $0x4,%edi
    1dc8:	e8 53 f5 ff ff       	call   1320 <malloc@plt>
    1dcd:	c7 00 11 fa 25 20    	movl   $0x2025fa11,(%rax)
    1dd3:	48 8b 94 24 48 20 00 	mov    0x2048(%rsp),%rdx
    1dda:	00 
    1ddb:	64 48 2b 14 25 28 00 	sub    %fs:0x28,%rdx
    1de2:	00 00 
    1de4:	75 43                	jne    1e29 <initialize_bomb+0xc9>
    1de6:	48 81 c4 58 20 00 00 	add    $0x2058,%rsp
    1ded:	c3                   	ret    
    1dee:	48 8d 3d 7b 25 00 00 	lea    0x257b(%rip),%rdi        # 4370 <transition_table+0x70>
    1df5:	e8 76 f4 ff ff       	call   1270 <puts@plt>
    1dfa:	bf 08 00 00 00       	mov    $0x8,%edi
    1dff:	e8 8c f5 ff ff       	call   1390 <exit@plt>
    1e04:	48 8d 54 24 40       	lea    0x40(%rsp),%rdx
    1e09:	48 8d 35 ca 27 00 00 	lea    0x27ca(%rip),%rsi        # 45da <transition_table+0x2da>
    1e10:	bf 01 00 00 00       	mov    $0x1,%edi
    1e15:	b8 00 00 00 00       	mov    $0x0,%eax
    1e1a:	e8 41 f5 ff ff       	call   1360 <__printf_chk@plt>
    1e1f:	bf 08 00 00 00       	mov    $0x8,%edi
    1e24:	e8 67 f5 ff ff       	call   1390 <exit@plt>
    1e29:	e8 72 f4 ff ff       	call   12a0 <__stack_chk_fail@plt>

0000000000001e2e <initialize_bomb_solve>:
    1e2e:	f3 0f 1e fa          	endbr64 
    1e32:	c3                   	ret    

0000000000001e33 <blank_line>:
    1e33:	f3 0f 1e fa          	endbr64 
    1e37:	55                   	push   %rbp
    1e38:	53                   	push   %rbx
    1e39:	48 83 ec 08          	sub    $0x8,%rsp
    1e3d:	48 89 fd             	mov    %rdi,%rbp
    1e40:	0f b6 5d 00          	movzbl 0x0(%rbp),%ebx
    1e44:	84 db                	test   %bl,%bl
    1e46:	74 1e                	je     1e66 <blank_line+0x33>
    1e48:	e8 83 f5 ff ff       	call   13d0 <__ctype_b_loc@plt>
    1e4d:	48 8b 00             	mov    (%rax),%rax
    1e50:	48 83 c5 01          	add    $0x1,%rbp
    1e54:	48 0f be db          	movsbq %bl,%rbx
    1e58:	f6 44 58 01 20       	testb  $0x20,0x1(%rax,%rbx,2)
    1e5d:	75 e1                	jne    1e40 <blank_line+0xd>
    1e5f:	b8 00 00 00 00       	mov    $0x0,%eax
    1e64:	eb 05                	jmp    1e6b <blank_line+0x38>
    1e66:	b8 01 00 00 00       	mov    $0x1,%eax
    1e6b:	48 83 c4 08          	add    $0x8,%rsp
    1e6f:	5b                   	pop    %rbx
    1e70:	5d                   	pop    %rbp
    1e71:	c3                   	ret    

0000000000001e72 <skip>:
    1e72:	f3 0f 1e fa          	endbr64 
    1e76:	53                   	push   %rbx
    1e77:	48 63 15 9a 66 00 00 	movslq 0x669a(%rip),%rdx        # 8518 <num_input_strings>
    1e7e:	48 89 d0             	mov    %rdx,%rax
    1e81:	48 c1 e0 04          	shl    $0x4,%rax
    1e85:	48 29 d0             	sub    %rdx,%rax
    1e88:	48 8d 15 91 66 00 00 	lea    0x6691(%rip),%rdx        # 8520 <input_strings>
    1e8f:	48 8d 3c c2          	lea    (%rdx,%rax,8),%rdi
    1e93:	48 8b 0d f6 65 00 00 	mov    0x65f6(%rip),%rcx        # 8490 <infile>
    1e9a:	ba 78 00 00 00       	mov    $0x78,%edx
    1e9f:	48 c7 c6 ff ff ff ff 	mov    $0xffffffffffffffff,%rsi
    1ea6:	e8 a5 f4 ff ff       	call   1350 <__fgets_chk@plt>
    1eab:	48 89 c3             	mov    %rax,%rbx
    1eae:	48 85 c0             	test   %rax,%rax
    1eb1:	74 0c                	je     1ebf <skip+0x4d>
    1eb3:	48 89 c7             	mov    %rax,%rdi
    1eb6:	e8 78 ff ff ff       	call   1e33 <blank_line>
    1ebb:	85 c0                	test   %eax,%eax
    1ebd:	75 b8                	jne    1e77 <skip+0x5>
    1ebf:	48 89 d8             	mov    %rbx,%rax
    1ec2:	5b                   	pop    %rbx
    1ec3:	c3                   	ret    

0000000000001ec4 <send_msg>:
    1ec4:	f3 0f 1e fa          	endbr64 
    1ec8:	41 55                	push   %r13
    1eca:	41 54                	push   %r12
    1ecc:	55                   	push   %rbp
    1ecd:	53                   	push   %rbx
    1ece:	4c 8d 9c 24 00 c0 ff 	lea    -0x4000(%rsp),%r11
    1ed5:	ff 
    1ed6:	48 81 ec 00 10 00 00 	sub    $0x1000,%rsp
    1edd:	48 83 0c 24 00       	orq    $0x0,(%rsp)
    1ee2:	4c 39 dc             	cmp    %r11,%rsp
    1ee5:	75 ef                	jne    1ed6 <send_msg+0x12>
    1ee7:	48 83 ec 18          	sub    $0x18,%rsp
    1eeb:	89 fd                	mov    %edi,%ebp
    1eed:	48 89 f3             	mov    %rsi,%rbx
    1ef0:	64 48 8b 04 25 28 00 	mov    %fs:0x28,%rax
    1ef7:	00 00 
    1ef9:	48 89 84 24 08 40 00 	mov    %rax,0x4008(%rsp)
    1f00:	00 
    1f01:	31 c0                	xor    %eax,%eax
    1f03:	44 8b 25 0e 66 00 00 	mov    0x660e(%rip),%r12d        # 8518 <num_input_strings>
    1f0a:	41 8d 44 24 ff       	lea    -0x1(%r12),%eax
    1f0f:	48 98                	cltq   
    1f11:	48 89 c2             	mov    %rax,%rdx
    1f14:	48 c1 e2 04          	shl    $0x4,%rdx
    1f18:	48 29 c2             	sub    %rax,%rdx
    1f1b:	48 8d 05 fe 65 00 00 	lea    0x65fe(%rip),%rax        # 8520 <input_strings>
    1f22:	4c 8d 2c d0          	lea    (%rax,%rdx,8),%r13
    1f26:	4c 89 ef             	mov    %r13,%rdi
    1f29:	e8 62 f3 ff ff       	call   1290 <strlen@plt>
    1f2e:	48 83 c0 64          	add    $0x64,%rax
    1f32:	48 3d 00 20 00 00    	cmp    $0x2000,%rax
    1f38:	0f 87 a0 00 00 00    	ja     1fde <send_msg+0x11a>
    1f3e:	85 ed                	test   %ebp,%ebp
    1f40:	0f 84 b8 00 00 00    	je     1ffe <send_msg+0x13a>
    1f46:	48 8d 05 a7 26 00 00 	lea    0x26a7(%rip),%rax        # 45f4 <transition_table+0x2f4>
    1f4d:	48 89 e5             	mov    %rsp,%rbp
    1f50:	48 83 ec 08          	sub    $0x8,%rsp
    1f54:	41 55                	push   %r13
    1f56:	41 54                	push   %r12
    1f58:	50                   	push   %rax
    1f59:	4c 8d 0d e0 58 00 00 	lea    0x58e0(%rip),%r9        # 7840 <authkey>
    1f60:	44 8b 05 d9 60 00 00 	mov    0x60d9(%rip),%r8d        # 8040 <bomb_id>
    1f67:	48 8d 0d 97 26 00 00 	lea    0x2697(%rip),%rcx        # 4605 <transition_table+0x305>
    1f6e:	ba 00 20 00 00       	mov    $0x2000,%edx
    1f73:	be 01 00 00 00       	mov    $0x1,%esi
    1f78:	48 89 ef             	mov    %rbp,%rdi
    1f7b:	b8 00 00 00 00       	mov    $0x0,%eax
    1f80:	e8 5b f4 ff ff       	call   13e0 <__sprintf_chk@plt>
    1f85:	48 89 ec             	mov    %rbp,%rsp
    1f88:	4c 8d 8c 24 00 20 00 	lea    0x2000(%rsp),%r9
    1f8f:	00 
    1f90:	41 b8 00 00 00 00    	mov    $0x0,%r8d
    1f96:	48 89 e9             	mov    %rbp,%rcx
    1f99:	48 8d 15 a0 50 00 00 	lea    0x50a0(%rip),%rdx        # 7040 <lab>
    1fa0:	48 8d 35 99 54 00 00 	lea    0x5499(%rip),%rsi        # 7440 <course>
    1fa7:	48 8d 3d 92 5c 00 00 	lea    0x5c92(%rip),%rdi        # 7c40 <userid>
    1fae:	e8 96 10 00 00       	call   3049 <driver_post>
    1fb3:	c7 03 01 00 00 00    	movl   $0x1,(%rbx)
    1fb9:	85 c0                	test   %eax,%eax
    1fbb:	78 4d                	js     200a <send_msg+0x146>
    1fbd:	48 8b 84 24 08 40 00 	mov    0x4008(%rsp),%rax
    1fc4:	00 
    1fc5:	64 48 2b 04 25 28 00 	sub    %fs:0x28,%rax
    1fcc:	00 00 
    1fce:	75 51                	jne    2021 <send_msg+0x15d>
    1fd0:	48 81 c4 18 40 00 00 	add    $0x4018,%rsp
    1fd7:	5b                   	pop    %rbx
    1fd8:	5d                   	pop    %rbp
    1fd9:	41 5c                	pop    %r12
    1fdb:	41 5d                	pop    %r13
    1fdd:	c3                   	ret    
    1fde:	48 8d 35 c3 23 00 00 	lea    0x23c3(%rip),%rsi        # 43a8 <transition_table+0xa8>
    1fe5:	bf 01 00 00 00       	mov    $0x1,%edi
    1fea:	b8 00 00 00 00       	mov    $0x0,%eax
    1fef:	e8 6c f3 ff ff       	call   1360 <__printf_chk@plt>
    1ff4:	bf 08 00 00 00       	mov    $0x8,%edi
    1ff9:	e8 92 f3 ff ff       	call   1390 <exit@plt>
    1ffe:	48 8d 05 f7 25 00 00 	lea    0x25f7(%rip),%rax        # 45fc <transition_table+0x2fc>
    2005:	e9 43 ff ff ff       	jmp    1f4d <send_msg+0x89>
    200a:	48 8d bc 24 00 20 00 	lea    0x2000(%rsp),%rdi
    2011:	00 
    2012:	e8 59 f2 ff ff       	call   1270 <puts@plt>
    2017:	bf 00 00 00 00       	mov    $0x0,%edi
    201c:	e8 6f f3 ff ff       	call   1390 <exit@plt>
    2021:	e8 7a f2 ff ff       	call   12a0 <__stack_chk_fail@plt>

0000000000002026 <explode_bomb>:
    2026:	f3 0f 1e fa          	endbr64 
    202a:	50                   	push   %rax
    202b:	58                   	pop    %rax
    202c:	48 83 ec 18          	sub    $0x18,%rsp
    2030:	64 48 8b 04 25 28 00 	mov    %fs:0x28,%rax
    2037:	00 00 
    2039:	48 89 44 24 08       	mov    %rax,0x8(%rsp)
    203e:	31 c0                	xor    %eax,%eax
    2040:	48 8d 3d cd 25 00 00 	lea    0x25cd(%rip),%rdi        # 4614 <transition_table+0x314>
    2047:	e8 24 f2 ff ff       	call   1270 <puts@plt>
    204c:	48 8d 3d ca 25 00 00 	lea    0x25ca(%rip),%rdi        # 461d <transition_table+0x31d>
    2053:	e8 18 f2 ff ff       	call   1270 <puts@plt>
    2058:	c7 44 24 04 00 00 00 	movl   $0x0,0x4(%rsp)
    205f:	00 
    2060:	48 8d 74 24 04       	lea    0x4(%rsp),%rsi
    2065:	bf 00 00 00 00       	mov    $0x0,%edi
    206a:	e8 55 fe ff ff       	call   1ec4 <send_msg>
    206f:	83 7c 24 04 01       	cmpl   $0x1,0x4(%rsp)
    2074:	74 20                	je     2096 <explode_bomb+0x70>
    2076:	48 8d 35 53 23 00 00 	lea    0x2353(%rip),%rsi        # 43d0 <transition_table+0xd0>
    207d:	bf 01 00 00 00       	mov    $0x1,%edi
    2082:	b8 00 00 00 00       	mov    $0x0,%eax
    2087:	e8 d4 f2 ff ff       	call   1360 <__printf_chk@plt>
    208c:	bf 08 00 00 00       	mov    $0x8,%edi
    2091:	e8 fa f2 ff ff       	call   1390 <exit@plt>
    2096:	48 8d 3d 7b 23 00 00 	lea    0x237b(%rip),%rdi        # 4418 <transition_table+0x118>
    209d:	e8 ce f1 ff ff       	call   1270 <puts@plt>
    20a2:	bf 08 00 00 00       	mov    $0x8,%edi
    20a7:	e8 e4 f2 ff ff       	call   1390 <exit@plt>

00000000000020ac <read_six_numbers>:
    20ac:	f3 0f 1e fa          	endbr64 
    20b0:	48 83 ec 08          	sub    $0x8,%rsp
    20b4:	48 89 f2             	mov    %rsi,%rdx
    20b7:	48 8d 4e 04          	lea    0x4(%rsi),%rcx
    20bb:	48 8d 46 14          	lea    0x14(%rsi),%rax
    20bf:	50                   	push   %rax
    20c0:	48 8d 46 10          	lea    0x10(%rsi),%rax
    20c4:	50                   	push   %rax
    20c5:	4c 8d 4e 0c          	lea    0xc(%rsi),%r9
    20c9:	4c 8d 46 08          	lea    0x8(%rsi),%r8
    20cd:	48 8d 35 60 25 00 00 	lea    0x2560(%rip),%rsi        # 4634 <transition_table+0x334>
    20d4:	b8 00 00 00 00       	mov    $0x0,%eax
    20d9:	e8 62 f2 ff ff       	call   1340 <__isoc99_sscanf@plt>
    20de:	48 83 c4 10          	add    $0x10,%rsp
    20e2:	83 f8 05             	cmp    $0x5,%eax
    20e5:	7e 05                	jle    20ec <read_six_numbers+0x40>
    20e7:	48 83 c4 08          	add    $0x8,%rsp
    20eb:	c3                   	ret    
    20ec:	e8 35 ff ff ff       	call   2026 <explode_bomb>

00000000000020f1 <read_line>:
    20f1:	f3 0f 1e fa          	endbr64 
    20f5:	55                   	push   %rbp
    20f6:	53                   	push   %rbx
    20f7:	48 83 ec 08          	sub    $0x8,%rsp
    20fb:	b8 00 00 00 00       	mov    $0x0,%eax
    2100:	e8 6d fd ff ff       	call   1e72 <skip>
    2105:	48 85 c0             	test   %rax,%rax
    2108:	74 63                	je     216d <read_line+0x7c>
    210a:	8b 1d 08 64 00 00    	mov    0x6408(%rip),%ebx        # 8518 <num_input_strings>
    2110:	48 63 d3             	movslq %ebx,%rdx
    2113:	48 89 d0             	mov    %rdx,%rax
    2116:	48 c1 e0 04          	shl    $0x4,%rax
    211a:	48 29 d0             	sub    %rdx,%rax
    211d:	48 8d 15 fc 63 00 00 	lea    0x63fc(%rip),%rdx        # 8520 <input_strings>
    2124:	48 8d 2c c2          	lea    (%rdx,%rax,8),%rbp
    2128:	48 89 ef             	mov    %rbp,%rdi
    212b:	e8 60 f1 ff ff       	call   1290 <strlen@plt>
    2130:	83 f8 76             	cmp    $0x76,%eax
    2133:	0f 8f ac 00 00 00    	jg     21e5 <read_line+0xf4>
    2139:	83 e8 01             	sub    $0x1,%eax
    213c:	48 98                	cltq   
    213e:	48 63 cb             	movslq %ebx,%rcx
    2141:	48 89 ca             	mov    %rcx,%rdx
    2144:	48 c1 e2 04          	shl    $0x4,%rdx
    2148:	48 29 ca             	sub    %rcx,%rdx
    214b:	48 8d 0d ce 63 00 00 	lea    0x63ce(%rip),%rcx        # 8520 <input_strings>
    2152:	48 8d 14 d1          	lea    (%rcx,%rdx,8),%rdx
    2156:	c6 04 02 00          	movb   $0x0,(%rdx,%rax,1)
    215a:	83 c3 01             	add    $0x1,%ebx
    215d:	89 1d b5 63 00 00    	mov    %ebx,0x63b5(%rip)        # 8518 <num_input_strings>
    2163:	48 89 e8             	mov    %rbp,%rax
    2166:	48 83 c4 08          	add    $0x8,%rsp
    216a:	5b                   	pop    %rbx
    216b:	5d                   	pop    %rbp
    216c:	c3                   	ret    
    216d:	48 8b 05 fc 62 00 00 	mov    0x62fc(%rip),%rax        # 8470 <stdin@GLIBC_2.2.5>
    2174:	48 39 05 15 63 00 00 	cmp    %rax,0x6315(%rip)        # 8490 <infile>
    217b:	74 1b                	je     2198 <read_line+0xa7>
    217d:	48 8d 3d e0 24 00 00 	lea    0x24e0(%rip),%rdi        # 4664 <transition_table+0x364>
    2184:	e8 97 f0 ff ff       	call   1220 <getenv@plt>
    2189:	48 85 c0             	test   %rax,%rax
    218c:	74 20                	je     21ae <read_line+0xbd>
    218e:	bf 00 00 00 00       	mov    $0x0,%edi
    2193:	e8 f8 f1 ff ff       	call   1390 <exit@plt>
    2198:	48 8d 3d a7 24 00 00 	lea    0x24a7(%rip),%rdi        # 4646 <transition_table+0x346>
    219f:	e8 cc f0 ff ff       	call   1270 <puts@plt>
    21a4:	bf 08 00 00 00       	mov    $0x8,%edi
    21a9:	e8 e2 f1 ff ff       	call   1390 <exit@plt>
    21ae:	48 8b 05 bb 62 00 00 	mov    0x62bb(%rip),%rax        # 8470 <stdin@GLIBC_2.2.5>
    21b5:	48 89 05 d4 62 00 00 	mov    %rax,0x62d4(%rip)        # 8490 <infile>
    21bc:	b8 00 00 00 00       	mov    $0x0,%eax
    21c1:	e8 ac fc ff ff       	call   1e72 <skip>
    21c6:	48 85 c0             	test   %rax,%rax
    21c9:	0f 85 3b ff ff ff    	jne    210a <read_line+0x19>
    21cf:	48 8d 3d 70 24 00 00 	lea    0x2470(%rip),%rdi        # 4646 <transition_table+0x346>
    21d6:	e8 95 f0 ff ff       	call   1270 <puts@plt>
    21db:	bf 00 00 00 00       	mov    $0x0,%edi
    21e0:	e8 ab f1 ff ff       	call   1390 <exit@plt>
    21e5:	48 8d 3d 83 24 00 00 	lea    0x2483(%rip),%rdi        # 466f <transition_table+0x36f>
    21ec:	e8 7f f0 ff ff       	call   1270 <puts@plt>
    21f1:	8b 05 21 63 00 00    	mov    0x6321(%rip),%eax        # 8518 <num_input_strings>
    21f7:	8d 50 01             	lea    0x1(%rax),%edx
    21fa:	89 15 18 63 00 00    	mov    %edx,0x6318(%rip)        # 8518 <num_input_strings>
    2200:	48 98                	cltq   
    2202:	48 6b c0 78          	imul   $0x78,%rax,%rax
    2206:	48 8d 15 13 63 00 00 	lea    0x6313(%rip),%rdx        # 8520 <input_strings>
    220d:	48 be 2a 2a 2a 74 72 	movabs $0x636e7572742a2a2a,%rsi
    2214:	75 6e 63 
    2217:	48 bf 61 74 65 64 2a 	movabs $0x2a2a2a64657461,%rdi
    221e:	2a 2a 00 
    2221:	48 89 34 02          	mov    %rsi,(%rdx,%rax,1)
    2225:	48 89 7c 02 08       	mov    %rdi,0x8(%rdx,%rax,1)
    222a:	e8 f7 fd ff ff       	call   2026 <explode_bomb>

000000000000222f <phase_defused>:
    222f:	f3 0f 1e fa          	endbr64 
    2233:	53                   	push   %rbx
    2234:	48 89 fb             	mov    %rdi,%rbx
    2237:	c7 07 00 00 00 00    	movl   $0x0,(%rdi)
    223d:	48 89 fe             	mov    %rdi,%rsi
    2240:	bf 01 00 00 00       	mov    $0x1,%edi
    2245:	e8 7a fc ff ff       	call   1ec4 <send_msg>
    224a:	83 3b 01             	cmpl   $0x1,(%rbx)
    224d:	75 0b                	jne    225a <phase_defused+0x2b>
    224f:	83 3d c2 62 00 00 06 	cmpl   $0x6,0x62c2(%rip)        # 8518 <num_input_strings>
    2256:	74 22                	je     227a <phase_defused+0x4b>
    2258:	5b                   	pop    %rbx
    2259:	c3                   	ret    
    225a:	48 8d 35 6f 21 00 00 	lea    0x216f(%rip),%rsi        # 43d0 <transition_table+0xd0>
    2261:	bf 01 00 00 00       	mov    $0x1,%edi
    2266:	b8 00 00 00 00       	mov    $0x0,%eax
    226b:	e8 f0 f0 ff ff       	call   1360 <__printf_chk@plt>
    2270:	bf 08 00 00 00       	mov    $0x8,%edi
    2275:	e8 16 f1 ff ff       	call   1390 <exit@plt>
    227a:	e8 e5 f3 ff ff       	call   1664 <abracadabra>
    227f:	85 c0                	test   %eax,%eax
    2281:	75 1a                	jne    229d <phase_defused+0x6e>
    2283:	48 8d 3d a6 22 00 00 	lea    0x22a6(%rip),%rdi        # 4530 <transition_table+0x230>
    228a:	e8 e1 ef ff ff       	call   1270 <puts@plt>
    228f:	48 8d 3d e2 22 00 00 	lea    0x22e2(%rip),%rdi        # 4578 <transition_table+0x278>
    2296:	e8 d5 ef ff ff       	call   1270 <puts@plt>
    229b:	eb bb                	jmp    2258 <phase_defused+0x29>
    229d:	e8 4f f4 ff ff       	call   16f1 <alohomora>
    22a2:	85 c0                	test   %eax,%eax
    22a4:	74 30                	je     22d6 <phase_defused+0xa7>
    22a6:	48 8d 3d 93 21 00 00 	lea    0x2193(%rip),%rdi        # 4440 <transition_table+0x140>
    22ad:	e8 be ef ff ff       	call   1270 <puts@plt>
    22b2:	48 8d 3d af 21 00 00 	lea    0x21af(%rip),%rdi        # 4468 <transition_table+0x168>
    22b9:	e8 b2 ef ff ff       	call   1270 <puts@plt>
    22be:	48 8d 3d db 21 00 00 	lea    0x21db(%rip),%rdi        # 44a0 <transition_table+0x1a0>
    22c5:	e8 a6 ef ff ff       	call   1270 <puts@plt>
    22ca:	b8 00 00 00 00       	mov    $0x0,%eax
    22cf:	e8 f7 f8 ff ff       	call   1bcb <secret_phase>
    22d4:	eb ad                	jmp    2283 <phase_defused+0x54>
    22d6:	48 8d 3d 13 22 00 00 	lea    0x2213(%rip),%rdi        # 44f0 <transition_table+0x1f0>
    22dd:	e8 8e ef ff ff       	call   1270 <puts@plt>
    22e2:	48 8d 3d b7 21 00 00 	lea    0x21b7(%rip),%rdi        # 44a0 <transition_table+0x1a0>
    22e9:	e8 82 ef ff ff       	call   1270 <puts@plt>
    22ee:	eb 93                	jmp    2283 <phase_defused+0x54>

00000000000022f0 <rio_readinitb>:
    22f0:	89 37                	mov    %esi,(%rdi)
    22f2:	c7 47 04 00 00 00 00 	movl   $0x0,0x4(%rdi)
    22f9:	48 8d 47 10          	lea    0x10(%rdi),%rax
    22fd:	48 89 47 08          	mov    %rax,0x8(%rdi)
    2301:	c3                   	ret    

0000000000002302 <sigalrm_handler>:
    2302:	f3 0f 1e fa          	endbr64 
    2306:	50                   	push   %rax
    2307:	58                   	pop    %rax
    2308:	48 83 ec 08          	sub    $0x8,%rsp
    230c:	b9 00 00 00 00       	mov    $0x0,%ecx
    2311:	48 8d 15 c8 23 00 00 	lea    0x23c8(%rip),%rdx        # 46e0 <transition_table+0x3e0>
    2318:	be 01 00 00 00       	mov    $0x1,%esi
    231d:	48 8b 3d 5c 61 00 00 	mov    0x615c(%rip),%rdi        # 8480 <stderr@GLIBC_2.2.5>
    2324:	b8 00 00 00 00       	mov    $0x0,%eax
    2329:	e8 82 f0 ff ff       	call   13b0 <__fprintf_chk@plt>
    232e:	bf 01 00 00 00       	mov    $0x1,%edi
    2333:	e8 58 f0 ff ff       	call   1390 <exit@plt>

0000000000002338 <rio_writen>:
    2338:	41 55                	push   %r13
    233a:	41 54                	push   %r12
    233c:	55                   	push   %rbp
    233d:	53                   	push   %rbx
    233e:	48 83 ec 08          	sub    $0x8,%rsp
    2342:	41 89 fc             	mov    %edi,%r12d
    2345:	48 89 f5             	mov    %rsi,%rbp
    2348:	49 89 d5             	mov    %rdx,%r13
    234b:	48 89 d3             	mov    %rdx,%rbx
    234e:	eb 06                	jmp    2356 <rio_writen+0x1e>
    2350:	48 29 c3             	sub    %rax,%rbx
    2353:	48 01 c5             	add    %rax,%rbp
    2356:	48 85 db             	test   %rbx,%rbx
    2359:	74 24                	je     237f <rio_writen+0x47>
    235b:	48 89 da             	mov    %rbx,%rdx
    235e:	48 89 ee             	mov    %rbp,%rsi
    2361:	44 89 e7             	mov    %r12d,%edi
    2364:	e8 17 ef ff ff       	call   1280 <write@plt>
    2369:	48 85 c0             	test   %rax,%rax
    236c:	7f e2                	jg     2350 <rio_writen+0x18>
    236e:	e8 cd ee ff ff       	call   1240 <__errno_location@plt>
    2373:	83 38 04             	cmpl   $0x4,(%rax)
    2376:	75 15                	jne    238d <rio_writen+0x55>
    2378:	b8 00 00 00 00       	mov    $0x0,%eax
    237d:	eb d1                	jmp    2350 <rio_writen+0x18>
    237f:	4c 89 e8             	mov    %r13,%rax
    2382:	48 83 c4 08          	add    $0x8,%rsp
    2386:	5b                   	pop    %rbx
    2387:	5d                   	pop    %rbp
    2388:	41 5c                	pop    %r12
    238a:	41 5d                	pop    %r13
    238c:	c3                   	ret    
    238d:	48 c7 c0 ff ff ff ff 	mov    $0xffffffffffffffff,%rax
    2394:	eb ec                	jmp    2382 <rio_writen+0x4a>

0000000000002396 <rio_read>:
    2396:	41 55                	push   %r13
    2398:	41 54                	push   %r12
    239a:	55                   	push   %rbp
    239b:	53                   	push   %rbx
    239c:	48 83 ec 08          	sub    $0x8,%rsp
    23a0:	48 89 fb             	mov    %rdi,%rbx
    23a3:	49 89 f5             	mov    %rsi,%r13
    23a6:	49 89 d4             	mov    %rdx,%r12
    23a9:	eb 0a                	jmp    23b5 <rio_read+0x1f>
    23ab:	e8 90 ee ff ff       	call   1240 <__errno_location@plt>
    23b0:	83 38 04             	cmpl   $0x4,(%rax)
    23b3:	75 61                	jne    2416 <rio_read+0x80>
    23b5:	8b 6b 04             	mov    0x4(%rbx),%ebp
    23b8:	85 ed                	test   %ebp,%ebp
    23ba:	7f 29                	jg     23e5 <rio_read+0x4f>
    23bc:	48 8d 6b 10          	lea    0x10(%rbx),%rbp
    23c0:	8b 3b                	mov    (%rbx),%edi
    23c2:	48 c7 c1 ff ff ff ff 	mov    $0xffffffffffffffff,%rcx
    23c9:	ba 00 20 00 00       	mov    $0x2000,%edx
    23ce:	48 89 ee             	mov    %rbp,%rsi
    23d1:	e8 8a ee ff ff       	call   1260 <__read_chk@plt>
    23d6:	89 43 04             	mov    %eax,0x4(%rbx)
    23d9:	85 c0                	test   %eax,%eax
    23db:	78 ce                	js     23ab <rio_read+0x15>
    23dd:	74 40                	je     241f <rio_read+0x89>
    23df:	48 89 6b 08          	mov    %rbp,0x8(%rbx)
    23e3:	eb d0                	jmp    23b5 <rio_read+0x1f>
    23e5:	89 e8                	mov    %ebp,%eax
    23e7:	4c 39 e0             	cmp    %r12,%rax
    23ea:	72 03                	jb     23ef <rio_read+0x59>
    23ec:	44 89 e5             	mov    %r12d,%ebp
    23ef:	4c 63 e5             	movslq %ebp,%r12
    23f2:	48 8b 73 08          	mov    0x8(%rbx),%rsi
    23f6:	4c 89 e2             	mov    %r12,%rdx
    23f9:	4c 89 ef             	mov    %r13,%rdi
    23fc:	e8 0f ef ff ff       	call   1310 <memcpy@plt>
    2401:	4c 01 63 08          	add    %r12,0x8(%rbx)
    2405:	29 6b 04             	sub    %ebp,0x4(%rbx)
    2408:	4c 89 e0             	mov    %r12,%rax
    240b:	48 83 c4 08          	add    $0x8,%rsp
    240f:	5b                   	pop    %rbx
    2410:	5d                   	pop    %rbp
    2411:	41 5c                	pop    %r12
    2413:	41 5d                	pop    %r13
    2415:	c3                   	ret    
    2416:	48 c7 c0 ff ff ff ff 	mov    $0xffffffffffffffff,%rax
    241d:	eb ec                	jmp    240b <rio_read+0x75>
    241f:	b8 00 00 00 00       	mov    $0x0,%eax
    2424:	eb e5                	jmp    240b <rio_read+0x75>

0000000000002426 <rio_readlineb>:
    2426:	41 55                	push   %r13
    2428:	41 54                	push   %r12
    242a:	55                   	push   %rbp
    242b:	53                   	push   %rbx
    242c:	48 83 ec 18          	sub    $0x18,%rsp
    2430:	49 89 fd             	mov    %rdi,%r13
    2433:	48 89 f5             	mov    %rsi,%rbp
    2436:	49 89 d4             	mov    %rdx,%r12
    2439:	64 48 8b 04 25 28 00 	mov    %fs:0x28,%rax
    2440:	00 00 
    2442:	48 89 44 24 08       	mov    %rax,0x8(%rsp)
    2447:	31 c0                	xor    %eax,%eax
    2449:	bb 01 00 00 00       	mov    $0x1,%ebx
    244e:	eb 18                	jmp    2468 <rio_readlineb+0x42>
    2450:	85 c0                	test   %eax,%eax
    2452:	75 65                	jne    24b9 <rio_readlineb+0x93>
    2454:	48 83 fb 01          	cmp    $0x1,%rbx
    2458:	75 3d                	jne    2497 <rio_readlineb+0x71>
    245a:	b8 00 00 00 00       	mov    $0x0,%eax
    245f:	eb 3d                	jmp    249e <rio_readlineb+0x78>
    2461:	48 83 c3 01          	add    $0x1,%rbx
    2465:	48 89 d5             	mov    %rdx,%rbp
    2468:	4c 39 e3             	cmp    %r12,%rbx
    246b:	73 2a                	jae    2497 <rio_readlineb+0x71>
    246d:	48 8d 74 24 07       	lea    0x7(%rsp),%rsi
    2472:	ba 01 00 00 00       	mov    $0x1,%edx
    2477:	4c 89 ef             	mov    %r13,%rdi
    247a:	e8 17 ff ff ff       	call   2396 <rio_read>
    247f:	83 f8 01             	cmp    $0x1,%eax
    2482:	75 cc                	jne    2450 <rio_readlineb+0x2a>
    2484:	48 8d 55 01          	lea    0x1(%rbp),%rdx
    2488:	0f b6 44 24 07       	movzbl 0x7(%rsp),%eax
    248d:	88 45 00             	mov    %al,0x0(%rbp)
    2490:	3c 0a                	cmp    $0xa,%al
    2492:	75 cd                	jne    2461 <rio_readlineb+0x3b>
    2494:	48 89 d5             	mov    %rdx,%rbp
    2497:	c6 45 00 00          	movb   $0x0,0x0(%rbp)
    249b:	48 89 d8             	mov    %rbx,%rax
    249e:	48 8b 54 24 08       	mov    0x8(%rsp),%rdx
    24a3:	64 48 2b 14 25 28 00 	sub    %fs:0x28,%rdx
    24aa:	00 00 
    24ac:	75 14                	jne    24c2 <rio_readlineb+0x9c>
    24ae:	48 83 c4 18          	add    $0x18,%rsp
    24b2:	5b                   	pop    %rbx
    24b3:	5d                   	pop    %rbp
    24b4:	41 5c                	pop    %r12
    24b6:	41 5d                	pop    %r13
    24b8:	c3                   	ret    
    24b9:	48 c7 c0 ff ff ff ff 	mov    $0xffffffffffffffff,%rax
    24c0:	eb dc                	jmp    249e <rio_readlineb+0x78>
    24c2:	e8 d9 ed ff ff       	call   12a0 <__stack_chk_fail@plt>

00000000000024c7 <urlencode>:
    24c7:	41 54                	push   %r12
    24c9:	55                   	push   %rbp
    24ca:	53                   	push   %rbx
    24cb:	48 83 ec 10          	sub    $0x10,%rsp
    24cf:	48 89 fb             	mov    %rdi,%rbx
    24d2:	48 89 f5             	mov    %rsi,%rbp
    24d5:	64 48 8b 04 25 28 00 	mov    %fs:0x28,%rax
    24dc:	00 00 
    24de:	48 89 44 24 08       	mov    %rax,0x8(%rsp)
    24e3:	31 c0                	xor    %eax,%eax
    24e5:	e8 a6 ed ff ff       	call   1290 <strlen@plt>
    24ea:	eb 0f                	jmp    24fb <urlencode+0x34>
    24ec:	44 88 45 00          	mov    %r8b,0x0(%rbp)
    24f0:	48 8d 6d 01          	lea    0x1(%rbp),%rbp
    24f4:	48 83 c3 01          	add    $0x1,%rbx
    24f8:	44 89 e0             	mov    %r12d,%eax
    24fb:	44 8d 60 ff          	lea    -0x1(%rax),%r12d
    24ff:	85 c0                	test   %eax,%eax
    2501:	0f 84 a8 00 00 00    	je     25af <urlencode+0xe8>
    2507:	44 0f b6 03          	movzbl (%rbx),%r8d
    250b:	41 80 f8 2a          	cmp    $0x2a,%r8b
    250f:	0f 94 c0             	sete   %al
    2512:	41 80 f8 2d          	cmp    $0x2d,%r8b
    2516:	0f 94 c2             	sete   %dl
    2519:	08 d0                	or     %dl,%al
    251b:	75 cf                	jne    24ec <urlencode+0x25>
    251d:	41 80 f8 2e          	cmp    $0x2e,%r8b
    2521:	74 c9                	je     24ec <urlencode+0x25>
    2523:	41 80 f8 5f          	cmp    $0x5f,%r8b
    2527:	74 c3                	je     24ec <urlencode+0x25>
    2529:	41 8d 40 d0          	lea    -0x30(%r8),%eax
    252d:	3c 09                	cmp    $0x9,%al
    252f:	76 bb                	jbe    24ec <urlencode+0x25>
    2531:	41 8d 40 bf          	lea    -0x41(%r8),%eax
    2535:	3c 19                	cmp    $0x19,%al
    2537:	76 b3                	jbe    24ec <urlencode+0x25>
    2539:	41 8d 40 9f          	lea    -0x61(%r8),%eax
    253d:	3c 19                	cmp    $0x19,%al
    253f:	76 ab                	jbe    24ec <urlencode+0x25>
    2541:	41 80 f8 20          	cmp    $0x20,%r8b
    2545:	74 56                	je     259d <urlencode+0xd6>
    2547:	41 8d 40 e0          	lea    -0x20(%r8),%eax
    254b:	3c 5f                	cmp    $0x5f,%al
    254d:	0f 96 c0             	setbe  %al
    2550:	41 80 f8 09          	cmp    $0x9,%r8b
    2554:	0f 94 c2             	sete   %dl
    2557:	08 d0                	or     %dl,%al
    2559:	74 4f                	je     25aa <urlencode+0xe3>
    255b:	48 89 e7             	mov    %rsp,%rdi
    255e:	45 0f b6 c0          	movzbl %r8b,%r8d
    2562:	48 8d 0d 2c 22 00 00 	lea    0x222c(%rip),%rcx        # 4795 <transition_table+0x495>
    2569:	ba 08 00 00 00       	mov    $0x8,%edx
    256e:	be 01 00 00 00       	mov    $0x1,%esi
    2573:	b8 00 00 00 00       	mov    $0x0,%eax
    2578:	e8 63 ee ff ff       	call   13e0 <__sprintf_chk@plt>
    257d:	0f b6 04 24          	movzbl (%rsp),%eax
    2581:	88 45 00             	mov    %al,0x0(%rbp)
    2584:	0f b6 44 24 01       	movzbl 0x1(%rsp),%eax
    2589:	88 45 01             	mov    %al,0x1(%rbp)
    258c:	0f b6 44 24 02       	movzbl 0x2(%rsp),%eax
    2591:	88 45 02             	mov    %al,0x2(%rbp)
    2594:	48 8d 6d 03          	lea    0x3(%rbp),%rbp
    2598:	e9 57 ff ff ff       	jmp    24f4 <urlencode+0x2d>
    259d:	c6 45 00 2b          	movb   $0x2b,0x0(%rbp)
    25a1:	48 8d 6d 01          	lea    0x1(%rbp),%rbp
    25a5:	e9 4a ff ff ff       	jmp    24f4 <urlencode+0x2d>
    25aa:	b8 ff ff ff ff       	mov    $0xffffffff,%eax
    25af:	48 8b 54 24 08       	mov    0x8(%rsp),%rdx
    25b4:	64 48 2b 14 25 28 00 	sub    %fs:0x28,%rdx
    25bb:	00 00 
    25bd:	75 09                	jne    25c8 <urlencode+0x101>
    25bf:	48 83 c4 10          	add    $0x10,%rsp
    25c3:	5b                   	pop    %rbx
    25c4:	5d                   	pop    %rbp
    25c5:	41 5c                	pop    %r12
    25c7:	c3                   	ret    
    25c8:	e8 d3 ec ff ff       	call   12a0 <__stack_chk_fail@plt>

00000000000025cd <submitr>:
    25cd:	f3 0f 1e fa          	endbr64 
    25d1:	41 57                	push   %r15
    25d3:	41 56                	push   %r14
    25d5:	41 55                	push   %r13
    25d7:	41 54                	push   %r12
    25d9:	55                   	push   %rbp
    25da:	53                   	push   %rbx
    25db:	4c 8d 9c 24 00 40 ff 	lea    -0xc000(%rsp),%r11
    25e2:	ff 
    25e3:	48 81 ec 00 10 00 00 	sub    $0x1000,%rsp
    25ea:	48 83 0c 24 00       	orq    $0x0,(%rsp)
    25ef:	4c 39 dc             	cmp    %r11,%rsp
    25f2:	75 ef                	jne    25e3 <submitr+0x16>
    25f4:	48 83 ec 68          	sub    $0x68,%rsp
    25f8:	49 89 fc             	mov    %rdi,%r12
    25fb:	89 74 24 18          	mov    %esi,0x18(%rsp)
    25ff:	48 89 54 24 08       	mov    %rdx,0x8(%rsp)
    2604:	49 89 cd             	mov    %rcx,%r13
    2607:	4c 89 44 24 10       	mov    %r8,0x10(%rsp)
    260c:	4d 89 ce             	mov    %r9,%r14
    260f:	48 8b ac 24 a0 c0 00 	mov    0xc0a0(%rsp),%rbp
    2616:	00 
    2617:	64 48 8b 04 25 28 00 	mov    %fs:0x28,%rax
    261e:	00 00 
    2620:	48 89 84 24 58 c0 00 	mov    %rax,0xc058(%rsp)
    2627:	00 
    2628:	31 c0                	xor    %eax,%eax
    262a:	c7 44 24 2c 00 00 00 	movl   $0x0,0x2c(%rsp)
    2631:	00 
    2632:	ba 00 00 00 00       	mov    $0x0,%edx
    2637:	be 01 00 00 00       	mov    $0x1,%esi
    263c:	bf 02 00 00 00       	mov    $0x2,%edi
    2641:	e8 aa ed ff ff       	call   13f0 <socket@plt>
    2646:	85 c0                	test   %eax,%eax
    2648:	0f 88 ab 02 00 00    	js     28f9 <submitr+0x32c>
    264e:	89 c3                	mov    %eax,%ebx
    2650:	4c 89 e7             	mov    %r12,%rdi
    2653:	e8 98 ec ff ff       	call   12f0 <gethostbyname@plt>
    2658:	48 85 c0             	test   %rax,%rax
    265b:	0f 84 e4 02 00 00    	je     2945 <submitr+0x378>
    2661:	4c 8d 7c 24 30       	lea    0x30(%rsp),%r15
    2666:	48 c7 44 24 30 00 00 	movq   $0x0,0x30(%rsp)
    266d:	00 00 
    266f:	48 c7 44 24 38 00 00 	movq   $0x0,0x38(%rsp)
    2676:	00 00 
    2678:	66 c7 44 24 30 02 00 	movw   $0x2,0x30(%rsp)
    267f:	48 63 50 14          	movslq 0x14(%rax),%rdx
    2683:	48 8b 40 18          	mov    0x18(%rax),%rax
    2687:	48 8b 30             	mov    (%rax),%rsi
    268a:	48 8d 7c 24 34       	lea    0x34(%rsp),%rdi
    268f:	b9 0c 00 00 00       	mov    $0xc,%ecx
    2694:	e8 67 ec ff ff       	call   1300 <__memmove_chk@plt>
    2699:	0f b7 44 24 18       	movzwl 0x18(%rsp),%eax
    269e:	66 c1 c0 08          	rol    $0x8,%ax
    26a2:	66 89 44 24 32       	mov    %ax,0x32(%rsp)
    26a7:	ba 10 00 00 00       	mov    $0x10,%edx
    26ac:	4c 89 fe             	mov    %r15,%rsi
    26af:	89 df                	mov    %ebx,%edi
    26b1:	e8 ea ec ff ff       	call   13a0 <connect@plt>
    26b6:	85 c0                	test   %eax,%eax
    26b8:	0f 88 fd 02 00 00    	js     29bb <submitr+0x3ee>
    26be:	4c 89 f7             	mov    %r14,%rdi
    26c1:	e8 ca eb ff ff       	call   1290 <strlen@plt>
    26c6:	49 89 c7             	mov    %rax,%r15
    26c9:	48 8b 7c 24 08       	mov    0x8(%rsp),%rdi
    26ce:	e8 bd eb ff ff       	call   1290 <strlen@plt>
    26d3:	48 89 44 24 18       	mov    %rax,0x18(%rsp)
    26d8:	4c 89 ef             	mov    %r13,%rdi
    26db:	e8 b0 eb ff ff       	call   1290 <strlen@plt>
    26e0:	48 03 44 24 18       	add    0x18(%rsp),%rax
    26e5:	48 89 44 24 18       	mov    %rax,0x18(%rsp)
    26ea:	48 8b 7c 24 10       	mov    0x10(%rsp),%rdi
    26ef:	e8 9c eb ff ff       	call   1290 <strlen@plt>
    26f4:	48 03 44 24 18       	add    0x18(%rsp),%rax
    26f9:	4b 8d 14 7f          	lea    (%r15,%r15,2),%rdx
    26fd:	48 8d 84 10 80 00 00 	lea    0x80(%rax,%rdx,1),%rax
    2704:	00 
    2705:	48 3d 00 20 00 00    	cmp    $0x2000,%rax
    270b:	0f 87 12 03 00 00    	ja     2a23 <submitr+0x456>
    2711:	48 8d b4 24 50 40 00 	lea    0x4050(%rsp),%rsi
    2718:	00 
    2719:	b9 00 04 00 00       	mov    $0x400,%ecx
    271e:	b8 00 00 00 00       	mov    $0x0,%eax
    2723:	48 89 f7             	mov    %rsi,%rdi
    2726:	f3 48 ab             	rep stos %rax,%es:(%rdi)
    2729:	4c 89 f7             	mov    %r14,%rdi
    272c:	e8 96 fd ff ff       	call   24c7 <urlencode>
    2731:	85 c0                	test   %eax,%eax
    2733:	0f 88 5d 03 00 00    	js     2a96 <submitr+0x4c9>
    2739:	48 8d b4 24 50 60 00 	lea    0x6050(%rsp),%rsi
    2740:	00 
    2741:	b9 00 04 00 00       	mov    $0x400,%ecx
    2746:	b8 00 00 00 00       	mov    $0x0,%eax
    274b:	48 89 f7             	mov    %rsi,%rdi
    274e:	f3 48 ab             	rep stos %rax,%es:(%rdi)
    2751:	4c 89 ef             	mov    %r13,%rdi
    2754:	e8 6e fd ff ff       	call   24c7 <urlencode>
    2759:	85 c0                	test   %eax,%eax
    275b:	0f 88 c0 03 00 00    	js     2b21 <submitr+0x554>
    2761:	4c 8d bc 24 50 20 00 	lea    0x2050(%rsp),%r15
    2768:	00 
    2769:	48 83 ec 08          	sub    $0x8,%rsp
    276d:	41 54                	push   %r12
    276f:	48 8d 84 24 60 40 00 	lea    0x4060(%rsp),%rax
    2776:	00 
    2777:	50                   	push   %rax
    2778:	48 8d 84 24 68 60 00 	lea    0x6068(%rsp),%rax
    277f:	00 
    2780:	50                   	push   %rax
    2781:	4c 8b 4c 24 30       	mov    0x30(%rsp),%r9
    2786:	4c 8b 44 24 28       	mov    0x28(%rsp),%r8
    278b:	48 8d 0d 76 1f 00 00 	lea    0x1f76(%rip),%rcx        # 4708 <transition_table+0x408>
    2792:	ba 00 20 00 00       	mov    $0x2000,%edx
    2797:	be 01 00 00 00       	mov    $0x1,%esi
    279c:	4c 89 ff             	mov    %r15,%rdi
    279f:	b8 00 00 00 00       	mov    $0x0,%eax
    27a4:	e8 37 ec ff ff       	call   13e0 <__sprintf_chk@plt>
    27a9:	48 83 c4 20          	add    $0x20,%rsp
    27ad:	4c 89 ff             	mov    %r15,%rdi
    27b0:	e8 db ea ff ff       	call   1290 <strlen@plt>
    27b5:	48 89 c2             	mov    %rax,%rdx
    27b8:	4c 89 fe             	mov    %r15,%rsi
    27bb:	89 df                	mov    %ebx,%edi
    27bd:	e8 76 fb ff ff       	call   2338 <rio_writen>
    27c2:	48 85 c0             	test   %rax,%rax
    27c5:	0f 88 e1 03 00 00    	js     2bac <submitr+0x5df>
    27cb:	4c 8d 64 24 40       	lea    0x40(%rsp),%r12
    27d0:	89 de                	mov    %ebx,%esi
    27d2:	4c 89 e7             	mov    %r12,%rdi
    27d5:	e8 16 fb ff ff       	call   22f0 <rio_readinitb>
    27da:	48 8d b4 24 50 20 00 	lea    0x2050(%rsp),%rsi
    27e1:	00 
    27e2:	ba 00 20 00 00       	mov    $0x2000,%edx
    27e7:	4c 89 e7             	mov    %r12,%rdi
    27ea:	e8 37 fc ff ff       	call   2426 <rio_readlineb>
    27ef:	48 85 c0             	test   %rax,%rax
    27f2:	0f 8e 20 04 00 00    	jle    2c18 <submitr+0x64b>
    27f8:	48 8d 4c 24 2c       	lea    0x2c(%rsp),%rcx
    27fd:	48 8d 94 24 50 80 00 	lea    0x8050(%rsp),%rdx
    2804:	00 
    2805:	48 8d bc 24 50 20 00 	lea    0x2050(%rsp),%rdi
    280c:	00 
    280d:	4c 8d 84 24 50 a0 00 	lea    0xa050(%rsp),%r8
    2814:	00 
    2815:	48 8d 35 80 1f 00 00 	lea    0x1f80(%rip),%rsi        # 479c <transition_table+0x49c>
    281c:	b8 00 00 00 00       	mov    $0x0,%eax
    2821:	e8 1a eb ff ff       	call   1340 <__isoc99_sscanf@plt>
    2826:	48 8d bc 24 50 20 00 	lea    0x2050(%rsp),%rdi
    282d:	00 
    282e:	48 8d 35 7e 1f 00 00 	lea    0x1f7e(%rip),%rsi        # 47b3 <transition_table+0x4b3>
    2835:	e8 96 ea ff ff       	call   12d0 <strcmp@plt>
    283a:	85 c0                	test   %eax,%eax
    283c:	0f 84 56 04 00 00    	je     2c98 <submitr+0x6cb>
    2842:	48 8d b4 24 50 20 00 	lea    0x2050(%rsp),%rsi
    2849:	00 
    284a:	48 8d 7c 24 40       	lea    0x40(%rsp),%rdi
    284f:	ba 00 20 00 00       	mov    $0x2000,%edx
    2854:	e8 cd fb ff ff       	call   2426 <rio_readlineb>
    2859:	48 85 c0             	test   %rax,%rax
    285c:	7f c8                	jg     2826 <submitr+0x259>
    285e:	48 b8 45 72 72 6f 72 	movabs $0x43203a726f727245,%rax
    2865:	3a 20 43 
    2868:	48 ba 6c 69 65 6e 74 	movabs $0x6e7520746e65696c,%rdx
    286f:	20 75 6e 
    2872:	48 89 45 00          	mov    %rax,0x0(%rbp)
    2876:	48 89 55 08          	mov    %rdx,0x8(%rbp)
    287a:	48 b8 61 62 6c 65 20 	movabs $0x206f7420656c6261,%rax
    2881:	74 6f 20 
    2884:	48 ba 72 65 61 64 20 	movabs $0x6165682064616572,%rdx
    288b:	68 65 61 
    288e:	48 89 45 10          	mov    %rax,0x10(%rbp)
    2892:	48 89 55 18          	mov    %rdx,0x18(%rbp)
    2896:	48 b8 64 65 72 73 20 	movabs $0x6f72662073726564,%rax
    289d:	66 72 6f 
    28a0:	48 ba 6d 20 41 75 74 	movabs $0x616c6f747541206d,%rdx
    28a7:	6f 6c 61 
    28aa:	48 89 45 20          	mov    %rax,0x20(%rbp)
    28ae:	48 89 55 28          	mov    %rdx,0x28(%rbp)
    28b2:	48 b8 62 20 73 65 72 	movabs $0x7265767265732062,%rax
    28b9:	76 65 72 
    28bc:	48 89 45 30          	mov    %rax,0x30(%rbp)
    28c0:	c6 45 38 00          	movb   $0x0,0x38(%rbp)
    28c4:	89 df                	mov    %ebx,%edi
    28c6:	e8 f5 e9 ff ff       	call   12c0 <close@plt>
    28cb:	b8 ff ff ff ff       	mov    $0xffffffff,%eax
    28d0:	48 8b 94 24 58 c0 00 	mov    0xc058(%rsp),%rdx
    28d7:	00 
    28d8:	64 48 2b 14 25 28 00 	sub    %fs:0x28,%rdx
    28df:	00 00 
    28e1:	0f 85 ff 04 00 00    	jne    2de6 <submitr+0x819>
    28e7:	48 81 c4 68 c0 00 00 	add    $0xc068,%rsp
    28ee:	5b                   	pop    %rbx
    28ef:	5d                   	pop    %rbp
    28f0:	41 5c                	pop    %r12
    28f2:	41 5d                	pop    %r13
    28f4:	41 5e                	pop    %r14
    28f6:	41 5f                	pop    %r15
    28f8:	c3                   	ret    
    28f9:	48 b8 45 72 72 6f 72 	movabs $0x43203a726f727245,%rax
    2900:	3a 20 43 
    2903:	48 ba 6c 69 65 6e 74 	movabs $0x6e7520746e65696c,%rdx
    290a:	20 75 6e 
    290d:	48 89 45 00          	mov    %rax,0x0(%rbp)
    2911:	48 89 55 08          	mov    %rdx,0x8(%rbp)
    2915:	48 b8 61 62 6c 65 20 	movabs $0x206f7420656c6261,%rax
    291c:	74 6f 20 
    291f:	48 ba 63 72 65 61 74 	movabs $0x7320657461657263,%rdx
    2926:	65 20 73 
    2929:	48 89 45 10          	mov    %rax,0x10(%rbp)
    292d:	48 89 55 18          	mov    %rdx,0x18(%rbp)
    2931:	c7 45 20 6f 63 6b 65 	movl   $0x656b636f,0x20(%rbp)
    2938:	66 c7 45 24 74 00    	movw   $0x74,0x24(%rbp)
    293e:	b8 ff ff ff ff       	mov    $0xffffffff,%eax
    2943:	eb 8b                	jmp    28d0 <submitr+0x303>
    2945:	48 b8 45 72 72 6f 72 	movabs $0x44203a726f727245,%rax
    294c:	3a 20 44 
    294f:	48 ba 4e 53 20 69 73 	movabs $0x6e7520736920534e,%rdx
    2956:	20 75 6e 
    2959:	48 89 45 00          	mov    %rax,0x0(%rbp)
    295d:	48 89 55 08          	mov    %rdx,0x8(%rbp)
    2961:	48 b8 61 62 6c 65 20 	movabs $0x206f7420656c6261,%rax
    2968:	74 6f 20 
    296b:	48 ba 72 65 73 6f 6c 	movabs $0x2065766c6f736572,%rdx
    2972:	76 65 20 
    2975:	48 89 45 10          	mov    %rax,0x10(%rbp)
    2979:	48 89 55 18          	mov    %rdx,0x18(%rbp)
    297d:	48 b8 41 75 74 6f 6c 	movabs $0x2062616c6f747541,%rax
    2984:	61 62 20 
    2987:	48 ba 73 65 72 76 65 	movabs $0x6120726576726573,%rdx
    298e:	72 20 61 
    2991:	48 89 45 20          	mov    %rax,0x20(%rbp)
    2995:	48 89 55 28          	mov    %rdx,0x28(%rbp)
    2999:	c7 45 30 64 64 72 65 	movl   $0x65726464,0x30(%rbp)
    29a0:	66 c7 45 34 73 73    	movw   $0x7373,0x34(%rbp)
    29a6:	c6 45 36 00          	movb   $0x0,0x36(%rbp)
    29aa:	89 df                	mov    %ebx,%edi
    29ac:	e8 0f e9 ff ff       	call   12c0 <close@plt>
    29b1:	b8 ff ff ff ff       	mov    $0xffffffff,%eax
    29b6:	e9 15 ff ff ff       	jmp    28d0 <submitr+0x303>
    29bb:	48 b8 45 72 72 6f 72 	movabs $0x55203a726f727245,%rax
    29c2:	3a 20 55 
    29c5:	48 ba 6e 61 62 6c 65 	movabs $0x6f7420656c62616e,%rdx
    29cc:	20 74 6f 
    29cf:	48 89 45 00          	mov    %rax,0x0(%rbp)
    29d3:	48 89 55 08          	mov    %rdx,0x8(%rbp)
    29d7:	48 b8 20 63 6f 6e 6e 	movabs $0x7463656e6e6f6320,%rax
    29de:	65 63 74 
    29e1:	48 ba 20 74 6f 20 74 	movabs $0x20656874206f7420,%rdx
    29e8:	68 65 20 
    29eb:	48 89 45 10          	mov    %rax,0x10(%rbp)
    29ef:	48 89 55 18          	mov    %rdx,0x18(%rbp)
    29f3:	48 b8 41 75 74 6f 6c 	movabs $0x2062616c6f747541,%rax
    29fa:	61 62 20 
    29fd:	48 89 45 20          	mov    %rax,0x20(%rbp)
    2a01:	c7 45 28 73 65 72 76 	movl   $0x76726573,0x28(%rbp)
    2a08:	66 c7 45 2c 65 72    	movw   $0x7265,0x2c(%rbp)
    2a0e:	c6 45 2e 00          	movb   $0x0,0x2e(%rbp)
    2a12:	89 df                	mov    %ebx,%edi
    2a14:	e8 a7 e8 ff ff       	call   12c0 <close@plt>
    2a19:	b8 ff ff ff ff       	mov    $0xffffffff,%eax
    2a1e:	e9 ad fe ff ff       	jmp    28d0 <submitr+0x303>
    2a23:	48 b8 45 72 72 6f 72 	movabs $0x52203a726f727245,%rax
    2a2a:	3a 20 52 
    2a2d:	48 ba 65 73 75 6c 74 	movabs $0x747320746c757365,%rdx
    2a34:	20 73 74 
    2a37:	48 89 45 00          	mov    %rax,0x0(%rbp)
    2a3b:	48 89 55 08          	mov    %rdx,0x8(%rbp)
    2a3f:	48 b8 72 69 6e 67 20 	movabs $0x6f6f7420676e6972,%rax
    2a46:	74 6f 6f 
    2a49:	48 ba 20 6c 61 72 67 	movabs $0x202e656772616c20,%rdx
    2a50:	65 2e 20 
    2a53:	48 89 45 10          	mov    %rax,0x10(%rbp)
    2a57:	48 89 55 18          	mov    %rdx,0x18(%rbp)
    2a5b:	48 b8 49 6e 63 72 65 	movabs $0x6573616572636e49,%rax
    2a62:	61 73 65 
    2a65:	48 ba 20 53 55 42 4d 	movabs $0x5254494d42555320,%rdx
    2a6c:	49 54 52 
    2a6f:	48 89 45 20          	mov    %rax,0x20(%rbp)
    2a73:	48 89 55 28          	mov    %rdx,0x28(%rbp)
    2a77:	48 b8 5f 4d 41 58 42 	movabs $0x46554258414d5f,%rax
    2a7e:	55 46 00 
    2a81:	48 89 45 30          	mov    %rax,0x30(%rbp)
    2a85:	89 df                	mov    %ebx,%edi
    2a87:	e8 34 e8 ff ff       	call   12c0 <close@plt>
    2a8c:	b8 ff ff ff ff       	mov    $0xffffffff,%eax
    2a91:	e9 3a fe ff ff       	jmp    28d0 <submitr+0x303>
    2a96:	48 b8 45 72 72 6f 72 	movabs $0x52203a726f727245,%rax
    2a9d:	3a 20 52 
    2aa0:	48 ba 65 73 75 6c 74 	movabs $0x747320746c757365,%rdx
    2aa7:	20 73 74 
    2aaa:	48 89 45 00          	mov    %rax,0x0(%rbp)
    2aae:	48 89 55 08          	mov    %rdx,0x8(%rbp)
    2ab2:	48 b8 72 69 6e 67 20 	movabs $0x6e6f6320676e6972,%rax
    2ab9:	63 6f 6e 
    2abc:	48 ba 74 61 69 6e 73 	movabs $0x6e6120736e696174,%rdx
    2ac3:	20 61 6e 
    2ac6:	48 89 45 10          	mov    %rax,0x10(%rbp)
    2aca:	48 89 55 18          	mov    %rdx,0x18(%rbp)
    2ace:	48 b8 20 69 6c 6c 65 	movabs $0x6c6167656c6c6920,%rax
    2ad5:	67 61 6c 
    2ad8:	48 ba 20 6f 72 20 75 	movabs $0x72706e7520726f20,%rdx
    2adf:	6e 70 72 
    2ae2:	48 89 45 20          	mov    %rax,0x20(%rbp)
    2ae6:	48 89 55 28          	mov    %rdx,0x28(%rbp)
    2aea:	48 b8 69 6e 74 61 62 	movabs $0x20656c6261746e69,%rax
    2af1:	6c 65 20 
    2af4:	48 ba 63 68 61 72 61 	movabs $0x6574636172616863,%rdx
    2afb:	63 74 65 
    2afe:	48 89 45 30          	mov    %rax,0x30(%rbp)
    2b02:	48 89 55 38          	mov    %rdx,0x38(%rbp)
    2b06:	66 c7 45 40 72 2e    	movw   $0x2e72,0x40(%rbp)
    2b0c:	c6 45 42 00          	movb   $0x0,0x42(%rbp)
    2b10:	89 df                	mov    %ebx,%edi
    2b12:	e8 a9 e7 ff ff       	call   12c0 <close@plt>
    2b17:	b8 ff ff ff ff       	mov    $0xffffffff,%eax
    2b1c:	e9 af fd ff ff       	jmp    28d0 <submitr+0x303>
    2b21:	48 b8 45 72 72 6f 72 	movabs $0x55203a726f727245,%rax
    2b28:	3a 20 55 
    2b2b:	48 ba 73 65 72 69 64 	movabs $0x7473206469726573,%rdx
    2b32:	20 73 74 
    2b35:	48 89 45 00          	mov    %rax,0x0(%rbp)
    2b39:	48 89 55 08          	mov    %rdx,0x8(%rbp)
    2b3d:	48 b8 72 69 6e 67 20 	movabs $0x6e6f6320676e6972,%rax
    2b44:	63 6f 6e 
    2b47:	48 ba 74 61 69 6e 73 	movabs $0x6e6120736e696174,%rdx
    2b4e:	20 61 6e 
    2b51:	48 89 45 10          	mov    %rax,0x10(%rbp)
    2b55:	48 89 55 18          	mov    %rdx,0x18(%rbp)
    2b59:	48 b8 20 69 6c 6c 65 	movabs $0x6c6167656c6c6920,%rax
    2b60:	67 61 6c 
    2b63:	48 ba 20 6f 72 20 75 	movabs $0x72706e7520726f20,%rdx
    2b6a:	6e 70 72 
    2b6d:	48 89 45 20          	mov    %rax,0x20(%rbp)
    2b71:	48 89 55 28          	mov    %rdx,0x28(%rbp)
    2b75:	48 b8 69 6e 74 61 62 	movabs $0x20656c6261746e69,%rax
    2b7c:	6c 65 20 
    2b7f:	48 ba 63 68 61 72 61 	movabs $0x6574636172616863,%rdx
    2b86:	63 74 65 
    2b89:	48 89 45 30          	mov    %rax,0x30(%rbp)
    2b8d:	48 89 55 38          	mov    %rdx,0x38(%rbp)
    2b91:	66 c7 45 40 72 2e    	movw   $0x2e72,0x40(%rbp)
    2b97:	c6 45 42 00          	movb   $0x0,0x42(%rbp)
    2b9b:	89 df                	mov    %ebx,%edi
    2b9d:	e8 1e e7 ff ff       	call   12c0 <close@plt>
    2ba2:	b8 ff ff ff ff       	mov    $0xffffffff,%eax
    2ba7:	e9 24 fd ff ff       	jmp    28d0 <submitr+0x303>
    2bac:	48 b8 45 72 72 6f 72 	movabs $0x43203a726f727245,%rax
    2bb3:	3a 20 43 
    2bb6:	48 ba 6c 69 65 6e 74 	movabs $0x6e7520746e65696c,%rdx
    2bbd:	20 75 6e 
    2bc0:	48 89 45 00          	mov    %rax,0x0(%rbp)
    2bc4:	48 89 55 08          	mov    %rdx,0x8(%rbp)
    2bc8:	48 b8 61 62 6c 65 20 	movabs $0x206f7420656c6261,%rax
    2bcf:	74 6f 20 
    2bd2:	48 ba 77 72 69 74 65 	movabs $0x6f74206574697277,%rdx
    2bd9:	20 74 6f 
    2bdc:	48 89 45 10          	mov    %rax,0x10(%rbp)
    2be0:	48 89 55 18          	mov    %rdx,0x18(%rbp)
    2be4:	48 b8 20 74 68 65 20 	movabs $0x7475412065687420,%rax
    2beb:	41 75 74 
    2bee:	48 ba 6f 6c 61 62 20 	movabs $0x7265732062616c6f,%rdx
    2bf5:	73 65 72 
    2bf8:	48 89 45 20          	mov    %rax,0x20(%rbp)
    2bfc:	48 89 55 28          	mov    %rdx,0x28(%rbp)
    2c00:	c7 45 30 76 65 72 00 	movl   $0x726576,0x30(%rbp)
    2c07:	89 df                	mov    %ebx,%edi
    2c09:	e8 b2 e6 ff ff       	call   12c0 <close@plt>
    2c0e:	b8 ff ff ff ff       	mov    $0xffffffff,%eax
    2c13:	e9 b8 fc ff ff       	jmp    28d0 <submitr+0x303>
    2c18:	48 b8 45 72 72 6f 72 	movabs $0x43203a726f727245,%rax
    2c1f:	3a 20 43 
    2c22:	48 ba 6c 69 65 6e 74 	movabs $0x6e7520746e65696c,%rdx
    2c29:	20 75 6e 
    2c2c:	48 89 45 00          	mov    %rax,0x0(%rbp)
    2c30:	48 89 55 08          	mov    %rdx,0x8(%rbp)
    2c34:	48 b8 61 62 6c 65 20 	movabs $0x206f7420656c6261,%rax
    2c3b:	74 6f 20 
    2c3e:	48 ba 72 65 61 64 20 	movabs $0x7269662064616572,%rdx
    2c45:	66 69 72 
    2c48:	48 89 45 10          	mov    %rax,0x10(%rbp)
    2c4c:	48 89 55 18          	mov    %rdx,0x18(%rbp)
    2c50:	48 b8 73 74 20 68 65 	movabs $0x6564616568207473,%rax
    2c57:	61 64 65 
    2c5a:	48 ba 72 20 66 72 6f 	movabs $0x41206d6f72662072,%rdx
    2c61:	6d 20 41 
    2c64:	48 89 45 20          	mov    %rax,0x20(%rbp)
    2c68:	48 89 55 28          	mov    %rdx,0x28(%rbp)
    2c6c:	48 b8 75 74 6f 6c 61 	movabs $0x732062616c6f7475,%rax
    2c73:	62 20 73 
    2c76:	48 89 45 30          	mov    %rax,0x30(%rbp)
    2c7a:	c7 45 38 65 72 76 65 	movl   $0x65767265,0x38(%rbp)
    2c81:	66 c7 45 3c 72 00    	movw   $0x72,0x3c(%rbp)
    2c87:	89 df                	mov    %ebx,%edi
    2c89:	e8 32 e6 ff ff       	call   12c0 <close@plt>
    2c8e:	b8 ff ff ff ff       	mov    $0xffffffff,%eax
    2c93:	e9 38 fc ff ff       	jmp    28d0 <submitr+0x303>
    2c98:	48 8d b4 24 50 20 00 	lea    0x2050(%rsp),%rsi
    2c9f:	00 
    2ca0:	48 8d 7c 24 40       	lea    0x40(%rsp),%rdi
    2ca5:	ba 00 20 00 00       	mov    $0x2000,%edx
    2caa:	e8 77 f7 ff ff       	call   2426 <rio_readlineb>
    2caf:	48 85 c0             	test   %rax,%rax
    2cb2:	7e 78                	jle    2d2c <submitr+0x75f>
    2cb4:	44 8b 44 24 2c       	mov    0x2c(%rsp),%r8d
    2cb9:	41 81 f8 c8 00 00 00 	cmp    $0xc8,%r8d
    2cc0:	0f 85 e7 00 00 00    	jne    2dad <submitr+0x7e0>
    2cc6:	48 8d b4 24 50 20 00 	lea    0x2050(%rsp),%rsi
    2ccd:	00 
    2cce:	48 89 ef             	mov    %rbp,%rdi
    2cd1:	e8 7a e5 ff ff       	call   1250 <strcpy@plt>
    2cd6:	89 df                	mov    %ebx,%edi
    2cd8:	e8 e3 e5 ff ff       	call   12c0 <close@plt>
    2cdd:	48 8d 35 c9 1a 00 00 	lea    0x1ac9(%rip),%rsi        # 47ad <transition_table+0x4ad>
    2ce4:	48 89 ef             	mov    %rbp,%rdi
    2ce7:	e8 e4 e5 ff ff       	call   12d0 <strcmp@plt>
    2cec:	85 c0                	test   %eax,%eax
    2cee:	0f 84 dc fb ff ff    	je     28d0 <submitr+0x303>
    2cf4:	48 8d 35 b6 1a 00 00 	lea    0x1ab6(%rip),%rsi        # 47b1 <transition_table+0x4b1>
    2cfb:	48 89 ef             	mov    %rbp,%rdi
    2cfe:	e8 cd e5 ff ff       	call   12d0 <strcmp@plt>
    2d03:	85 c0                	test   %eax,%eax
    2d05:	0f 84 c5 fb ff ff    	je     28d0 <submitr+0x303>
    2d0b:	48 8d 35 a4 1a 00 00 	lea    0x1aa4(%rip),%rsi        # 47b6 <transition_table+0x4b6>
    2d12:	48 89 ef             	mov    %rbp,%rdi
    2d15:	e8 b6 e5 ff ff       	call   12d0 <strcmp@plt>
    2d1a:	85 c0                	test   %eax,%eax
    2d1c:	0f 84 ae fb ff ff    	je     28d0 <submitr+0x303>
    2d22:	b8 ff ff ff ff       	mov    $0xffffffff,%eax
    2d27:	e9 a4 fb ff ff       	jmp    28d0 <submitr+0x303>
    2d2c:	48 b8 45 72 72 6f 72 	movabs $0x43203a726f727245,%rax
    2d33:	3a 20 43 
    2d36:	48 ba 6c 69 65 6e 74 	movabs $0x6e7520746e65696c,%rdx
    2d3d:	20 75 6e 
    2d40:	48 89 45 00          	mov    %rax,0x0(%rbp)
    2d44:	48 89 55 08          	mov    %rdx,0x8(%rbp)
    2d48:	48 b8 61 62 6c 65 20 	movabs $0x206f7420656c6261,%rax
    2d4f:	74 6f 20 
    2d52:	48 ba 72 65 61 64 20 	movabs $0x6174732064616572,%rdx
    2d59:	73 74 61 
    2d5c:	48 89 45 10          	mov    %rax,0x10(%rbp)
    2d60:	48 89 55 18          	mov    %rdx,0x18(%rbp)
    2d64:	48 b8 74 75 73 20 6d 	movabs $0x7373656d20737574,%rax
    2d6b:	65 73 73 
    2d6e:	48 ba 61 67 65 20 66 	movabs $0x6d6f726620656761,%rdx
    2d75:	72 6f 6d 
    2d78:	48 89 45 20          	mov    %rax,0x20(%rbp)
    2d7c:	48 89 55 28          	mov    %rdx,0x28(%rbp)
    2d80:	48 b8 20 41 75 74 6f 	movabs $0x62616c6f74754120,%rax
    2d87:	6c 61 62 
    2d8a:	48 ba 20 73 65 72 76 	movabs $0x72657672657320,%rdx
    2d91:	65 72 00 
    2d94:	48 89 45 30          	mov    %rax,0x30(%rbp)
    2d98:	48 89 55 38          	mov    %rdx,0x38(%rbp)
    2d9c:	89 df                	mov    %ebx,%edi
    2d9e:	e8 1d e5 ff ff       	call   12c0 <close@plt>
    2da3:	b8 ff ff ff ff       	mov    $0xffffffff,%eax
    2da8:	e9 23 fb ff ff       	jmp    28d0 <submitr+0x303>
    2dad:	4c 8d 8c 24 50 a0 00 	lea    0xa050(%rsp),%r9
    2db4:	00 
    2db5:	48 8d 0d ac 19 00 00 	lea    0x19ac(%rip),%rcx        # 4768 <transition_table+0x468>
    2dbc:	48 c7 c2 ff ff ff ff 	mov    $0xffffffffffffffff,%rdx
    2dc3:	be 01 00 00 00       	mov    $0x1,%esi
    2dc8:	48 89 ef             	mov    %rbp,%rdi
    2dcb:	b8 00 00 00 00       	mov    $0x0,%eax
    2dd0:	e8 0b e6 ff ff       	call   13e0 <__sprintf_chk@plt>
    2dd5:	89 df                	mov    %ebx,%edi
    2dd7:	e8 e4 e4 ff ff       	call   12c0 <close@plt>
    2ddc:	b8 ff ff ff ff       	mov    $0xffffffff,%eax
    2de1:	e9 ea fa ff ff       	jmp    28d0 <submitr+0x303>
    2de6:	e8 b5 e4 ff ff       	call   12a0 <__stack_chk_fail@plt>

0000000000002deb <init_timeout>:
    2deb:	f3 0f 1e fa          	endbr64 
    2def:	85 ff                	test   %edi,%edi
    2df1:	74 26                	je     2e19 <init_timeout+0x2e>
    2df3:	53                   	push   %rbx
    2df4:	89 fb                	mov    %edi,%ebx
    2df6:	78 1a                	js     2e12 <init_timeout+0x27>
    2df8:	48 8d 35 03 f5 ff ff 	lea    -0xafd(%rip),%rsi        # 2302 <sigalrm_handler>
    2dff:	bf 0e 00 00 00       	mov    $0xe,%edi
    2e04:	e8 d7 e4 ff ff       	call   12e0 <signal@plt>
    2e09:	89 df                	mov    %ebx,%edi
    2e0b:	e8 a0 e4 ff ff       	call   12b0 <alarm@plt>
    2e10:	5b                   	pop    %rbx
    2e11:	c3                   	ret    
    2e12:	bb 00 00 00 00       	mov    $0x0,%ebx
    2e17:	eb df                	jmp    2df8 <init_timeout+0xd>
    2e19:	c3                   	ret    

0000000000002e1a <init_driver>:
    2e1a:	f3 0f 1e fa          	endbr64 
    2e1e:	41 54                	push   %r12
    2e20:	55                   	push   %rbp
    2e21:	53                   	push   %rbx
    2e22:	48 83 ec 20          	sub    $0x20,%rsp
    2e26:	48 89 fd             	mov    %rdi,%rbp
    2e29:	64 48 8b 04 25 28 00 	mov    %fs:0x28,%rax
    2e30:	00 00 
    2e32:	48 89 44 24 18       	mov    %rax,0x18(%rsp)
    2e37:	31 c0                	xor    %eax,%eax
    2e39:	be 01 00 00 00       	mov    $0x1,%esi
    2e3e:	bf 0d 00 00 00       	mov    $0xd,%edi
    2e43:	e8 98 e4 ff ff       	call   12e0 <signal@plt>
    2e48:	be 01 00 00 00       	mov    $0x1,%esi
    2e4d:	bf 1d 00 00 00       	mov    $0x1d,%edi
    2e52:	e8 89 e4 ff ff       	call   12e0 <signal@plt>
    2e57:	be 01 00 00 00       	mov    $0x1,%esi
    2e5c:	bf 1d 00 00 00       	mov    $0x1d,%edi
    2e61:	e8 7a e4 ff ff       	call   12e0 <signal@plt>
    2e66:	ba 00 00 00 00       	mov    $0x0,%edx
    2e6b:	be 01 00 00 00       	mov    $0x1,%esi
    2e70:	bf 02 00 00 00       	mov    $0x2,%edi
    2e75:	e8 76 e5 ff ff       	call   13f0 <socket@plt>
    2e7a:	85 c0                	test   %eax,%eax
    2e7c:	0f 88 9c 00 00 00    	js     2f1e <init_driver+0x104>
    2e82:	89 c3                	mov    %eax,%ebx
    2e84:	48 8d 3d 2e 19 00 00 	lea    0x192e(%rip),%rdi        # 47b9 <transition_table+0x4b9>
    2e8b:	e8 60 e4 ff ff       	call   12f0 <gethostbyname@plt>
    2e90:	48 85 c0             	test   %rax,%rax
    2e93:	0f 84 d1 00 00 00    	je     2f6a <init_driver+0x150>
    2e99:	49 89 e4             	mov    %rsp,%r12
    2e9c:	48 c7 04 24 00 00 00 	movq   $0x0,(%rsp)
    2ea3:	00 
    2ea4:	48 c7 44 24 08 00 00 	movq   $0x0,0x8(%rsp)
    2eab:	00 00 
    2ead:	66 c7 04 24 02 00    	movw   $0x2,(%rsp)
    2eb3:	48 63 50 14          	movslq 0x14(%rax),%rdx
    2eb7:	48 8b 40 18          	mov    0x18(%rax),%rax
    2ebb:	48 8b 30             	mov    (%rax),%rsi
    2ebe:	48 8d 7c 24 04       	lea    0x4(%rsp),%rdi
    2ec3:	b9 0c 00 00 00       	mov    $0xc,%ecx
    2ec8:	e8 33 e4 ff ff       	call   1300 <__memmove_chk@plt>
    2ecd:	66 c7 44 24 02 00 50 	movw   $0x5000,0x2(%rsp)
    2ed4:	ba 10 00 00 00       	mov    $0x10,%edx
    2ed9:	4c 89 e6             	mov    %r12,%rsi
    2edc:	89 df                	mov    %ebx,%edi
    2ede:	e8 bd e4 ff ff       	call   13a0 <connect@plt>
    2ee3:	85 c0                	test   %eax,%eax
    2ee5:	0f 88 e7 00 00 00    	js     2fd2 <init_driver+0x1b8>
    2eeb:	89 df                	mov    %ebx,%edi
    2eed:	e8 ce e3 ff ff       	call   12c0 <close@plt>
    2ef2:	66 c7 45 00 4f 4b    	movw   $0x4b4f,0x0(%rbp)
    2ef8:	c6 45 02 00          	movb   $0x0,0x2(%rbp)
    2efc:	b8 00 00 00 00       	mov    $0x0,%eax
    2f01:	48 8b 54 24 18       	mov    0x18(%rsp),%rdx
    2f06:	64 48 2b 14 25 28 00 	sub    %fs:0x28,%rdx
    2f0d:	00 00 
    2f0f:	0f 85 2f 01 00 00    	jne    3044 <init_driver+0x22a>
    2f15:	48 83 c4 20          	add    $0x20,%rsp
    2f19:	5b                   	pop    %rbx
    2f1a:	5d                   	pop    %rbp
    2f1b:	41 5c                	pop    %r12
    2f1d:	c3                   	ret    
    2f1e:	48 b8 45 72 72 6f 72 	movabs $0x43203a726f727245,%rax
    2f25:	3a 20 43 
    2f28:	48 ba 6c 69 65 6e 74 	movabs $0x6e7520746e65696c,%rdx
    2f2f:	20 75 6e 
    2f32:	48 89 45 00          	mov    %rax,0x0(%rbp)
    2f36:	48 89 55 08          	mov    %rdx,0x8(%rbp)
    2f3a:	48 b8 61 62 6c 65 20 	movabs $0x206f7420656c6261,%rax
    2f41:	74 6f 20 
    2f44:	48 ba 63 72 65 61 74 	movabs $0x7320657461657263,%rdx
    2f4b:	65 20 73 
    2f4e:	48 89 45 10          	mov    %rax,0x10(%rbp)
    2f52:	48 89 55 18          	mov    %rdx,0x18(%rbp)
    2f56:	c7 45 20 6f 63 6b 65 	movl   $0x656b636f,0x20(%rbp)
    2f5d:	66 c7 45 24 74 00    	movw   $0x74,0x24(%rbp)
    2f63:	b8 ff ff ff ff       	mov    $0xffffffff,%eax
    2f68:	eb 97                	jmp    2f01 <init_driver+0xe7>
    2f6a:	48 b8 45 72 72 6f 72 	movabs $0x44203a726f727245,%rax
    2f71:	3a 20 44 
    2f74:	48 ba 4e 53 20 69 73 	movabs $0x6e7520736920534e,%rdx
    2f7b:	20 75 6e 
    2f7e:	48 89 45 00          	mov    %rax,0x0(%rbp)
    2f82:	48 89 55 08          	mov    %rdx,0x8(%rbp)
    2f86:	48 b8 61 62 6c 65 20 	movabs $0x206f7420656c6261,%rax
    2f8d:	74 6f 20 
    2f90:	48 ba 72 65 73 6f 6c 	movabs $0x2065766c6f736572,%rdx
    2f97:	76 65 20 
    2f9a:	48 89 45 10          	mov    %rax,0x10(%rbp)
    2f9e:	48 89 55 18          	mov    %rdx,0x18(%rbp)
    2fa2:	48 b8 73 65 72 76 65 	movabs $0x6120726576726573,%rax
    2fa9:	72 20 61 
    2fac:	48 89 45 20          	mov    %rax,0x20(%rbp)
    2fb0:	c7 45 28 64 64 72 65 	movl   $0x65726464,0x28(%rbp)
    2fb7:	66 c7 45 2c 73 73    	movw   $0x7373,0x2c(%rbp)
    2fbd:	c6 45 2e 00          	movb   $0x0,0x2e(%rbp)
    2fc1:	89 df                	mov    %ebx,%edi
    2fc3:	e8 f8 e2 ff ff       	call   12c0 <close@plt>
    2fc8:	b8 ff ff ff ff       	mov    $0xffffffff,%eax
    2fcd:	e9 2f ff ff ff       	jmp    2f01 <init_driver+0xe7>
    2fd2:	48 b8 31 36 32 2e 31 	movabs $0x2e3530312e323631,%rax
    2fd9:	30 35 2e 
    2fdc:	48 89 45 00          	mov    %rax,0x0(%rbp)
    2fe0:	c7 45 08 33 31 2e 32 	movl   $0x322e3133,0x8(%rbp)
    2fe7:	66 c7 45 0c 33 32    	movw   $0x3233,0xc(%rbp)
    2fed:	c6 45 0e 00          	movb   $0x0,0xe(%rbp)
    2ff1:	48 b8 45 72 72 6f 72 	movabs $0x55203a726f727245,%rax
    2ff8:	3a 20 55 
    2ffb:	48 ba 6e 61 62 6c 65 	movabs $0x6f7420656c62616e,%rdx
    3002:	20 74 6f 
    3005:	48 89 45 00          	mov    %rax,0x0(%rbp)
    3009:	48 89 55 08          	mov    %rdx,0x8(%rbp)
    300d:	48 b8 20 63 6f 6e 6e 	movabs $0x7463656e6e6f6320,%rax
    3014:	65 63 74 
    3017:	48 ba 20 74 6f 20 73 	movabs $0x76726573206f7420,%rdx
    301e:	65 72 76 
    3021:	48 89 45 10          	mov    %rax,0x10(%rbp)
    3025:	48 89 55 18          	mov    %rdx,0x18(%rbp)
    3029:	66 c7 45 20 65 72    	movw   $0x7265,0x20(%rbp)
    302f:	c6 45 22 00          	movb   $0x0,0x22(%rbp)
    3033:	89 df                	mov    %ebx,%edi
    3035:	e8 86 e2 ff ff       	call   12c0 <close@plt>
    303a:	b8 ff ff ff ff       	mov    $0xffffffff,%eax
    303f:	e9 bd fe ff ff       	jmp    2f01 <init_driver+0xe7>
    3044:	e8 57 e2 ff ff       	call   12a0 <__stack_chk_fail@plt>

0000000000003049 <driver_post>:
    3049:	f3 0f 1e fa          	endbr64 
    304d:	53                   	push   %rbx
    304e:	4c 89 cb             	mov    %r9,%rbx
    3051:	45 85 c0             	test   %r8d,%r8d
    3054:	75 18                	jne    306e <driver_post+0x25>
    3056:	48 85 ff             	test   %rdi,%rdi
    3059:	74 05                	je     3060 <driver_post+0x17>
    305b:	80 3f 00             	cmpb   $0x0,(%rdi)
    305e:	75 37                	jne    3097 <driver_post+0x4e>
    3060:	66 c7 03 4f 4b       	movw   $0x4b4f,(%rbx)
    3065:	c6 43 02 00          	movb   $0x0,0x2(%rbx)
    3069:	44 89 c0             	mov    %r8d,%eax
    306c:	5b                   	pop    %rbx
    306d:	c3                   	ret    
    306e:	48 89 ca             	mov    %rcx,%rdx
    3071:	48 8d 35 50 17 00 00 	lea    0x1750(%rip),%rsi        # 47c8 <transition_table+0x4c8>
    3078:	bf 01 00 00 00       	mov    $0x1,%edi
    307d:	b8 00 00 00 00       	mov    $0x0,%eax
    3082:	e8 d9 e2 ff ff       	call   1360 <__printf_chk@plt>
    3087:	66 c7 03 4f 4b       	movw   $0x4b4f,(%rbx)
    308c:	c6 43 02 00          	movb   $0x0,0x2(%rbx)
    3090:	b8 00 00 00 00       	mov    $0x0,%eax
    3095:	eb d5                	jmp    306c <driver_post+0x23>
    3097:	48 83 ec 08          	sub    $0x8,%rsp
    309b:	41 51                	push   %r9
    309d:	49 89 c9             	mov    %rcx,%r9
    30a0:	49 89 d0             	mov    %rdx,%r8
    30a3:	48 89 f9             	mov    %rdi,%rcx
    30a6:	48 89 f2             	mov    %rsi,%rdx
    30a9:	be 50 00 00 00       	mov    $0x50,%esi
    30ae:	48 8d 3d 04 17 00 00 	lea    0x1704(%rip),%rdi        # 47b9 <transition_table+0x4b9>
    30b5:	e8 13 f5 ff ff       	call   25cd <submitr>
    30ba:	48 83 c4 10          	add    $0x10,%rsp
    30be:	eb ac                	jmp    306c <driver_post+0x23>

Disassembly of section .fini:

00000000000030c0 <_fini>:
    30c0:	f3 0f 1e fa          	endbr64 
    30c4:	48 83 ec 08          	sub    $0x8,%rsp
    30c8:	48 83 c4 08          	add    $0x8,%rsp
    30cc:	c3                   	ret    
